Archive member included because of file (symbol)

..\..\..\..\bin\framework\peripheral\PIC32MX795F512L_peripherals.a(plib_eth_lib.o)
                              build/Diplomamunka/production/_ext/1908841681/drv_ethmac.o (PLIB_ETH_MACSetAddress)

Optional file libmchp_peripheral.a not found

Optional file libmchp_peripheral_32MX795F512L.a not found
c:/program files (x86)/microchip/xc32/v1.42/bin/bin/../../lib/gcc/pic32mx/4.8.3\libgcc.a(_udivdi3.o)
                              build/Diplomamunka/production/_ext/1886890887/tfm.o (__udivdi3)
c:/program files (x86)/microchip/xc32/v1.42/bin/bin/../../lib/gcc/pic32mx/4.8.3\libgcc.a(floatunsisf.o)
                              build/Diplomamunka/production/_ext/1360937237/fan.o (__floatunsisf)
c:/program files (x86)/microchip/xc32/v1.42/bin/bin/../../lib/gcc/pic32mx/4.8.3/../../../../pic32mx/lib\libpic32.a(memcmp.o)
                              build/Diplomamunka/production/_ext/1886890887/asn.o (memcmp)
c:/program files (x86)/microchip/xc32/v1.42/bin/bin/../../lib/gcc/pic32mx/4.8.3/../../../../pic32mx/lib\libpic32.a(memcpy.o)
                              build/Diplomamunka/production/_ext/1606841020/deflate.o (memcpy)
c:/program files (x86)/microchip/xc32/v1.42/bin/bin/../../lib/gcc/pic32mx/4.8.3/../../../../pic32mx/lib\libpic32.a(memset.o)
                              build/Diplomamunka/production/_ext/1360937237/app.o (memset)
c:/program files (x86)/microchip/xc32/v1.42/bin/bin/../../lib/gcc/pic32mx/4.8.3/../../../../pic32mx/lib\libpic32.a(strcmp.o)
                              build/Diplomamunka/production/_ext/1408260596/dns.o (strcmp)
c:/program files (x86)/microchip/xc32/v1.42/bin/bin/../../lib/gcc/pic32mx/4.8.3/../../../../pic32mx/lib\libpic32.a(strcpy.o)
                              build/Diplomamunka/production/_ext/1408260596/tcpip_helpers.o (strcpy)
c:/program files (x86)/microchip/xc32/v1.42/bin/bin/../../lib/gcc/pic32mx/4.8.3/../../../../pic32mx/lib\libpic32.a(strlen.o)
                              build/Diplomamunka/production/_ext/1360937237/app.o (strlen)
c:/program files (x86)/microchip/xc32/v1.42/bin/bin/../../lib/gcc/pic32mx/4.8.3/../../../../pic32mx/lib\libpic32.a(default-bootstrap-exception-handler.o)
                              c:/program files (x86)/microchip/xc32/v1.42/bin/bin/../../lib/gcc/pic32mx/4.8.3/../../../../pic32mx/lib/./proc/32MX795F512L/crt0_mips32r2.o (_bootstrap_exception_handler)
c:/program files (x86)/microchip/xc32/v1.42/bin/bin/../../lib/gcc/pic32mx/4.8.3/../../../../pic32mx/lib\libpic32.a(default-on-reset.o)
                              c:/program files (x86)/microchip/xc32/v1.42/bin/bin/../../lib/gcc/pic32mx/4.8.3/../../../../pic32mx/lib/./proc/32MX795F512L/crt0_mips32r2.o (_on_reset)
c:/program files (x86)/microchip/xc32/v1.42/bin/bin/../../lib/gcc/pic32mx/4.8.3/../../../../pic32mx/lib\libpic32.a(default-on-bootstrap.o)
                              c:/program files (x86)/microchip/xc32/v1.42/bin/bin/../../lib/gcc/pic32mx/4.8.3/../../../../pic32mx/lib/./proc/32MX795F512L/crt0_mips32r2.o (_on_bootstrap)
c:/program files (x86)/microchip/xc32/v1.42/bin/bin/../../lib/gcc/pic32mx/4.8.3/../../../../pic32mx/lib\libpic32.a(default-nmi-handler.o)
                              c:/program files (x86)/microchip/xc32/v1.42/bin/bin/../../lib/gcc/pic32mx/4.8.3/../../../../pic32mx/lib/./proc/32MX795F512L/crt0_mips32r2.o (_nmi_handler)
c:/program files (x86)/microchip/xc32/v1.42/bin/bin/../../lib/gcc/pic32mx/4.8.3/../../../../pic32mx/lib\libpic32.a(general-exception.o)
                              c:/program files (x86)/microchip/xc32/v1.42/bin/bin/../../lib/gcc/pic32mx/4.8.3/../../../../pic32mx/lib/./proc/32MX795F512L/crt0_mips32r2.o (_general_exception_context)
c:/program files (x86)/microchip/xc32/v1.42/bin/bin/../../lib/gcc/pic32mx/4.8.3/../../../../pic32mx/lib\libpic32.a(vector0.o)
                              c:/program files (x86)/microchip/xc32/v1.42/bin/bin/../../lib/gcc/pic32mx/4.8.3/../../../../pic32mx/lib/./proc/32MX795F512L\default_isr_vectors.o (__vector_dispatch_0)
c:/program files (x86)/microchip/xc32/v1.42/bin/bin/../../lib/gcc/pic32mx/4.8.3/../../../../pic32mx/lib\libpic32.a(vector1.o)
                              c:/program files (x86)/microchip/xc32/v1.42/bin/bin/../../lib/gcc/pic32mx/4.8.3/../../../../pic32mx/lib/./proc/32MX795F512L\default_isr_vectors.o (__vector_dispatch_1)
c:/program files (x86)/microchip/xc32/v1.42/bin/bin/../../lib/gcc/pic32mx/4.8.3/../../../../pic32mx/lib\libpic32.a(vector2.o)
                              c:/program files (x86)/microchip/xc32/v1.42/bin/bin/../../lib/gcc/pic32mx/4.8.3/../../../../pic32mx/lib/./proc/32MX795F512L\default_isr_vectors.o (__vector_dispatch_2)
c:/program files (x86)/microchip/xc32/v1.42/bin/bin/../../lib/gcc/pic32mx/4.8.3/../../../../pic32mx/lib\libpic32.a(vector3.o)
                              c:/program files (x86)/microchip/xc32/v1.42/bin/bin/../../lib/gcc/pic32mx/4.8.3/../../../../pic32mx/lib/./proc/32MX795F512L\default_isr_vectors.o (__vector_dispatch_3)
c:/program files (x86)/microchip/xc32/v1.42/bin/bin/../../lib/gcc/pic32mx/4.8.3/../../../../pic32mx/lib\libpic32.a(vector5.o)
                              c:/program files (x86)/microchip/xc32/v1.42/bin/bin/../../lib/gcc/pic32mx/4.8.3/../../../../pic32mx/lib/./proc/32MX795F512L\default_isr_vectors.o (__vector_dispatch_5)
c:/program files (x86)/microchip/xc32/v1.42/bin/bin/../../lib/gcc/pic32mx/4.8.3/../../../../pic32mx/lib\libpic32.a(vector6.o)
                              c:/program files (x86)/microchip/xc32/v1.42/bin/bin/../../lib/gcc/pic32mx/4.8.3/../../../../pic32mx/lib/./proc/32MX795F512L\default_isr_vectors.o (__vector_dispatch_6)
c:/program files (x86)/microchip/xc32/v1.42/bin/bin/../../lib/gcc/pic32mx/4.8.3/../../../../pic32mx/lib\libpic32.a(vector7.o)
                              c:/program files (x86)/microchip/xc32/v1.42/bin/bin/../../lib/gcc/pic32mx/4.8.3/../../../../pic32mx/lib/./proc/32MX795F512L\default_isr_vectors.o (__vector_dispatch_7)
c:/program files (x86)/microchip/xc32/v1.42/bin/bin/../../lib/gcc/pic32mx/4.8.3/../../../../pic32mx/lib\libpic32.a(vector9.o)
                              c:/program files (x86)/microchip/xc32/v1.42/bin/bin/../../lib/gcc/pic32mx/4.8.3/../../../../pic32mx/lib/./proc/32MX795F512L\default_isr_vectors.o (__vector_dispatch_9)
c:/program files (x86)/microchip/xc32/v1.42/bin/bin/../../lib/gcc/pic32mx/4.8.3/../../../../pic32mx/lib\libpic32.a(vector10.o)
                              c:/program files (x86)/microchip/xc32/v1.42/bin/bin/../../lib/gcc/pic32mx/4.8.3/../../../../pic32mx/lib/./proc/32MX795F512L\default_isr_vectors.o (__vector_dispatch_10)
c:/program files (x86)/microchip/xc32/v1.42/bin/bin/../../lib/gcc/pic32mx/4.8.3/../../../../pic32mx/lib\libpic32.a(vector11.o)
                              c:/program files (x86)/microchip/xc32/v1.42/bin/bin/../../lib/gcc/pic32mx/4.8.3/../../../../pic32mx/lib/./proc/32MX795F512L\default_isr_vectors.o (__vector_dispatch_11)
c:/program files (x86)/microchip/xc32/v1.42/bin/bin/../../lib/gcc/pic32mx/4.8.3/../../../../pic32mx/lib\libpic32.a(vector14.o)
                              c:/program files (x86)/microchip/xc32/v1.42/bin/bin/../../lib/gcc/pic32mx/4.8.3/../../../../pic32mx/lib/./proc/32MX795F512L\default_isr_vectors.o (__vector_dispatch_14)
c:/program files (x86)/microchip/xc32/v1.42/bin/bin/../../lib/gcc/pic32mx/4.8.3/../../../../pic32mx/lib\libpic32.a(vector15.o)
                              c:/program files (x86)/microchip/xc32/v1.42/bin/bin/../../lib/gcc/pic32mx/4.8.3/../../../../pic32mx/lib/./proc/32MX795F512L\default_isr_vectors.o (__vector_dispatch_15)
c:/program files (x86)/microchip/xc32/v1.42/bin/bin/../../lib/gcc/pic32mx/4.8.3/../../../../pic32mx/lib\libpic32.a(vector16.o)
                              c:/program files (x86)/microchip/xc32/v1.42/bin/bin/../../lib/gcc/pic32mx/4.8.3/../../../../pic32mx/lib/./proc/32MX795F512L\default_isr_vectors.o (__vector_dispatch_16)
c:/program files (x86)/microchip/xc32/v1.42/bin/bin/../../lib/gcc/pic32mx/4.8.3/../../../../pic32mx/lib\libpic32.a(vector17.o)
                              c:/program files (x86)/microchip/xc32/v1.42/bin/bin/../../lib/gcc/pic32mx/4.8.3/../../../../pic32mx/lib/./proc/32MX795F512L\default_isr_vectors.o (__vector_dispatch_17)
c:/program files (x86)/microchip/xc32/v1.42/bin/bin/../../lib/gcc/pic32mx/4.8.3/../../../../pic32mx/lib\libpic32.a(vector18.o)
                              c:/program files (x86)/microchip/xc32/v1.42/bin/bin/../../lib/gcc/pic32mx/4.8.3/../../../../pic32mx/lib/./proc/32MX795F512L\default_isr_vectors.o (__vector_dispatch_18)
c:/program files (x86)/microchip/xc32/v1.42/bin/bin/../../lib/gcc/pic32mx/4.8.3/../../../../pic32mx/lib\libpic32.a(vector19.o)
                              c:/program files (x86)/microchip/xc32/v1.42/bin/bin/../../lib/gcc/pic32mx/4.8.3/../../../../pic32mx/lib/./proc/32MX795F512L\default_isr_vectors.o (__vector_dispatch_19)
c:/program files (x86)/microchip/xc32/v1.42/bin/bin/../../lib/gcc/pic32mx/4.8.3/../../../../pic32mx/lib\libpic32.a(vector20.o)
                              c:/program files (x86)/microchip/xc32/v1.42/bin/bin/../../lib/gcc/pic32mx/4.8.3/../../../../pic32mx/lib/./proc/32MX795F512L\default_isr_vectors.o (__vector_dispatch_20)
c:/program files (x86)/microchip/xc32/v1.42/bin/bin/../../lib/gcc/pic32mx/4.8.3/../../../../pic32mx/lib\libpic32.a(vector22.o)
                              c:/program files (x86)/microchip/xc32/v1.42/bin/bin/../../lib/gcc/pic32mx/4.8.3/../../../../pic32mx/lib/./proc/32MX795F512L\default_isr_vectors.o (__vector_dispatch_22)
c:/program files (x86)/microchip/xc32/v1.42/bin/bin/../../lib/gcc/pic32mx/4.8.3/../../../../pic32mx/lib\libpic32.a(vector23.o)
                              c:/program files (x86)/microchip/xc32/v1.42/bin/bin/../../lib/gcc/pic32mx/4.8.3/../../../../pic32mx/lib/./proc/32MX795F512L\default_isr_vectors.o (__vector_dispatch_23)
c:/program files (x86)/microchip/xc32/v1.42/bin/bin/../../lib/gcc/pic32mx/4.8.3/../../../../pic32mx/lib\libpic32.a(vector24.o)
                              c:/program files (x86)/microchip/xc32/v1.42/bin/bin/../../lib/gcc/pic32mx/4.8.3/../../../../pic32mx/lib/./proc/32MX795F512L\default_isr_vectors.o (__vector_dispatch_24)
c:/program files (x86)/microchip/xc32/v1.42/bin/bin/../../lib/gcc/pic32mx/4.8.3/../../../../pic32mx/lib\libpic32.a(vector25.o)
                              c:/program files (x86)/microchip/xc32/v1.42/bin/bin/../../lib/gcc/pic32mx/4.8.3/../../../../pic32mx/lib/./proc/32MX795F512L\default_isr_vectors.o (__vector_dispatch_25)
c:/program files (x86)/microchip/xc32/v1.42/bin/bin/../../lib/gcc/pic32mx/4.8.3/../../../../pic32mx/lib\libpic32.a(vector26.o)
                              c:/program files (x86)/microchip/xc32/v1.42/bin/bin/../../lib/gcc/pic32mx/4.8.3/../../../../pic32mx/lib/./proc/32MX795F512L\default_isr_vectors.o (__vector_dispatch_26)
c:/program files (x86)/microchip/xc32/v1.42/bin/bin/../../lib/gcc/pic32mx/4.8.3/../../../../pic32mx/lib\libpic32.a(vector27.o)
                              c:/program files (x86)/microchip/xc32/v1.42/bin/bin/../../lib/gcc/pic32mx/4.8.3/../../../../pic32mx/lib/./proc/32MX795F512L\default_isr_vectors.o (__vector_dispatch_27)
c:/program files (x86)/microchip/xc32/v1.42/bin/bin/../../lib/gcc/pic32mx/4.8.3/../../../../pic32mx/lib\libpic32.a(vector28.o)
                              c:/program files (x86)/microchip/xc32/v1.42/bin/bin/../../lib/gcc/pic32mx/4.8.3/../../../../pic32mx/lib/./proc/32MX795F512L\default_isr_vectors.o (__vector_dispatch_28)
c:/program files (x86)/microchip/xc32/v1.42/bin/bin/../../lib/gcc/pic32mx/4.8.3/../../../../pic32mx/lib\libpic32.a(vector29.o)
                              c:/program files (x86)/microchip/xc32/v1.42/bin/bin/../../lib/gcc/pic32mx/4.8.3/../../../../pic32mx/lib/./proc/32MX795F512L\default_isr_vectors.o (__vector_dispatch_29)
c:/program files (x86)/microchip/xc32/v1.42/bin/bin/../../lib/gcc/pic32mx/4.8.3/../../../../pic32mx/lib\libpic32.a(vector30.o)
                              c:/program files (x86)/microchip/xc32/v1.42/bin/bin/../../lib/gcc/pic32mx/4.8.3/../../../../pic32mx/lib/./proc/32MX795F512L\default_isr_vectors.o (__vector_dispatch_30)
c:/program files (x86)/microchip/xc32/v1.42/bin/bin/../../lib/gcc/pic32mx/4.8.3/../../../../pic32mx/lib\libpic32.a(vector31.o)
                              c:/program files (x86)/microchip/xc32/v1.42/bin/bin/../../lib/gcc/pic32mx/4.8.3/../../../../pic32mx/lib/./proc/32MX795F512L\default_isr_vectors.o (__vector_dispatch_31)
c:/program files (x86)/microchip/xc32/v1.42/bin/bin/../../lib/gcc/pic32mx/4.8.3/../../../../pic32mx/lib\libpic32.a(vector32.o)
                              c:/program files (x86)/microchip/xc32/v1.42/bin/bin/../../lib/gcc/pic32mx/4.8.3/../../../../pic32mx/lib/./proc/32MX795F512L\default_isr_vectors.o (__vector_dispatch_32)
c:/program files (x86)/microchip/xc32/v1.42/bin/bin/../../lib/gcc/pic32mx/4.8.3/../../../../pic32mx/lib\libpic32.a(vector34.o)
                              c:/program files (x86)/microchip/xc32/v1.42/bin/bin/../../lib/gcc/pic32mx/4.8.3/../../../../pic32mx/lib/./proc/32MX795F512L\default_isr_vectors.o (__vector_dispatch_34)
c:/program files (x86)/microchip/xc32/v1.42/bin/bin/../../lib/gcc/pic32mx/4.8.3/../../../../pic32mx/lib\libpic32.a(vector35.o)
                              c:/program files (x86)/microchip/xc32/v1.42/bin/bin/../../lib/gcc/pic32mx/4.8.3/../../../../pic32mx/lib/./proc/32MX795F512L\default_isr_vectors.o (__vector_dispatch_35)
c:/program files (x86)/microchip/xc32/v1.42/bin/bin/../../lib/gcc/pic32mx/4.8.3/../../../../pic32mx/lib\libpic32.a(vector36.o)
                              c:/program files (x86)/microchip/xc32/v1.42/bin/bin/../../lib/gcc/pic32mx/4.8.3/../../../../pic32mx/lib/./proc/32MX795F512L\default_isr_vectors.o (__vector_dispatch_36)
c:/program files (x86)/microchip/xc32/v1.42/bin/bin/../../lib/gcc/pic32mx/4.8.3/../../../../pic32mx/lib\libpic32.a(vector37.o)
                              c:/program files (x86)/microchip/xc32/v1.42/bin/bin/../../lib/gcc/pic32mx/4.8.3/../../../../pic32mx/lib/./proc/32MX795F512L\default_isr_vectors.o (__vector_dispatch_37)
c:/program files (x86)/microchip/xc32/v1.42/bin/bin/../../lib/gcc/pic32mx/4.8.3/../../../../pic32mx/lib\libpic32.a(vector38.o)
                              c:/program files (x86)/microchip/xc32/v1.42/bin/bin/../../lib/gcc/pic32mx/4.8.3/../../../../pic32mx/lib/./proc/32MX795F512L\default_isr_vectors.o (__vector_dispatch_38)
c:/program files (x86)/microchip/xc32/v1.42/bin/bin/../../lib/gcc/pic32mx/4.8.3/../../../../pic32mx/lib\libpic32.a(vector39.o)
                              c:/program files (x86)/microchip/xc32/v1.42/bin/bin/../../lib/gcc/pic32mx/4.8.3/../../../../pic32mx/lib/./proc/32MX795F512L\default_isr_vectors.o (__vector_dispatch_39)
c:/program files (x86)/microchip/xc32/v1.42/bin/bin/../../lib/gcc/pic32mx/4.8.3/../../../../pic32mx/lib\libpic32.a(vector40.o)
                              c:/program files (x86)/microchip/xc32/v1.42/bin/bin/../../lib/gcc/pic32mx/4.8.3/../../../../pic32mx/lib/./proc/32MX795F512L\default_isr_vectors.o (__vector_dispatch_40)
c:/program files (x86)/microchip/xc32/v1.42/bin/bin/../../lib/gcc/pic32mx/4.8.3/../../../../pic32mx/lib\libpic32.a(vector41.o)
                              c:/program files (x86)/microchip/xc32/v1.42/bin/bin/../../lib/gcc/pic32mx/4.8.3/../../../../pic32mx/lib/./proc/32MX795F512L\default_isr_vectors.o (__vector_dispatch_41)
c:/program files (x86)/microchip/xc32/v1.42/bin/bin/../../lib/gcc/pic32mx/4.8.3/../../../../pic32mx/lib\libpic32.a(vector42.o)
                              c:/program files (x86)/microchip/xc32/v1.42/bin/bin/../../lib/gcc/pic32mx/4.8.3/../../../../pic32mx/lib/./proc/32MX795F512L\default_isr_vectors.o (__vector_dispatch_42)
c:/program files (x86)/microchip/xc32/v1.42/bin/bin/../../lib/gcc/pic32mx/4.8.3/../../../../pic32mx/lib\libpic32.a(vector43.o)
                              c:/program files (x86)/microchip/xc32/v1.42/bin/bin/../../lib/gcc/pic32mx/4.8.3/../../../../pic32mx/lib/./proc/32MX795F512L\default_isr_vectors.o (__vector_dispatch_43)
c:/program files (x86)/microchip/xc32/v1.42/bin/bin/../../lib/gcc/pic32mx/4.8.3/../../../../pic32mx/lib\libpic32.a(vector44.o)
                              c:/program files (x86)/microchip/xc32/v1.42/bin/bin/../../lib/gcc/pic32mx/4.8.3/../../../../pic32mx/lib/./proc/32MX795F512L\default_isr_vectors.o (__vector_dispatch_44)
c:/program files (x86)/microchip/xc32/v1.42/bin/bin/../../lib/gcc/pic32mx/4.8.3/../../../../pic32mx/lib\libpic32.a(vector45.o)
                              c:/program files (x86)/microchip/xc32/v1.42/bin/bin/../../lib/gcc/pic32mx/4.8.3/../../../../pic32mx/lib/./proc/32MX795F512L\default_isr_vectors.o (__vector_dispatch_45)
c:/program files (x86)/microchip/xc32/v1.42/bin/bin/../../lib/gcc/pic32mx/4.8.3/../../../../pic32mx/lib\libpic32.a(vector46.o)
                              c:/program files (x86)/microchip/xc32/v1.42/bin/bin/../../lib/gcc/pic32mx/4.8.3/../../../../pic32mx/lib/./proc/32MX795F512L\default_isr_vectors.o (__vector_dispatch_46)
c:/program files (x86)/microchip/xc32/v1.42/bin/bin/../../lib/gcc/pic32mx/4.8.3/../../../../pic32mx/lib\libpic32.a(vector47.o)
                              c:/program files (x86)/microchip/xc32/v1.42/bin/bin/../../lib/gcc/pic32mx/4.8.3/../../../../pic32mx/lib/./proc/32MX795F512L\default_isr_vectors.o (__vector_dispatch_47)
c:/program files (x86)/microchip/xc32/v1.42/bin/bin/../../lib/gcc/pic32mx/4.8.3/../../../../pic32mx/lib\libpic32.a(vector49.o)
                              c:/program files (x86)/microchip/xc32/v1.42/bin/bin/../../lib/gcc/pic32mx/4.8.3/../../../../pic32mx/lib/./proc/32MX795F512L\default_isr_vectors.o (__vector_dispatch_49)
c:/program files (x86)/microchip/xc32/v1.42/bin/bin/../../lib/gcc/pic32mx/4.8.3/../../../../pic32mx/lib\libpic32.a(vector50.o)
                              c:/program files (x86)/microchip/xc32/v1.42/bin/bin/../../lib/gcc/pic32mx/4.8.3/../../../../pic32mx/lib/./proc/32MX795F512L\default_isr_vectors.o (__vector_dispatch_50)
c:/program files (x86)/microchip/xc32/v1.42/bin/bin/../../lib/gcc/pic32mx/4.8.3/../../../../pic32mx/lib\libpic32.a(vector51.o)
                              c:/program files (x86)/microchip/xc32/v1.42/bin/bin/../../lib/gcc/pic32mx/4.8.3/../../../../pic32mx/lib/./proc/32MX795F512L\default_isr_vectors.o (__vector_dispatch_51)
c:/program files (x86)/microchip/xc32/v1.42/bin/bin/../../lib/gcc/pic32mx/4.8.3/../../../../pic32mx/lib\libpic32.a(defaultinterrupt.o)
                              c:/program files (x86)/microchip/xc32/v1.42/bin/bin/../../lib/gcc/pic32mx/4.8.3/../../../../pic32mx/lib\libpic32.a(vector0.o) (_DefaultInterrupt)
c:/program files (x86)/microchip/xc32/v1.42/bin/bin/../../lib/gcc/pic32mx/4.8.3/../../../../pic32mx/lib\libm.a(fp32div.o)
                              build/Diplomamunka/production/_ext/1360937237/fan.o (fpdiv)
c:/program files (x86)/microchip/xc32/v1.42/bin/bin/../../lib/gcc/pic32mx/4.8.3/../../../../pic32mx/lib\libm.a(fp32mul.o)
                              build/Diplomamunka/production/_ext/1360937237/fan.o (fpmul)
c:/program files (x86)/microchip/xc32/v1.42/bin/bin/../../lib/gcc/pic32mx/4.8.3/../../../../pic32mx/lib\libm.a(fp32subadd.o)
                              c:/program files (x86)/microchip/xc32/v1.42/bin/bin/../../lib/gcc/pic32mx/4.8.3\libgcc.a(floatunsisf.o) (fpadd)
c:/program files (x86)/microchip/xc32/v1.42/bin/bin/../../lib/gcc/pic32mx/4.8.3/../../../../pic32mx/lib\libm.a(fptoul.o)
                              build/Diplomamunka/production/_ext/1360937237/fan.o (fptoui)
c:/program files (x86)/microchip/xc32/v1.42/bin/bin/../../lib/gcc/pic32mx/4.8.3/../../../../pic32mx/lib\libm.a(sitofp.o)
                              build/Diplomamunka/production/_ext/1360937237/fan.o (sitofp)
c:/program files (x86)/microchip/xc32/v1.42/bin/bin/../../lib/gcc/pic32mx/4.8.3/../../../../pic32mx/lib\libc.a(calloc.o)
                              build/Diplomamunka/production/_ext/1720293489/system_init.o (calloc)
c:/program files (x86)/microchip/xc32/v1.42/bin/bin/../../lib/gcc/pic32mx/4.8.3/../../../../pic32mx/lib\libc.a(ctime.o)
                              build/Diplomamunka/production/_ext/1886890887/asn.o (gmtime)
c:/program files (x86)/microchip/xc32/v1.42/bin/bin/../../lib/gcc/pic32mx/4.8.3/../../../../pic32mx/lib\libc.a(ctype.o)
                              build/Diplomamunka/production/_ext/1408260596/dhcp.o (_ctype)
c:/program files (x86)/microchip/xc32/v1.42/bin/bin/../../lib/gcc/pic32mx/4.8.3/../../../../pic32mx/lib\libc.a(ctypef.o)
                              build/Diplomamunka/production/_ext/1886890887/asn.o (tolower)
c:/program files (x86)/microchip/xc32/v1.42/bin/bin/../../lib/gcc/pic32mx/4.8.3/../../../../pic32mx/lib\libc.a(malloc.o)
                              build/Diplomamunka/production/_ext/1720293489/system_init.o (malloc)
c:/program files (x86)/microchip/xc32/v1.42/bin/bin/../../lib/gcc/pic32mx/4.8.3/../../../../pic32mx/lib\libc.a(memmove.o)
                              build/Diplomamunka/production/_ext/1886890887/asn.o (memmove)
c:/program files (x86)/microchip/xc32/v1.42/bin/bin/../../lib/gcc/pic32mx/4.8.3/../../../../pic32mx/lib\libc.a(rand.o)
                              build/Diplomamunka/production/_ext/1886890887/random.o (srand)
c:/program files (x86)/microchip/xc32/v1.42/bin/bin/../../lib/gcc/pic32mx/4.8.3/../../../../pic32mx/lib\libc.a(strcat.o)
                              build/Diplomamunka/production/_ext/1360937237/app.o (strcat)
c:/program files (x86)/microchip/xc32/v1.42/bin/bin/../../lib/gcc/pic32mx/4.8.3/../../../../pic32mx/lib\libc.a(strncpy.o)
                              build/Diplomamunka/production/_ext/1886890887/error.o (strncpy)
c:/program files (x86)/microchip/xc32/v1.42/bin/bin/../../lib/gcc/pic32mx/4.8.3/../../../../pic32mx/lib\libc.a(strstr.o)
                              build/Diplomamunka/production/_ext/1360937237/app.o (strstr)
c:/program files (x86)/microchip/xc32/v1.42/bin/bin/../../lib/gcc/pic32mx/4.8.3/../../../../pic32mx/lib\libc.a(strtol.o)
                              build/Diplomamunka/production/_ext/1360937237/app.o (strtol)
c:/program files (x86)/microchip/xc32/v1.42/bin/bin/../../lib/gcc/pic32mx/4.8.3/../../../../pic32mx/lib\libc.a(time.o)
                              build/Diplomamunka/production/_ext/1886890887/asn.o (time)
c:/program files (x86)/microchip/xc32/v1.42/bin/bin/../../lib/gcc/pic32mx/4.8.3/../../../../pic32mx/lib\libc.a(sprintf_cdnopuxX.eo)
                              build/Diplomamunka/production/_ext/1360937237/app.o (_sprintf_cdnopuxX)
c:/program files (x86)/microchip/xc32/v1.42/bin/bin/../../lib/gcc/pic32mx/4.8.3/../../../../pic32mx/lib\libc.a(errno.o)
                              c:/program files (x86)/microchip/xc32/v1.42/bin/bin/../../lib/gcc/pic32mx/4.8.3/../../../../pic32mx/lib\libc.a(strtol.o) (errno)
c:/program files (x86)/microchip/xc32/v1.42/bin/bin/../../lib/gcc/pic32mx/4.8.3/../../../../pic32mx/lib\libc.a(strchr.o)
                              c:/program files (x86)/microchip/xc32/v1.42/bin/bin/../../lib/gcc/pic32mx/4.8.3/../../../../pic32mx/lib\libc.a(strstr.o) (strchr)
c:/program files (x86)/microchip/xc32/v1.42/bin/bin/../../lib/gcc/pic32mx/4.8.3/../../../../pic32mx/lib\libc.a(strncmp.o)
                              c:/program files (x86)/microchip/xc32/v1.42/bin/bin/../../lib/gcc/pic32mx/4.8.3/../../../../pic32mx/lib\libc.a(strstr.o) (strncmp)
c:/program files (x86)/microchip/xc32/v1.42/bin/bin/../../lib/gcc/pic32mx/4.8.3/../../../../pic32mx/lib\libc.a(doprnt_cdnopuxX.eo)
                              c:/program files (x86)/microchip/xc32/v1.42/bin/bin/../../lib/gcc/pic32mx/4.8.3/../../../../pic32mx/lib\libc.a(sprintf_cdnopuxX.eo) (_vfprintf_cdnopuxX)
c:/program files (x86)/microchip/xc32/v1.42/bin/bin/../../lib/gcc/pic32mx/4.8.3/../../../../pic32mx/lib\libc.a(_fputc_simple.o)
                              c:/program files (x86)/microchip/xc32/v1.42/bin/bin/../../lib/gcc/pic32mx/4.8.3/../../../../pic32mx/lib\libc.a(doprnt_cdnopuxX.eo) (fputc)
c:/program files (x86)/microchip/xc32/v1.42/bin/bin/../../lib/gcc/pic32mx/4.8.3/../../../../pic32mx/lib\libc.a(_iob.o)
                              c:/program files (x86)/microchip/xc32/v1.42/bin/bin/../../lib/gcc/pic32mx/4.8.3/../../../../pic32mx/lib\libc.a(_fputc_simple.o) (_outdone)
c:/program files (x86)/microchip/xc32/v1.42/bin/bin/../../lib/gcc/pic32mx/4.8.3/../../../../pic32mx/lib\libc.a(_flsbuf_simple.o)
                              c:/program files (x86)/microchip/xc32/v1.42/bin/bin/../../lib/gcc/pic32mx/4.8.3/../../../../pic32mx/lib\libc.a(_fputc_simple.o) (_flsbuf)
c:/program files (x86)/microchip/xc32/v1.42/bin/bin/../../lib/gcc/pic32mx/4.8.3/../../../../pic32mx/lib\libpic32.a(sbrk.o)
                              c:/program files (x86)/microchip/xc32/v1.42/bin/bin/../../lib/gcc/pic32mx/4.8.3/../../../../pic32mx/lib\libc.a(malloc.o) (sbrk)
c:/program files (x86)/microchip/xc32/v1.42/bin/bin/../../lib/gcc/pic32mx/4.8.3/../../../../pic32mx/lib\libpic32.a(write.o)
                              c:/program files (x86)/microchip/xc32/v1.42/bin/bin/../../lib/gcc/pic32mx/4.8.3/../../../../pic32mx/lib\libc.a(_fputc_simple.o) (write)
c:/program files (x86)/microchip/xc32/v1.42/bin/bin/../../lib/gcc/pic32mx/4.8.3/../../../../pic32mx/lib\libpic32.a(_mon_putc.o)
                              c:/program files (x86)/microchip/xc32/v1.42/bin/bin/../../lib/gcc/pic32mx/4.8.3/../../../../pic32mx/lib\libpic32.a(write.o) (_mon_putc)
c:/program files (x86)/microchip/xc32/v1.42/bin/bin/../../lib/gcc/pic32mx/4.8.3/../../../../pic32mx/lib\libpic32.a(xc32_uart.o)
                              c:/program files (x86)/microchip/xc32/v1.42/bin/bin/../../lib/gcc/pic32mx/4.8.3/../../../../pic32mx/lib\libpic32.a(_mon_putc.o) (__XC_UART)
c:/program files (x86)/microchip/xc32/v1.42/bin/bin/../../lib/gcc/pic32mx/4.8.3\libgcc.a(_umoddi3.o)
                              c:/program files (x86)/microchip/xc32/v1.42/bin/bin/../../lib/gcc/pic32mx/4.8.3/../../../../pic32mx/lib\libc.a(doprnt_cdnopuxX.eo) (__umoddi3)

Allocating common symbols
Common symbol       size              file

gDrvETHPHYClientObj
                    0x34              build/Diplomamunka/production/_ext/732687875/drv_ethphy.o
ICTimerHandleT3     0x4               build/Diplomamunka/production/_ext/1360937237/fan.o
currentParam        0x2a              build/Diplomamunka/production/_ext/1892475994/sys_clk_static.o
pwmTimerHandleT2    0x4               build/Diplomamunka/production/_ext/1360937237/fan.o
lBufferObj0         0x4               build/Diplomamunka/production/_ext/1774832663/drv_i2c_static_buffer_model.o
appData             0x4               build/Diplomamunka/production/_ext/1360937237/app.o
icWatchCounter      0x5               build/Diplomamunka/production/_ext/1892475994/sys_clk_static.o
speedMeasParam      0x6               build/Diplomamunka/production/_ext/1892475994/sys_clk_static.o
sysObj              0x18              build/Diplomamunka/production/_ext/1720293489/system_init.o
i2c0Obj             0x2c              build/Diplomamunka/production/_ext/1774832663/drv_i2c_static_buffer_model.o
OBuffer             0xbe              build/Diplomamunka/production/_ext/1892475994/sys_clk_static.o
i2c0State           0x4               build/Diplomamunka/production/_ext/1774832663/drv_i2c_static_buffer_model.o
sysDevconObj        0x8               build/Diplomamunka/production/_ext/1271179505/sys_devcon.o
sysRandCtx          0x108             build/Diplomamunka/production/_ext/1283840359/sys_random.o
gDrvETHPHYObj       0x28              build/Diplomamunka/production/_ext/732687875/drv_ethphy.o
i2c0ClientObj       0x8               build/Diplomamunka/production/_ext/1774832663/drv_i2c_static_buffer_model.o
currentReceivedOnTcpParam
                    0x2a              build/Diplomamunka/production/_ext/1892475994/sys_clk_static.o

Microchip PIC32 Memory-Usage Report

kseg0 Program-Memory Usage
section                    address  length [bytes]      (dec)  Description
-------                 ----------  -------------------------  -----------
.text.TCPIP_TCP_Task    0x9d000000         0x14bc        5308   
.text._vfprintf_cdnopux 0x9d0014bc          0xad4        2772   
.text.TCPIP_DHCP_Task   0x9d001f90          0x874        2164   
.text.TCPIP_STACK_Task  0x9d002804          0x85c        2140   
.text._TcpSend          0x9d003060          0x824        2084   
.text.DRV_I2C0_Tasks    0x9d003884          0x7d4        2004   
.text.TCPIP_TCP_FifoSiz 0x9d004058          0x4cc        1228   
.text.DRV_ETHMAC_PIC32M 0x9d004524          0x4b8        1208   
.text.TCPIP_ARP_Task    0x9d0049dc          0x468        1128   
.text                   0x9d004e44          0x8bc        2236  App's exec code 
.text.TCPIP_ANNOUNCE_Ta 0x9d005700          0x3e0         992   
.rodata                 0x9d005ae0          0x3d8         984  Read-only const 
.text.TCP_Server        0x9d005eb8          0x3d4         980   
.text._DNS_Send_Query   0x9d00628c          0x3c0         960   
.dinit                  0x9d00664c          0x3b0         944   
.text.TCPIP_TCP_ArrayFi 0x9d0069fc          0x3a0         928   
.text.parseTcpMessage   0x9d006d9c          0x39c         924   
.text.TCPIP_DNS_ClientI 0x9d007138          0x37c         892   
.text.TCPIP_ARP_Initial 0x9d0074b4          0x36c         876   
.text._TCP_Open         0x9d007820          0x364         868   
.text.SYS_TMR_Tasks     0x9d007b84          0x304         772   
.text.TCPIP_UDP_Task    0x9d007e88          0x304         772   
.text.ledBrightnessCont 0x9d00818c          0x300         768   
.text.TCPIP_STACK_Bring 0x9d00848c          0x2f8         760   
.text._DHCPSend         0x9d008784          0x2ec         748   
.text.TCPIP_IPV4_Packet 0x9d008a70          0x2e4         740   
.text.TCPIP_STACK_Initi 0x9d008d54          0x2d8         728   
.text._DNS_ProcessPacke 0x9d00902c          0x2d0         720   
.text.TCPIP_UDP_Flush   0x9d0092fc          0x2a8         680   
.text.TCPIP_TCP_ArrayPu 0x9d0095a4          0x2a0         672   
.text.malloc            0x9d009844          0x288         648   
.text.fpsubadd          0x9d009acc          0x278         632   
.text                   0x9d009d44          0x25c         604  App's exec code 
.text._DHCPReceive      0x9d009fa0          0x254         596   
.text.createNewTcpMessa 0x9d00a1f4          0x244         580   
.text.DRV_ETHMAC_PIC32M 0x9d00a438          0x244         580   
.text._DHCPOptionHostNa 0x9d00a67c          0x244         580   
.text.DRV_ETHMAC_LibRxB 0x9d00a8c0          0x240         576   
.text.TCPIP_ICMP_Task   0x9d00ab00          0x240         576   
.text.TCPIP_IPV4_Task   0x9d00ad40          0x23c         572   
.text._DRV_TMR_ClockSou 0x9d00af7c          0x230         560   
.text.fp32div           0x9d00b1ac          0x230         560   
.text._UDPOpen          0x9d00b3dc          0x224         548   
.text.measureRevSpeed   0x9d00b600          0x218         536   
.text.DRV_TMR_Initializ 0x9d00b818          0x210         528   
.text._TCPIP_HEAP_Free  0x9d00ba28          0x210         528   
.text._DRV_PHY_SMITrans 0x9d00bc38          0x1f8         504   
.text._DRV_ETHPHY_Setup 0x9d00be30          0x1f4         500   
.text.DRV_TMR_AlarmRegi 0x9d00c024          0x1e8         488   
.text._LoadNetworkConfi 0x9d00c20c          0x1e8         488   
.text.APP_Tasks         0x9d00c3f4          0x1e4         484   
.text.TCPIP_UDP_Bind    0x9d00c5d8          0x1e0         480   
.text._DNS_RESPONSE_Has 0x9d00c7b8          0x1d8         472   
.text.DRV_ETHMAC_PIC32M 0x9d00c990          0x1d4         468   
.text.strtoul           0x9d00cb64          0x1d4         468   
.text.TCPIP_Helper_Stri 0x9d00cd38          0x1cc         460   
.text.TCPIP_ARP_EntryRe 0x9d00cf04          0x1c8         456   
.rodata                 0x9d00d0cc          0x1c0         448  Read-only const 
.text._EthAckPacket     0x9d00d28c          0x1bc         444   
.text.fp32mul           0x9d00d448          0x1bc         444   
.text.SYS_Initialize    0x9d00d604          0x1b4         436   
.text.TCPIP_DNS_ClientT 0x9d00d7b8          0x1b4         436   
.text.TCPIP_UDP_ArrayGe 0x9d00d96c          0x1b0         432   
.text.TCPIP_UDP_Options 0x9d00db1c          0x1b0         432   
.text.TCPIP_HEAP_Create 0x9d00dccc          0x1b0         432   
.text._DRV_ETHMAC_AddRx 0x9d00de7c          0x1a8         424   
.text.setDutyCycle      0x9d00e024          0x1a4         420   
.text.DRV_TMR_CounterFr 0x9d00e1c8          0x1a4         420   
.text.DRV_ETHMAC_LibRxG 0x9d00e36c          0x19c         412   
.text.TCPIP_TCP_Options 0x9d00e508          0x19c         412   
.text.strtol            0x9d00e6a4          0x19c         412   
.text.DRV_ETHMAC_LibMAC 0x9d00e840          0x198         408   
.text._ARPProbeAddress  0x9d00e9d8          0x198         408   
.text._DRV_TMR_ClockPre 0x9d00eb70          0x194         404   
.text._sbrk_init        0x9d00ed04          0x194         404   
.text.TCPIP_TCP_ArrayGe 0x9d00ee98          0x190         400   
.text.DRV_EXTPHY_MDIXCo 0x9d00f028          0x18c         396   
.text.TCPIP_DHCP_Initia 0x9d00f1b4          0x18c         396   
.text.DRV_ETHMAC_LibIni 0x9d00f340          0x188         392   
.text.DRV_ETHMAC_LibRxA 0x9d00f4c8          0x188         392   
.text.TCPIP_UDP_Deiniti 0x9d00f650          0x184         388   
.text._DRV_ETHPHY_NegRe 0x9d00f7d4          0x180         384   
.text.DRV_ETHMAC_PIC32M 0x9d00f954          0x17c         380   
.text._SYS_TMR_ClientCr 0x9d00fad0          0x178         376   
.text.DRV_EXTPHY_MIICon 0x9d00fc48          0x170         368   
.text._TCPIP_HEAP_Mallo 0x9d00fdb8          0x170         368   
.text._EthAppendBusyLis 0x9d00ff28          0x168         360   
.text                   0x9d010090          0x2d0         720  App's exec code 
.text.TCPIP_IPV4_Select 0x9d010360          0x164         356   
.text._DRV_ETHPHY_Setup 0x9d0104c4          0x15c         348   
.text._ARPSendIfPkt     0x9d010620          0x15c         348   
.text._DHCPProcessRecei 0x9d01077c          0x15c         348   
.text._MACDeinit        0x9d0108d8          0x158         344   
.text.DRV_ETHMAC_LibTxS 0x9d010a30          0x158         344   
.text._TcpDisconnect    0x9d010b88          0x14c         332   
.text._TcpCloseSocket   0x9d010cd4          0x148         328   
.text.TCPIP_UDP_Options 0x9d010e1c          0x148         328   
.text.TCPIP_UDP_OpenSer 0x9d010f64          0x144         324   
.text.fputc             0x9d0110a8          0x144         324   
.text._IntHandlerDrvICI 0x9d0111ec          0x140         320   
.text._IntHandlerDrvICI 0x9d01132c          0x140         320   
.text._DRV_ETHPHY_Setup 0x9d01146c          0x13c         316   
.text.IntHandlerDrvTmrI 0x9d0115a8          0x134         308   
.text.IntHandlerDrvTmrI 0x9d0116dc          0x134         308   
.text.DRV_ETHMAC_PIC32M 0x9d011810          0x134         308   
.text.DRV_TMR_CounterVa 0x9d011944          0x134         308   
.text.TCPIP_Helper_Stri 0x9d011a78          0x134         308   
.text._IntHandlerDrvI2C 0x9d011bac          0x130         304   
.text._IntHandler_ETHMA 0x9d011cdc          0x130         304   
.text.initialiseTachome 0x9d011e0c          0x130         304   
.rodata                 0x9d011f3c          0x130         304  Read-only const 
.text._ARPDeleteResourc 0x9d01206c          0x130         304   
.text.DRV_ETHMAC_LibDes 0x9d01219c          0x12c         300   
.text._flsbuf           0x9d0122c8          0x12c         300   
.rodata                 0x9d0123f4          0x128         296  Read-only const 
.text.TCPIP_ANNOUNCE_In 0x9d01251c          0x128         296   
.text.TCPIP_IPV4_ArpHan 0x9d012644          0x128         296   
.text._Tcpv4TxAckFnc    0x9d01276c          0x124         292   
.text._OAHashFindBkt    0x9d012890          0x124         292   
.text.IntHandlerDrvTmrI 0x9d0129b4          0x120         288   
.text.DRV_ETHMAC_Tasks_ 0x9d012ad4          0x120         288   
.text.TCPIP_Helper_Pack 0x9d012bf4          0x120         288   
.text                   0x9d012d14          0x120         288  App's exec code 
.text.getCurrentPwmPara 0x9d012e34          0x11c         284   
.text.DRV_ETHMAC_PIC32M 0x9d012f50          0x11c         284   
.text._GetMaxSegSizeOpt 0x9d01306c          0x11c         284   
.text.TCPIP_UDP_Initial 0x9d013188          0x11c         284   
.text.TCPIP_ARP_IsResol 0x9d0132a4          0x11c         284   
.text._MacRxPacketAck   0x9d0133c0          0x118         280   
.text._DRV_ETHPHY_Setup 0x9d0134d8          0x118         280   
.text._DRV_TMR_Resume   0x9d0135f0          0x118         280   
.text._DHCPSetLeaseTime 0x9d013708          0x118         280   
.text.TCPIP_Helper_Pack 0x9d013820          0x118         280   
.text.DRV_ETHMAC_PIC32M 0x9d013938          0x114         276   
.text.DRV_I2C0_Transmit 0x9d013a4c          0x110         272   
.text.interruptT2       0x9d013b5c          0x110         272   
.text.DRV_ETHMAC_LibClo 0x9d013c6c          0x110         272   
.text.PLIB_ETH_MACSetAd 0x9d013d7c          0x10c         268   
.text.TCPIP_TCP_Initial 0x9d013e88          0x108         264   
.text._UDPv4AllocateSkt 0x9d013f90          0x108         264   
.text._DNS_ValidateIf   0x9d014098          0x104         260   
.rodata                 0x9d01419c          0x104         260  Read-only const 
.text._TcpSocketSetIdle 0x9d0142a0           0xfc         252   
.text.TCPIP_TCP_ServerO 0x9d01439c           0xfc         252   
.text._UDPv4TxAckFnc    0x9d014498           0xfc         252   
.text._DRV_TMR_Suspend  0x9d014594           0xf8         248   
.text._DHCPClose        0x9d01468c           0xf8         248   
.text.initialiseOCs     0x9d014784           0xf4         244   
.text._DRV_ETHPHY_NegCo 0x9d014878           0xf4         244   
.text._DHCPOpenSocket   0x9d01496c           0xf4         244   
.text.TCPIP_DHCP_Connec 0x9d014a60           0xf4         244   
.text._DRV_ETHPHY_Reset 0x9d014b54           0xf0         240   
.text.DRV_I2C0_Initiali 0x9d014c44           0xec         236   
.text._DRV_ETHPHY_Setup 0x9d014d30           0xec         236   
.text.SYS_TMR_SystemCou 0x9d014e1c           0xec         236   
.text._TCPIP_StackSyncF 0x9d014f08           0xec         236   
.text.DRV_ETHMAC_PIC32M 0x9d014ff4           0xe8         232   
.text._SYS_TMR_ClientPa 0x9d0150dc           0xe8         232   
.text._DHCPPacketFilter 0x9d0151c4           0xe8         232   
.text.TCPIP_IPV4_DeInit 0x9d0152ac           0xe8         232   
.rodata                 0x9d015394           0xe0         224  Read-only const 
.text.DRV_ETHPHY_Setup  0x9d015474           0xe0         224   
.text._DHCPEnable       0x9d015554           0xe0         224   
.text.TCPIP_OAHASH_Entr 0x9d015634           0xe0         224   
.text.TCPIP_STACK_Bring 0x9d015714           0xe0         224   
.text._TCPIP_PKT_Packet 0x9d0157f4           0xe0         224   
.text.DRV_ETHPHY_SMIClo 0x9d0158d4           0xdc         220   
.text.SYS_DEVCON_Perfor 0x9d0159b0           0xdc         220   
.text.TCPIP_STACK_KillS 0x9d015a8c           0xdc         220   
.text.general_exception 0x9d015b68           0xdc         220   
.text._ARPUpdateEntry   0x9d015c44           0xd8         216   
.text._DRV_ETHPHY_NegRe 0x9d015d1c           0xd4         212   
.text._mon_putc         0x9d015df0           0xd4         212   
.text._MacTxPendingPack 0x9d015ec4           0xd0         208   
.text.SYS_TMR_Initializ 0x9d015f94           0xd0         208   
.rodata                 0x9d016068           0xd0         208  Read-only const 
.text._DRV_ETHMAC_LinkS 0x9d016138           0xcc         204   
.text.DRV_TMR_Tasks     0x9d016204           0xcc         204   
.text.TCPIP_UDP_RemoteB 0x9d0162d0           0xcc         204   
.text.TCPIP_ARP_EntryRe 0x9d01639c           0xcc         204   
.text._UDPsetPacketInfo 0x9d016468           0xc8         200   
.text.TCPIP_OAHASH_Entr 0x9d016530           0xc8         200   
.text._sbrk             0x9d0165f8           0xc8         200   
.text._DHCPOptionWriteS 0x9d0166c0           0xc4         196   
.text._TCPIPStackModule 0x9d016784           0xc4         196   
.text.interruptIC5      0x9d016848           0xc0         192   
.text.TCPIP_UDP_ArrayPu 0x9d016908           0xc0         192   
.text._DHCPOptionProces 0x9d0169c8           0xc0         192   
.text._DHCPOptionWriteI 0x9d016a88           0xbc         188   
.text.TCPIP_PKT_DataSeg 0x9d016b44           0xbc         188   
.text._EthTxSchedList   0x9d016c00           0xb8         184   
.text.TCPIP_UDP_BcastIP 0x9d016cb8           0xb8         184   
.text.TCPIP_DNS_OAHASH_ 0x9d016d70           0xb8         184   
.text.DRV_ETHMAC_PIC32M 0x9d016e28           0xb4         180   
.text._EthTxSchedBuffer 0x9d016edc           0xb4         180   
.text._ARPNotifyClients 0x9d016f90           0xb4         180   
.text._DNS_DeleteHash   0x9d017044           0xb4         180   
.text._DRV_I2C_QueueSlo 0x9d0170f8           0xb0         176   
.text._DRV_ETHPHY_Reset 0x9d0171a8           0xb0         176   
.text.DRV_ETHPHY_Vendor 0x9d017258           0xb0         176   
.text.TCPIP_TCP_Deiniti 0x9d017308           0xb0         176   
.text._DNS_AddSelection 0x9d0173b8           0xb0         176   
.text.TCPIP_IPV4_Packet 0x9d017468           0xb0         176   
.text._DRV_ETHMAC_LinkS 0x9d017518           0xac         172   
.text._DRV_ETHPHY_NegCo 0x9d0175c4           0xac         172   
.text.DRV_ETHPHY_Vendor 0x9d017670           0xac         172   
.text._DNS_Enable       0x9d01771c           0xac         172   
.text._TCPIPStackInsert 0x9d0177c8           0xac         172   
.text.DRV_ETHMAC_PIC32M 0x9d017874           0xa8         168   
.text.DRV_ETHPHY_SMIWri 0x9d01791c           0xa8         168   
.text._DRV_ETHPHY_Setup 0x9d0179c4           0xa8         168   
.text._SYS_TMR_ClientCh 0x9d017a6c           0xa8         168   
.text                   0x9d017b14           0xa8         168  App's exec code 
.text.TCPIP_UDP_PutIsRe 0x9d017bbc           0xa4         164   
.text._TCPIP_HEAP_MaxSi 0x9d017c60           0xa4         164   
.text._TCPIP_PKT_Packet 0x9d017d04           0xa4         164   
.text.TCPIP_IPV4_Initia 0x9d017da8           0xa4         164   
.text._DRV_ETHPHY_LinkS 0x9d017e4c           0xa0         160   
.text._TCPSendWinIncUpd 0x9d017eec           0xa0         160   
.text._TcpAbort         0x9d017f8c           0xa0         160   
.text.TCPIP_Helper_Sing 0x9d01802c           0xa0         160   
.rodata                 0x9d0180cc           0xa0         160  Read-only const 
.text.TCPIP_PKT_PacketM 0x9d01816c           0xa0         160   
.text.DRV_IC0_Initializ 0x9d01820c           0x9c         156   
.text.DRV_IC1_Initializ 0x9d0182a8           0x9c         156   
.text._DRV_ETHMAC_LinkS 0x9d018344           0x9c         156   
.text.TCPIP_ARP_Probe   0x9d0183e0           0x9c         156   
.text.TCPIP_STACK_IPAdd 0x9d01847c           0x9c         156   
.text.PLIB_ETH_MACGetAd 0x9d018518           0x9c         156   
.text.write             0x9d0185b4           0x9c         156   
.text.DRV_ETHMAC_LibDes 0x9d018650           0x98         152   
.text._TcpCleanup       0x9d0186e8           0x98         152   
.text.TCPIP_UDP_Destina 0x9d018780           0x98         152   
.text._DNSDiscardName   0x9d018818           0x98         152   
.text                   0x9d0188b0           0x98         152  App's exec code 
.text.interruptIC3      0x9d018948           0x94         148   
.text._UDPSetNewRxPacke 0x9d0189dc           0x94         148   
.text.TCPIP_ARP_EntryGe 0x9d018a70           0x94         148   
.rodata                 0x9d018b04           0x90         144  Read-only const 
.text._DRV_ETHMAC_LinkS 0x9d018b94           0x90         144   
.text.DRV_ETHPHY_SMISca 0x9d018c24           0x90         144   
.text._DRV_ETHPHY_NegCo 0x9d018cb4           0x90         144   
.text.TCPIP_UDP_SocketI 0x9d018d44           0x90         144   
.text.TCPIP_UDP_TxOffse 0x9d018dd4           0x90         144   
.text.TCPIP_ICMP_Initia 0x9d018e64           0x90         144   
.text.TCPIP_Helper_Prot 0x9d018ef4           0x90         144   
.text._TCPIPStackIpAddF 0x9d018f84           0x90         144   
.text.strstr            0x9d019014           0x90         144   
.text.hexatob           0x9d0190a4           0x8c         140   
.text._DHCPNotifyClient 0x9d019130           0x8c         140   
.text.TCPIP_Helper_Form 0x9d0191bc           0x8c         140   
.text.TCPIP_Helper_Prot 0x9d019248           0x8c         140   
.text.TCPIP_Helper_Prot 0x9d0192d4           0x8c         140   
.text.rand              0x9d019360           0x8c         140   
.text.TCPIP_UDP_SourceI 0x9d0193ec           0x88         136   
.text.DRV_ETHPHY_Vendor 0x9d019474           0x84         132   
.text._DRV_TMR_ModuleOb 0x9d0194f8           0x84         132   
.text._TcpClientSocketC 0x9d01957c           0x84         132   
.text._TCPIPStackModule 0x9d019600           0x84         132   
.text.SYS_PORTS_Initial 0x9d019684           0x80         128   
.text.DRV_ETHPHY_SMISca 0x9d019704           0x80         128   
.text._DRV_ETHPHY_Setup 0x9d019784           0x80         128   
.text.TCPIP_DNS_OAHASH_ 0x9d019804           0x80         128   
.text.SYS_CLK_Initializ 0x9d019884           0x7c         124   
.text.DRV_ETHPHY_SMIRea 0x9d019900           0x7c         124   
.text.DRV_ETHPHY_SMISca 0x9d01997c           0x7c         124   
.text._DRV_ETHPHY_Setup 0x9d0199f8           0x7c         124   
.text._TCP_EphemeralPor 0x9d019a74           0x7c         124   
.text._UDPAllocateEphem 0x9d019af0           0x7c         124   
.text.TCPIP_ARP_Deiniti 0x9d019b6c           0x7c         124   
.text.TCPIP_ARP_Handler 0x9d019be8           0x7c         124   
.text.TCPIP_Helper_Prot 0x9d019c64           0x7c         124   
.text._TCPIPStackAnyNet 0x9d019ce0           0x7c         124   
.text.fptoul            0x9d019d5c           0x7c         124   
.text.initialiseLedBrig 0x9d019dd8           0x78         120   
.text._DRV_ETHPHY_NegRe 0x9d019e50           0x78         120   
.text._DRV_ETHPHY_Setup 0x9d019ec8           0x78         120   
.text.DRV_ETHPHY_Open   0x9d019f40           0x78         120   
.text.TCPIP_UDP_Close   0x9d019fb8           0x78         120   
.text.TCPIP_DHCP_Handle 0x9d01a030           0x78         120   
.text._DNS_CleanCacheEn 0x9d01a0a8           0x78         120   
.text.TCPIP_Helper_Prot 0x9d01a120           0x78         120   
.text._TCPIP_MacEventCB 0x9d01a198           0x78         120   
.text.TCPIP_PKT_Initial 0x9d01a210           0x78         120   
.text._DRV_ETHPHY_NegCo 0x9d01a288           0x74         116   
.text._TcpSwapHeader    0x9d01a2fc           0x74         116   
.text._DHCPOptionProces 0x9d01a370           0x74         116   
.text._DHCPOptionProces 0x9d01a3e4           0x74         116   
.text.TCPIP_Helper_Stri 0x9d01a458           0x74         116   
.text._TCPIPStackSignal 0x9d01a4cc           0x74         116   
.text._TCPIP_PKT_Socket 0x9d01a540           0x74         116   
.text.strncpy           0x9d01a5b4           0x74         116   
.text.DRV_ETHMAC_PIC32M 0x9d01a628           0x70         112   
.text._EnetPoolFreeDcpt 0x9d01a698           0x70         112   
.text._DRV_ETHPHY_LinkS 0x9d01a708           0x70         112   
.text._UDPClose         0x9d01a778           0x70         112   
.text.TCPIP_UDP_SocketN 0x9d01a7e8           0x70         112   
.text._TCPIP_HEAP_Delet 0x9d01a858           0x70         112   
.text._ARPSetEntry      0x9d01a8c8           0x70         112   
.text._ARPRemoveEntry   0x9d01a938           0x70         112   
.rodata                 0x9d01a9a8           0x70         112  Read-only const 
.text.strncmp           0x9d01aa18           0x70         112   
.text._MacRxFreeCallbac 0x9d01aa88           0x6c         108   
.text.TCPIP_TCP_Close   0x9d01aaf4           0x6c         108   
.text._DHCPCleanup      0x9d01ab60           0x6c         108   
.text._DNSGetData       0x9d01abcc           0x6c         108   
.text._TCPIP_AnnounceCl 0x9d01ac38           0x6c         108   
.text.TCPIP_ANNOUNCE_De 0x9d01aca4           0x6c         108   
.text.SYS_RANDOM_Initia 0x9d01ad10           0x68         104   
.text._UDPFreeTxResourc 0x9d01ad78           0x68         104   
.text.TCPIP_UDP_OpenCli 0x9d01ade0           0x68         104   
.text.TCPIP_UDP_SignalH 0x9d01ae48           0x68         104   
.text.TCPIP_ARP_HashEnt 0x9d01aeb0           0x68         104   
.text._DHCPSetTimeout   0x9d01af18           0x68         104   
.text.TCPIP_DNS_RemoveE 0x9d01af80           0x68         104   
.text.TCPIP_STACK_IsBca 0x9d01afe8           0x68         104   
.text._TCPIPStackModule 0x9d01b050           0x68         104   
.text._sprintf_cdnopuxX 0x9d01b0b8           0x68         104   
.text.DRV_ETHPHY_SMISca 0x9d01b120           0x64         100   
.text.DRV_TMR_Open      0x9d01b184           0x64         100   
.text.DRV_TMR_Start     0x9d01b1e8           0x64         100   
.text._TcpSocketKill    0x9d01b24c           0x64         100   
.text.TCPIP_UDP_GetIsRe 0x9d01b2b0           0x64         100   
.text.TCPIP_DHCP_Deinit 0x9d01b314           0x64         100   
.text.ANNOUNCE_Notify   0x9d01b378           0x64         100   
.text.TCPIP_STACK_Addre 0x9d01b3dc           0x64         100   
.text.TCPIP_IPV4_Cleanu 0x9d01b440           0x64         100   
.text.DRV_ETHMAC_PIC32M 0x9d01b4a4           0x60          96   
.text._DRV_ETHPHY_Clien 0x9d01b504           0x60          96   
.text._DRV_ETHPHY_Clien 0x9d01b564           0x60          96   
.text._DRV_ETHPHY_Clien 0x9d01b5c4           0x60          96   
.text._DRV_ETHPHY_Clien 0x9d01b624           0x60          96   
.text._DRV_ETHPHY_Clien 0x9d01b684           0x60          96   
.text._DRV_ETHPHY_Setup 0x9d01b6e4           0x60          96   
.text._DHCPOptionProces 0x9d01b744           0x60          96   
.text._DNSClientCleanup 0x9d01b7a4           0x60          96   
.text.TCPIP_OAHASH_Entr 0x9d01b804           0x60          96   
.rodata                 0x9d01b864           0x60          96  Read-only const 
.text.IPv4RegisterFilte 0x9d01b8c4           0x60          96   
.text.sitofp            0x9d01b924           0x60          96   
.text._DRV_ETHPHY_Clien 0x9d01b984           0x5c          92   
.text.DRV_ETHPHY_LinkSt 0x9d01b9e0           0x5c          92   
.text.DRV_ETHPHY_Negoti 0x9d01ba3c           0x5c          92   
.text._DRV_ETHPHY_Clien 0x9d01ba98           0x5c          92   
.text._DNS_NetIsValid   0x9d01baf4           0x5c          92   
.text.fnv_32_hash       0x9d01bb50           0x5c          92   
.text._DRV_I2C_QueuePop 0x9d01bbac           0x58          88   
.text.TCPIP_STACK_Init  0x9d01bc04           0x58          88   
.text.DRV_ETHMAC_PIC32M 0x9d01bc5c           0x58          88   
.text.DRV_ETHMAC_PIC32M 0x9d01bcb4           0x58          88   
.text._MacTxDiscardQueu 0x9d01bd0c           0x58          88   
.text.DRV_ETHPHY_Initia 0x9d01bd64           0x58          88   
.text.SYS_DEVCON_System 0x9d01bdbc           0x58          88   
.text.SYS_INT_SourceDis 0x9d01be14           0x58          88   
.text._TCPSocketTxFreeS 0x9d01be6c           0x58          88   
.text._TCP_PortIsAvaila 0x9d01bec4           0x58          88   
.text._DHCPOptionProces 0x9d01bf1c           0x58          88   
.text._DHCPOptionProces 0x9d01bf74           0x58          88   
.text._DHCPOptionProces 0x9d01bfcc           0x58          88   
.text.TCPIP_Helper_Prot 0x9d01c024           0x58          88   
.text.TCPIP_STACK_NetBy 0x9d01c07c           0x58          88   
.text.TCPIP_Notificatio 0x9d01c0d4           0x58          88   
.text.main_entry        0x9d01c12c           0x54          84   
.text._DRV_ETHMAC_LinkS 0x9d01c180           0x54          84   
.text._EnetDescriptorsC 0x9d01c1d4           0x54          84   
.text.SYS_TMR_ObjectDel 0x9d01c228           0x54          84   
.text.DRV_OC0_Initializ 0x9d01c27c           0x50          80   
.text.DRV_OC1_Initializ 0x9d01c2cc           0x50          80   
.text.DRV_OC2_Initializ 0x9d01c31c           0x50          80   
.text.DRV_OC3_Initializ 0x9d01c36c           0x50          80   
.text.DRV_OC4_Initializ 0x9d01c3bc           0x50          80   
.text._XtlEventsTcp2Eth 0x9d01c40c           0x50          80   
.text.DRV_ETHPHY_HWConf 0x9d01c45c           0x50          80   
.text._DRV_ETHPHY_NegRe 0x9d01c4ac           0x50          80   
.text._DRV_ETHPHY_NegRe 0x9d01c4fc           0x50          80   
.text._TCPSetSourceAddr 0x9d01c54c           0x50          80   
.text._TCPSetHalfFlushF 0x9d01c59c           0x50          80   
.text._TcpFlush         0x9d01c5ec           0x50          80   
.text.TCPIP_TCP_Flush   0x9d01c63c           0x50          80   
.text.TCPIP_UDP_Discard 0x9d01c68c           0x50          80   
.text._DHCPOptionWriteP 0x9d01c6dc           0x50          80   
.text._DHCPOptionProces 0x9d01c72c           0x50          80   
.text.TCPIP_DNS_OAHASH_ 0x9d01c77c           0x50          80   
.text._TCPIPStackModule 0x9d01c7cc           0x50          80   
.text.TCPIP_Notificatio 0x9d01c81c           0x50          80   
.text._TCPIP_PKT_Packet 0x9d01c86c           0x50          80   
.text.sbrk              0x9d01c8bc           0x50          80   
.text.SYS_CLK_Secondary 0x9d01c90c           0x4c          76   
.text._MACTxPacketAckCa 0x9d01c958           0x4c          76   
.text.DRV_ETHPHY_Reset  0x9d01c9a4           0x4c          76   
.text.DRV_ETHPHY_Negoti 0x9d01c9f0           0x4c          76   
.text._DRV_PHY_NegCompl 0x9d01ca3c           0x4c          76   
.text._DRV_ETHPHY_Setup 0x9d01ca88           0x4c          76   
.text.SYS_TMR_TickCount 0x9d01cad4           0x4c          76   
.text._TCPIP_HEAP_Callo 0x9d01cb20           0x4c          76   
.text._ARPRemoveCacheEn 0x9d01cb6c           0x4c          76   
.text.TCPIP_STACK_MACId 0x9d01cbb8           0x4c          76   
.text.TCPIP_STACK_DNSSe 0x9d01cc04           0x4c          76   
.text.TCPIP_Notificatio 0x9d01cc50           0x4c          76   
.text                   0x9d01cc9c           0x4c          76  App's exec code 
.text.calloc            0x9d01cce8           0x4c          76   
.text.DRV_ETHPHY_Tasks  0x9d01cd34           0x48          72   
.text.DRV_ETHPHY_Restar 0x9d01cd7c           0x48          72   
.text._DRV_ETHPHY_NegRe 0x9d01cdc4           0x48          72   
.text._DRV_ETHPHY_Clien 0x9d01ce0c           0x48          72   
.text.DRV_TMR_Close     0x9d01ce54           0x48          72   
.text.SYS_DEVCON_System 0x9d01ce9c           0x48          72   
.text.strupr            0x9d01cee4           0x48          72   
.text._UDPIsAvailablePo 0x9d01cf2c           0x48          72   
.text.TCPIP_UDP_TxPoint 0x9d01cf74           0x48          72   
.text.TCPIP_HEAP_Create 0x9d01cfbc           0x48          72   
.text.TCPIP_ARP_Handler 0x9d01d004           0x48          72   
.text._DHCPOptionWriteM 0x9d01d04c           0x48          72   
.text.TCPIP_Helper_Sing 0x9d01d094           0x48          72   
.text.TCPIP_STACK_IPAdd 0x9d01d0dc           0x48          72   
.text._bootstrap_except 0x9d01d124           0x48          72   
.vector_default         0x9d01d16c           0x48          72   
.text.SYS_Tasks         0x9d01d1b4           0x44          68   
.text._SwapARPPacket    0x9d01d1f8           0x44          68   
.text.TCPIP_DHCP_Handle 0x9d01d23c           0x44          68   
.text.TCPIP_DNS_ClientD 0x9d01d280           0x44          68   
.text.TCPIP_Helper_Prot 0x9d01d2c4           0x44          68   
.text._TCPIP_STACK_Tick 0x9d01d308           0x44          68   
.text.TCPIP_STACK_NetIs 0x9d01d34c           0x44          68   
.text.Ipv4DeRegisterFil 0x9d01d390           0x44          68   
.text.PLIB_ETH_RxSetBuf 0x9d01d3d4           0x44          68   
.text                   0x9d01d418           0x44          68  App's exec code 
.text.strcat            0x9d01d45c           0x44          68   
.text._general_exceptio 0x9d01d4a0           0x40          64   
.text._DRV_ETHPHY_NegCo 0x9d01d4e0           0x40          64   
.text.TCPIP_TCP_IsConne 0x9d01d520           0x40          64   
.text.TCPIP_TCP_PutIsRe 0x9d01d560           0x40          64   
.text.TCPIP_TCP_Find    0x9d01d5a0           0x40          64   
.text.TCPIP_ICMP_Cleanu 0x9d01d5e0           0x40          64   
.text.TCPIP_ICMP_Deinit 0x9d01d620           0x40          64   
.text.TCPIP_Helper_Prot 0x9d01d660           0x40          64   
.text._DRV_ETHMAC_LinkS 0x9d01d6a0           0x3c          60   
.text.DRV_ETHMAC_Single 0x9d01d6dc           0x3c          60   
.text.DRV_TMR_AlarmPeri 0x9d01d718           0x3c          60   
.text.LFSRRand          0x9d01d754           0x3c          60   
.text._TCPIsGetReady    0x9d01d790           0x3c          60   
.text._UDPTxPktValid    0x9d01d7cc           0x3c          60   
.text._UDPFreeRxQueue   0x9d01d808           0x3c          60   
.text._ARPTxAckFnc      0x9d01d844           0x3c          60   
.text.TCPIP_ARP_HashKey 0x9d01d880           0x3c          60   
.text._ICMPAllocateTxPa 0x9d01d8bc           0x3c          60   
.text.TCPIP_OAHASH_Init 0x9d01d8f8           0x3c          60   
.text.TCPIP_Helper_Sing 0x9d01d934           0x3c          60   
.text._TCPIPSignalEntry 0x9d01d970           0x3c          60   
.text._TCPIPStackSetCon 0x9d01d9ac           0x3c          60   
.text._DRV_I2C_Advance_ 0x9d01d9e8           0x38          56   
.text._EthMacReset      0x9d01da20           0x38          56   
.text.DRV_ETHMAC_LibDes 0x9d01da58           0x38          56   
.text.DRV_ETHMAC_LibRxP 0x9d01da90           0x38          56   
.text.DRV_ETHMAC_LibRxS 0x9d01dac8           0x38          56   
.text.DRV_ETHMAC_LibTxP 0x9d01db00           0x38          56   
.text._DRV_PHY_SMIReadS 0x9d01db38           0x38          56   
.text._DRV_PHY_SMIWrite 0x9d01db70           0x38          56   
.text.DRV_ETHPHY_SMISta 0x9d01dba8           0x38          56   
.text._DRV_ETHPHY_Reset 0x9d01dbe0           0x38          56   
.text._TcpSocketChk     0x9d01dc18           0x38          56   
.text._UDPSocketDcpt    0x9d01dc50           0x38          56   
.text._ARPAllocateTxPac 0x9d01dc88           0x38          56   
.text.TCPIP_STACK_Addre 0x9d01dcc0           0x38          56   
.text.SYS_INT_SourceRes 0x9d01dcf8           0x34          52   
.text.DRV_ETHMAC_LibTxA 0x9d01dd2c           0x34          52   
.text.DRV_ETHPHY_PhyAdd 0x9d01dd60           0x34          52   
.text.DRV_ETHPHY_Client 0x9d01dd94           0x34          52   
.text._DRV_ETHPHY_LinkS 0x9d01ddc8           0x34          52   
.text._DRV_ETHPHY_NegRe 0x9d01ddfc           0x34          52   
.text._DRV_ETHPHY_NegCo 0x9d01de30           0x34          52   
.text._DRV_ETHPHY_NegRe 0x9d01de64           0x34          52   
.text.TCPIP_TCP_GetIsRe 0x9d01de98           0x34          52   
.text._UDPUpdatePacketL 0x9d01decc           0x34          52   
.text.TCPIP_STACK_Index 0x9d01df00           0x34          52   
.text.TCPIP_STACK_NetAd 0x9d01df34           0x34          52   
.text.TCPIP_STACK_DNSSe 0x9d01df68           0x34          52   
.text.TCPIP_STACK_Addre 0x9d01df9c           0x34          52   
.text.TCPIP_STACK_NetAd 0x9d01dfd0           0x34          52   
.text._TCPIPStackHandle 0x9d01e004           0x34          52   
.text.TCPIP_STACK_NetIs 0x9d01e038           0x34          52   
.text._MacCallocCallbac 0x9d01e06c           0x30          48   
.text.DRV_ETHMAC_PIC32M 0x9d01e09c           0x30          48   
.text.DRV_ETHMAC_Single 0x9d01e0cc           0x30          48   
.text.DRV_ETHPHY_Vendor 0x9d01e0fc           0x30          48   
.text._TCPIP_HEAP_FreeS 0x9d01e12c           0x30          48   
.text._DHCPSocketRxSign 0x9d01e15c           0x30          48   
.text._DNSSocketRxSigna 0x9d01e18c           0x30          48   
.text._TCPIP_AnnounceSo 0x9d01e1bc           0x30          48   
.text.TCPIP_OAHASH_Entr 0x9d01e1ec           0x30          48   
.text.TCPIP_Helper_Sing 0x9d01e21c           0x30          48   
.text.TCPIP_STACK_NetAd 0x9d01e24c           0x30          48   
.text.TCPIP_STACK_NetMa 0x9d01e27c           0x30          48   
.text.TCPIP_STACK_Netwo 0x9d01e2ac           0x30          48   
.text._TCPIPStackModule 0x9d01e2dc           0x30          48   
.text.free              0x9d01e30c           0x30          48   
.text.DRV_ETHPHY_Reinit 0x9d01e33c           0x2c          44   
.text._SYS_TMR_AlarmCal 0x9d01e368           0x2c          44   
.text.TCPIP_OAHASH_Entr 0x9d01e394           0x2c          44   
.text.TCPIP_Notificatio 0x9d01e3c0           0x2c          44   
.text.strchr            0x9d01e3ec           0x2c          44   
.text._stub_sbd_memlayo 0x9d01e418           0x2c          44   
.text.BSP_Initialize    0x9d01e444           0x28          40   
.text._MacTxFreeCallbac 0x9d01e46c           0x28          40   
.text.SYS_TMR_TickCount 0x9d01e494           0x28          40   
.text.TCPIP_TCP_Put     0x9d01e4bc           0x28          40   
.text.TCPIP_UDP_Put     0x9d01e4e4           0x28          40   
.text._TCPIP_HEAP_Size  0x9d01e50c           0x28          40   
.text._TCPIP_HEAP_LastE 0x9d01e534           0x28          40   
.text.TCPIP_STACK_NetMA 0x9d01e55c           0x28          40   
.text._TCPIPStackSignal 0x9d01e584           0x28          40   
.text.PLIB_ETH_MACSetMa 0x9d01e5ac           0x28          40   
.text.DRV_ETHMAC_PIC32M 0x9d01e5d4           0x24          36   
.text.SYS_TMR_TickCount 0x9d01e5f8           0x24          36   
.text.SYS_TMR_SystemCou 0x9d01e61c           0x24          36   
.text._TCP_TxPktValid   0x9d01e640           0x24          36   
.text._DHCPOptionWriteE 0x9d01e664           0x24          36   
.text._TCPIPSignalEntry 0x9d01e688           0x24          36   
.text.toupper           0x9d01e6ac           0x24          36   
.text.main              0x9d01e6d0           0x20          32   
.text.DRV_ETHMAC_PIC32M 0x9d01e6f0           0x20          32   
.text._DRV_ETHMAC_GetFr 0x9d01e710           0x20          32   
.text._DRV_ETHMAC_GetFr 0x9d01e730           0x20          32   
.text._DRV_ETHMAC_GetFr 0x9d01e750           0x20          32   
.text._DRV_ETHMAC_GetFr 0x9d01e770           0x20          32   
.text._DRV_ETHMAC_GetFr 0x9d01e790           0x20          32   
.text._DRV_ETHMAC_GetAl 0x9d01e7b0           0x20          32   
.text._DRV_ETHMAC_GetSC 0x9d01e7d0           0x20          32   
.text._DRV_ETHMAC_GetMC 0x9d01e7f0           0x20          32   
.text.DRV_ETHPHY_Close  0x9d01e810           0x20          32   
.text._DRV_ETHPHY_Clien 0x9d01e830           0x20          32   
.text.DRV_TMR_AlarmPeri 0x9d01e850           0x20          32   
.text.TCPIP_TCP_Get     0x9d01e870           0x20          32   
.text.TCPIP_UDP_ServerO 0x9d01e890           0x20          32   
.text.TCPIP_UDP_ClientO 0x9d01e8b0           0x20          32   
.text.TCPIP_HEAP_Malloc 0x9d01e8d0           0x20          32   
.text.TCPIP_HEAP_Calloc 0x9d01e8f0           0x20          32   
.text.TCPIP_HEAP_Free   0x9d01e910           0x20          32   
.text.TCPIP_DNS_OAHASH_ 0x9d01e930           0x20          32   
.text._ICMPAckPacket    0x9d01e950           0x20          32   
.text.TCPIP_STACK_Statu 0x9d01e970           0x20          32   
.text.PLIB_ETH_EventsGe 0x9d01e990           0x20          32   
.text._DRV_ETHPHY_Clien 0x9d01e9b0           0x1c          28   
.text.DRV_ETHPHY_Vendor 0x9d01e9cc           0x1c          28   
.rodata                 0x9d01e9e8           0x1c          28  Read-only const 
.text.SYS_RANDOM_Pseudo 0x9d01ea04           0x1c          28   
.text.SYS_TMR_ModuleSta 0x9d01ea20           0x1c          28   
.text.SYS_TMR_CallbackS 0x9d01ea3c           0x1c          28   
.text.SYS_TMR_CallbackP 0x9d01ea58           0x1c          28   
.text.TCPIP_UDP_TxPutIs 0x9d01ea74           0x1c          28   
.text.TCPIP_Helper_Chec 0x9d01ea90           0x1c          28   
.text.TCPIP_Notificatio 0x9d01eaac           0x1c          28   
.text.PLIB_ETH_RxFilter 0x9d01eac8           0x1c          28   
.text.PLIB_ETH_RxFilter 0x9d01eae4           0x1c          28   
.text.PLIB_ETH_RxFilter 0x9d01eb00           0x1c          28   
.text.srand             0x9d01eb1c           0x1c          28   
.text.IsQueueEmpty_0    0x9d01eb38           0x18          24   
.text.DRV_IC0_Start     0x9d01eb50           0x18          24   
.text.DRV_IC1_Start     0x9d01eb68           0x18          24   
.text.DRV_OC0_Enable    0x9d01eb80           0x18          24   
.text.DRV_OC0_Start     0x9d01eb98           0x18          24   
.text.DRV_OC1_Enable    0x9d01ebb0           0x18          24   
.text.DRV_OC1_Start     0x9d01ebc8           0x18          24   
.text.DRV_OC2_Enable    0x9d01ebe0           0x18          24   
.text.DRV_OC2_Start     0x9d01ebf8           0x18          24   
.text.DRV_OC3_Enable    0x9d01ec10           0x18          24   
.text.DRV_OC3_Start     0x9d01ec28           0x18          24   
.text.DRV_OC4_Enable    0x9d01ec40           0x18          24   
.text.DRV_OC4_Start     0x9d01ec58           0x18          24   
.text.DRV_ETHPHY_Deinit 0x9d01ec70           0x18          24   
.text.DRV_ETHPHY_Status 0x9d01ec88           0x18          24   
.text.DRV_ETHPHY_Client 0x9d01eca0           0x18          24   
.text.DRV_ETHPHY_Client 0x9d01ecb8           0x18          24   
.text.SYS_DEVCON_JTAGEn 0x9d01ecd0           0x18          24   
.text.SYS_INT_Initializ 0x9d01ece8           0x18          24   
.text.TCPIP_ARP_HashKey 0x9d01ed00           0x18          24   
.text.TCPIP_STACK_NetIx 0x9d01ed18           0x18          24   
.text.TCPIP_STACK_Gatew 0x9d01ed30           0x18          24   
.text.TCPIP_STACK_Prima 0x9d01ed48           0x18          24   
.text.TCPIP_STACK_Secon 0x9d01ed60           0x18          24   
.text.PLIB_ETH_EventsEn 0x9d01ed78           0x18          24   
.text.PLIB_ETH_EventsEn 0x9d01ed90           0x18          24   
.text.PLIB_ETH_EventsCl 0x9d01eda8           0x18          24   
.text                   0x9d01edc0           0x18          24  App's exec code 
.text.SYS_DEVCON_Initia 0x9d01edd8           0x14          20   
.rodata                 0x9d01edec           0x14          20  Read-only const 
.text.QueueInitialize_0 0x9d01ee00           0x10          16   
.rodata                 0x9d01ee10           0x10          16  Read-only const 
.text.TCPIP_ARP_HashKey 0x9d01ee20           0x10          16   
.text.TCPIP_Helper_Sing 0x9d01ee30           0x10          16   
.text.SYS_CLK_SystemFre 0x9d01ee40            0xc          12   
.text.SYS_CLK_Periphera 0x9d01ee4c            0xc          12   
.rodata                 0x9d01ee58            0xc          12  Read-only const 
.text.DRV_ETHMAC_PIC32M 0x9d01ee64            0xc          12   
.text.DRV_EXTPHY_SMIClo 0x9d01ee70            0xc          12   
.text.TCPIP_STACK_Numbe 0x9d01ee7c            0xc          12   
.text.TCPIP_STACK_NetBI 0x9d01ee88            0xc          12   
.text.APP_Initialize    0x9d01ee94            0x8           8   
.text.interruptT1       0x9d01ee9c            0x8           8   
.text.getRxPacketSize   0x9d01eea4            0x8           8   
.text.DRV_ETHMAC_PIC32M 0x9d01eeac            0x8           8   
.text.DRV_ETHMAC_PIC32M 0x9d01eeb4            0x8           8   
.text._DRV_ETHPHY_Clien 0x9d01eebc            0x8           8   
.text.SYS_DEVCON_Tasks  0x9d01eec4            0x8           8   
.text._TCPIP_HEAP_Buffe 0x9d01eecc            0x8           8   
.text._DHCPOptionProces 0x9d01eed4            0x8           8   
.text.TCPIP_STACK_NetDe 0x9d01eedc            0x8           8   
.text.TCPIP_PKT_Deiniti 0x9d01eee4            0x8           8   
.text._on_reset         0x9d01eeec            0x8           8   
.text._on_bootstrap     0x9d01eef4            0x8           8   
      Total kseg0_program_mem used  :     0x1eef8      126712  24.2% of 0x80000

kseg0 Boot-Memory Usage
section                    address  length [bytes]      (dec)  Description
-------                 ----------  -------------------------  -----------
         Total kseg0_boot_mem used  :           0           0  <1% of 0x970

Exception-Memory Usage 
section                    address  length [bytes]      (dec)  Description
-------                 ----------  -------------------------  -----------
.app_excpt              0x9fc01180           0x10          16  General-Exception 
.vector_0               0x9fc01200            0x8           8  Interrupt Vector 0 
.vector_1               0x9fc01220            0x8           8  Interrupt Vector 1 
.vector_2               0x9fc01240            0x8           8  Interrupt Vector 2 
.vector_3               0x9fc01260            0x8           8  Interrupt Vector 3 
.vector_4               0x9fc01280            0x8           8  Interrupt Vector 4 
.vector_5               0x9fc012a0            0x8           8  Interrupt Vector 5 
.vector_6               0x9fc012c0            0x8           8  Interrupt Vector 6 
.vector_7               0x9fc012e0            0x8           8  Interrupt Vector 7 
.vector_8               0x9fc01300            0x8           8  Interrupt Vector 8 
.vector_9               0x9fc01320            0x8           8  Interrupt Vector 9 
.vector_10              0x9fc01340            0x8           8  Interrupt Vector 10 
.vector_11              0x9fc01360            0x8           8  Interrupt Vector 11 
.vector_12              0x9fc01380            0x8           8  Interrupt Vector 12 
.vector_13              0x9fc013a0            0x8           8  Interrupt Vector 13 
.vector_14              0x9fc013c0            0x8           8  Interrupt Vector 14 
.vector_15              0x9fc013e0            0x8           8  Interrupt Vector 15 
.vector_16              0x9fc01400            0x8           8  Interrupt Vector 16 
.vector_17              0x9fc01420            0x8           8  Interrupt Vector 17 
.vector_18              0x9fc01440            0x8           8  Interrupt Vector 18 
.vector_19              0x9fc01460            0x8           8  Interrupt Vector 19 
.vector_20              0x9fc01480            0x8           8  Interrupt Vector 20 
.vector_21              0x9fc014a0            0x8           8  Interrupt Vector 21 
.vector_22              0x9fc014c0            0x8           8  Interrupt Vector 22 
.vector_23              0x9fc014e0            0x8           8  Interrupt Vector 23 
.vector_24              0x9fc01500            0x8           8  Interrupt Vector 24 
.vector_25              0x9fc01520            0x8           8  Interrupt Vector 25 
.vector_26              0x9fc01540            0x8           8  Interrupt Vector 26 
.vector_27              0x9fc01560            0x8           8  Interrupt Vector 27 
.vector_28              0x9fc01580            0x8           8  Interrupt Vector 28 
.vector_29              0x9fc015a0            0x8           8  Interrupt Vector 29 
.vector_30              0x9fc015c0            0x8           8  Interrupt Vector 30 
.vector_31              0x9fc015e0            0x8           8  Interrupt Vector 31 
.vector_32              0x9fc01600            0x8           8  Interrupt Vector 32 
.vector_33              0x9fc01620            0x8           8  Interrupt Vector 33 
.vector_34              0x9fc01640            0x8           8  Interrupt Vector 34 
.vector_35              0x9fc01660            0x8           8  Interrupt Vector 35 
.vector_36              0x9fc01680            0x8           8  Interrupt Vector 36 
.vector_37              0x9fc016a0            0x8           8  Interrupt Vector 37 
.vector_38              0x9fc016c0            0x8           8  Interrupt Vector 38 
.vector_39              0x9fc016e0            0x8           8  Interrupt Vector 39 
.vector_40              0x9fc01700            0x8           8  Interrupt Vector 40 
.vector_41              0x9fc01720            0x8           8  Interrupt Vector 41 
.vector_42              0x9fc01740            0x8           8  Interrupt Vector 42 
.vector_43              0x9fc01760            0x8           8  Interrupt Vector 43 
.vector_44              0x9fc01780            0x8           8  Interrupt Vector 44 
.vector_45              0x9fc017a0            0x8           8  Interrupt Vector 45 
.vector_46              0x9fc017c0            0x8           8  Interrupt Vector 46 
.vector_47              0x9fc017e0            0x8           8  Interrupt Vector 47 
.vector_48              0x9fc01800            0x8           8  Interrupt Vector 48 
.vector_49              0x9fc01820            0x8           8  Interrupt Vector 49 
.vector_50              0x9fc01840            0x8           8  Interrupt Vector 50 
.vector_51              0x9fc01860            0x8           8  Interrupt Vector 51 
          Total exception_mem used  :       0x1b0         432  10.5% of 0x1000

kseg1 Boot-Memory Usage
section                    address  length [bytes]      (dec)  Description
-------                 ----------  -------------------------  -----------
.reset                  0xbfc00000          0x208         520  Reset handler 
.bev_excpt              0xbfc00380           0x10          16  BEV-Exception 
         Total kseg1_boot_mem used  :       0x218         536  45.9% of 0x490
        --------------------------------------------------------------------------
         Total Program Memory used  :     0x1f2c0      127680  24.0% of 0x81e00
        --------------------------------------------------------------------------


kseg1 Data-Memory Usage
section                    address  length [bytes]      (dec)  Description
-------                 ----------  -------------------------  -----------
.sdata                  0xa0000000           0x6c         108  Small init data 
.sbss                   0xa000006c          0x148         328  Small uninit data 
.bss                    0xa00001b4          0x1b8         440  Uninitialized data 
.bss                    0xa000036c          0x408        1032  Uninitialized data 
.data                   0xa0000774          0x108         264  Initialized data 
.bss                    0xa000087c          0x284         644  Uninitialized data 
.data                   0xa0000b00           0x1c          28  Initialized data 
.bss                    0xa0000b1c           0x38          56  Uninitialized data 
.bss.errno              0xa0000b54            0x4           4   
.bss                    0xa0000b58           0x10          16  Uninitialized data 
         Total kseg1_data_mem used  :       0xb68        2920  2.2% of 0x20000
        --------------------------------------------------------------------------
            Total Data Memory used  :       0xb68        2920  2.2% of 0x20000
        --------------------------------------------------------------------------


Dynamic Data-Memory Reservation
section                    address  length [bytes]      (dec)  Description
-------                 ----------  -------------------------  -----------
heap                    0xa0000b70         0xafa0       44960  Reserved for heap 
stack                   0xa000bb28        0x144d0       83152  Reserved for stack 

        --------------------------------------------------------------------------

Discarded input sections

 .text          0x00000000        0x0 c:/program files (x86)/microchip/xc32/v1.42/bin/bin/../../lib/gcc/pic32mx/4.8.3/../../../../pic32mx/lib/./proc/32MX795F512L/crt0_mips32r2.o
 .data          0x00000000        0x0 c:/program files (x86)/microchip/xc32/v1.42/bin/bin/../../lib/gcc/pic32mx/4.8.3/../../../../pic32mx/lib/./proc/32MX795F512L/crt0_mips32r2.o
 .bss           0x00000000        0x0 c:/program files (x86)/microchip/xc32/v1.42/bin/bin/../../lib/gcc/pic32mx/4.8.3/../../../../pic32mx/lib/./proc/32MX795F512L/crt0_mips32r2.o
 .text          0x00000000        0x0 c:/program files (x86)/microchip/xc32/v1.42/bin/bin/../../lib/gcc/pic32mx/4.8.3/../../../../pic32mx/lib\debug-exception-return.o
 .data          0x00000000        0x0 c:/program files (x86)/microchip/xc32/v1.42/bin/bin/../../lib/gcc/pic32mx/4.8.3/../../../../pic32mx/lib\debug-exception-return.o
 .bss           0x00000000        0x0 c:/program files (x86)/microchip/xc32/v1.42/bin/bin/../../lib/gcc/pic32mx/4.8.3/../../../../pic32mx/lib\debug-exception-return.o
 .reginfo       0x00000000       0x18 c:/program files (x86)/microchip/xc32/v1.42/bin/bin/../../lib/gcc/pic32mx/4.8.3/../../../../pic32mx/lib\debug-exception-return.o
 .text          0x00000000        0x0 build/Diplomamunka/production/_ext/1774832663/drv_i2c_static_buffer_model.o
 .data          0x00000000        0x0 build/Diplomamunka/production/_ext/1774832663/drv_i2c_static_buffer_model.o
 .reginfo       0x00000000       0x18 build/Diplomamunka/production/_ext/1774832663/drv_i2c_static_buffer_model.o
 .text.DRV_I2C0_DeInitialize
                0x00000000       0x18 build/Diplomamunka/production/_ext/1774832663/drv_i2c_static_buffer_model.o
 .text.DRV_I2C0_Receive
                0x00000000      0x114 build/Diplomamunka/production/_ext/1774832663/drv_i2c_static_buffer_model.o
 .text.DRV_I2C0_TransmitForced
                0x00000000      0x118 build/Diplomamunka/production/_ext/1774832663/drv_i2c_static_buffer_model.o
 .text.DRV_I2C0_TransmitThenReceive
                0x00000000      0x134 build/Diplomamunka/production/_ext/1774832663/drv_i2c_static_buffer_model.o
 .text.DRV_I2C0_BytesTransferred
                0x00000000        0x8 build/Diplomamunka/production/_ext/1774832663/drv_i2c_static_buffer_model.o
 .text.DRV_I2C0_BufferEventHandlerSet
                0x00000000        0xc build/Diplomamunka/production/_ext/1774832663/drv_i2c_static_buffer_model.o
 .text.DRV_I2C0_TransferStatusGet
                0x00000000        0x8 build/Diplomamunka/production/_ext/1774832663/drv_i2c_static_buffer_model.o
 .text          0x00000000        0x0 build/Diplomamunka/production/_ext/1774832663/drv_i2c_mapping.o
 .data          0x00000000        0x0 build/Diplomamunka/production/_ext/1774832663/drv_i2c_mapping.o
 .bss           0x00000000        0x0 build/Diplomamunka/production/_ext/1774832663/drv_i2c_mapping.o
 .reginfo       0x00000000       0x18 build/Diplomamunka/production/_ext/1774832663/drv_i2c_mapping.o
 .text.DRV_I2C_Open
                0x00000000        0x8 build/Diplomamunka/production/_ext/1774832663/drv_i2c_mapping.o
 .text.DRV_I2C_Close
                0x00000000       0x28 build/Diplomamunka/production/_ext/1774832663/drv_i2c_mapping.o
 .text.DRV_I2C_Transmit
                0x00000000       0x3c build/Diplomamunka/production/_ext/1774832663/drv_i2c_mapping.o
 .text.DRV_I2C_TransmitForced
                0x00000000       0x44 build/Diplomamunka/production/_ext/1774832663/drv_i2c_mapping.o
 .text.DRV_I2C_Receive
                0x00000000       0x3c build/Diplomamunka/production/_ext/1774832663/drv_i2c_mapping.o
 .text.DRV_I2C_TransmitThenReceive
                0x00000000       0x4c build/Diplomamunka/production/_ext/1774832663/drv_i2c_mapping.o
 .text.DRV_I2C_TransferStatusGet
                0x00000000       0x30 build/Diplomamunka/production/_ext/1774832663/drv_i2c_mapping.o
 .text.DRV_I2C_BytesTransferred
                0x00000000       0x30 build/Diplomamunka/production/_ext/1774832663/drv_i2c_mapping.o
 .text.DRV_I2C_BufferEventHandlerSet
                0x00000000       0x28 build/Diplomamunka/production/_ext/1774832663/drv_i2c_mapping.o
 .text          0x00000000        0x0 build/Diplomamunka/production/_ext/793758023/drv_ic_static.o
 .data          0x00000000        0x0 build/Diplomamunka/production/_ext/793758023/drv_ic_static.o
 .bss           0x00000000        0x0 build/Diplomamunka/production/_ext/793758023/drv_ic_static.o
 .reginfo       0x00000000       0x18 build/Diplomamunka/production/_ext/793758023/drv_ic_static.o
 .text.DRV_IC0_Stop
                0x00000000       0x18 build/Diplomamunka/production/_ext/793758023/drv_ic_static.o
 .text.DRV_IC0_Capture32BitDataRead
                0x00000000       0x10 build/Diplomamunka/production/_ext/793758023/drv_ic_static.o
 .text.DRV_IC0_Capture16BitDataRead
                0x00000000       0x10 build/Diplomamunka/production/_ext/793758023/drv_ic_static.o
 .text.DRV_IC0_BufferIsEmpty
                0x00000000       0x14 build/Diplomamunka/production/_ext/793758023/drv_ic_static.o
 .text.DRV_IC1_Stop
                0x00000000       0x18 build/Diplomamunka/production/_ext/793758023/drv_ic_static.o
 .text.DRV_IC1_Capture32BitDataRead
                0x00000000       0x10 build/Diplomamunka/production/_ext/793758023/drv_ic_static.o
 .text.DRV_IC1_Capture16BitDataRead
                0x00000000       0x10 build/Diplomamunka/production/_ext/793758023/drv_ic_static.o
 .text.DRV_IC1_BufferIsEmpty
                0x00000000       0x14 build/Diplomamunka/production/_ext/793758023/drv_ic_static.o
 .text          0x00000000        0x0 build/Diplomamunka/production/_ext/965532929/drv_oc_static.o
 .data          0x00000000        0x0 build/Diplomamunka/production/_ext/965532929/drv_oc_static.o
 .bss           0x00000000        0x0 build/Diplomamunka/production/_ext/965532929/drv_oc_static.o
 .reginfo       0x00000000       0x18 build/Diplomamunka/production/_ext/965532929/drv_oc_static.o
 .text.DRV_OC0_Disable
                0x00000000       0x18 build/Diplomamunka/production/_ext/965532929/drv_oc_static.o
 .text.DRV_OC0_Stop
                0x00000000       0x18 build/Diplomamunka/production/_ext/965532929/drv_oc_static.o
 .text.DRV_OC0_FaultHasOccurred
                0x00000000       0x10 build/Diplomamunka/production/_ext/965532929/drv_oc_static.o
 .text.DRV_OC1_Disable
                0x00000000       0x18 build/Diplomamunka/production/_ext/965532929/drv_oc_static.o
 .text.DRV_OC1_Stop
                0x00000000       0x18 build/Diplomamunka/production/_ext/965532929/drv_oc_static.o
 .text.DRV_OC1_FaultHasOccurred
                0x00000000       0x10 build/Diplomamunka/production/_ext/965532929/drv_oc_static.o
 .text.DRV_OC2_Disable
                0x00000000       0x18 build/Diplomamunka/production/_ext/965532929/drv_oc_static.o
 .text.DRV_OC2_Stop
                0x00000000       0x18 build/Diplomamunka/production/_ext/965532929/drv_oc_static.o
 .text.DRV_OC2_FaultHasOccurred
                0x00000000       0x10 build/Diplomamunka/production/_ext/965532929/drv_oc_static.o
 .text.DRV_OC3_Disable
                0x00000000       0x18 build/Diplomamunka/production/_ext/965532929/drv_oc_static.o
 .text.DRV_OC3_Stop
                0x00000000       0x18 build/Diplomamunka/production/_ext/965532929/drv_oc_static.o
 .text.DRV_OC3_FaultHasOccurred
                0x00000000       0x10 build/Diplomamunka/production/_ext/965532929/drv_oc_static.o
 .text.DRV_OC4_Disable
                0x00000000       0x18 build/Diplomamunka/production/_ext/965532929/drv_oc_static.o
 .text.DRV_OC4_Stop
                0x00000000       0x18 build/Diplomamunka/production/_ext/965532929/drv_oc_static.o
 .text.DRV_OC4_FaultHasOccurred
                0x00000000       0x10 build/Diplomamunka/production/_ext/965532929/drv_oc_static.o
 .text          0x00000000        0x0 build/Diplomamunka/production/_ext/1892475994/sys_clk_static.o
 .data          0x00000000        0x0 build/Diplomamunka/production/_ext/1892475994/sys_clk_static.o
 .bss           0x00000000        0x0 build/Diplomamunka/production/_ext/1892475994/sys_clk_static.o
 .reginfo       0x00000000       0x18 build/Diplomamunka/production/_ext/1892475994/sys_clk_static.o
 .text.SYS_CLK_ReferenceClockFrequencyGet
                0x00000000        0x8 build/Diplomamunka/production/_ext/1892475994/sys_clk_static.o
 .text.SYS_CLK_SecondaryOscillatorDisable
                0x00000000       0x4c build/Diplomamunka/production/_ext/1892475994/sys_clk_static.o
 .text.SYS_CLK_SecondaryOscillatorIsEnabled
                0x00000000       0x10 build/Diplomamunka/production/_ext/1892475994/sys_clk_static.o
 .text          0x00000000        0x0 build/Diplomamunka/production/_ext/904121046/sys_ports_static.o
 .data          0x00000000        0x0 build/Diplomamunka/production/_ext/904121046/sys_ports_static.o
 .bss           0x00000000        0x0 build/Diplomamunka/production/_ext/904121046/sys_ports_static.o
 .reginfo       0x00000000       0x18 build/Diplomamunka/production/_ext/904121046/sys_ports_static.o
 .text          0x00000000        0x0 build/Diplomamunka/production/_ext/1720293489/system_init.o
 .bss           0x00000000        0x0 build/Diplomamunka/production/_ext/1720293489/system_init.o
 .reginfo       0x00000000       0x18 build/Diplomamunka/production/_ext/1720293489/system_init.o
 .text          0x00000000        0x0 build/Diplomamunka/production/_ext/1720293489/system_interrupt.o
 .data          0x00000000        0x0 build/Diplomamunka/production/_ext/1720293489/system_interrupt.o
 .bss           0x00000000        0x0 build/Diplomamunka/production/_ext/1720293489/system_interrupt.o
 .reginfo       0x00000000       0x18 build/Diplomamunka/production/_ext/1720293489/system_interrupt.o
 .text          0x00000000        0x0 build/Diplomamunka/production/_ext/1720293489/system_exceptions.o
 .data          0x00000000        0x0 build/Diplomamunka/production/_ext/1720293489/system_exceptions.o
 .bss           0x00000000        0x0 build/Diplomamunka/production/_ext/1720293489/system_exceptions.o
 .reginfo       0x00000000       0x18 build/Diplomamunka/production/_ext/1720293489/system_exceptions.o
 .text          0x00000000        0x0 build/Diplomamunka/production/_ext/1720293489/system_tasks.o
 .data          0x00000000        0x0 build/Diplomamunka/production/_ext/1720293489/system_tasks.o
 .bss           0x00000000        0x0 build/Diplomamunka/production/_ext/1720293489/system_tasks.o
 .reginfo       0x00000000       0x18 build/Diplomamunka/production/_ext/1720293489/system_tasks.o
 .text          0x00000000        0x0 build/Diplomamunka/production/_ext/1360937237/app.o
 .data          0x00000000        0x0 build/Diplomamunka/production/_ext/1360937237/app.o
 .bss           0x00000000        0x0 build/Diplomamunka/production/_ext/1360937237/app.o
 .reginfo       0x00000000       0x18 build/Diplomamunka/production/_ext/1360937237/app.o
 .text          0x00000000        0x0 build/Diplomamunka/production/_ext/1360937237/main.o
 .data          0x00000000        0x0 build/Diplomamunka/production/_ext/1360937237/main.o
 .bss           0x00000000        0x0 build/Diplomamunka/production/_ext/1360937237/main.o
 .reginfo       0x00000000       0x18 build/Diplomamunka/production/_ext/1360937237/main.o
 .text          0x00000000        0x0 build/Diplomamunka/production/_ext/1360937237/TCPServer.o
 .data          0x00000000        0x0 build/Diplomamunka/production/_ext/1360937237/TCPServer.o
 .bss           0x00000000        0x0 build/Diplomamunka/production/_ext/1360937237/TCPServer.o
 .reginfo       0x00000000       0x18 build/Diplomamunka/production/_ext/1360937237/TCPServer.o
 .text          0x00000000        0x0 build/Diplomamunka/production/_ext/1360937237/fan.o
 .data          0x00000000        0x0 build/Diplomamunka/production/_ext/1360937237/fan.o
 .bss           0x00000000        0x0 build/Diplomamunka/production/_ext/1360937237/fan.o
 .reginfo       0x00000000       0x18 build/Diplomamunka/production/_ext/1360937237/fan.o
 .text          0x00000000        0x0 build/Diplomamunka/production/_ext/1360937237/led.o
 .data          0x00000000        0x0 build/Diplomamunka/production/_ext/1360937237/led.o
 .reginfo       0x00000000       0x18 build/Diplomamunka/production/_ext/1360937237/led.o
 .text          0x00000000        0x0 build/Diplomamunka/production/_ext/1837361561/bsp_sys_init.o
 .data          0x00000000        0x0 build/Diplomamunka/production/_ext/1837361561/bsp_sys_init.o
 .bss           0x00000000        0x0 build/Diplomamunka/production/_ext/1837361561/bsp_sys_init.o
 .reginfo       0x00000000       0x18 build/Diplomamunka/production/_ext/1837361561/bsp_sys_init.o
 .text.BSP_LEDStateSet
                0x00000000       0x38 build/Diplomamunka/production/_ext/1837361561/bsp_sys_init.o
 .text.BSP_LEDOn
                0x00000000       0x1c build/Diplomamunka/production/_ext/1837361561/bsp_sys_init.o
 .text.BSP_LEDOff
                0x00000000       0x1c build/Diplomamunka/production/_ext/1837361561/bsp_sys_init.o
 .text.BSP_LEDStateGet
                0x00000000       0x20 build/Diplomamunka/production/_ext/1837361561/bsp_sys_init.o
 .text.BSP_LEDToggle
                0x00000000       0x1c build/Diplomamunka/production/_ext/1837361561/bsp_sys_init.o
 .text.BSP_SwitchStateGet
                0x00000000       0x20 build/Diplomamunka/production/_ext/1837361561/bsp_sys_init.o
 .text.BSP_USBVBUSSwitchOverCurrentDetect
                0x00000000        0x8 build/Diplomamunka/production/_ext/1837361561/bsp_sys_init.o
 .text.BSP_USBVBUSPowerEnable
                0x00000000       0x34 build/Diplomamunka/production/_ext/1837361561/bsp_sys_init.o
 .text          0x00000000        0x0 build/Diplomamunka/production/_ext/1606841020/adler32.o
 .data          0x00000000        0x0 build/Diplomamunka/production/_ext/1606841020/adler32.o
 .bss           0x00000000        0x0 build/Diplomamunka/production/_ext/1606841020/adler32.o
 .reginfo       0x00000000       0x18 build/Diplomamunka/production/_ext/1606841020/adler32.o
 .text.adler32_combine_
                0x00000000      0x104 build/Diplomamunka/production/_ext/1606841020/adler32.o
 .text.adler32  0x00000000      0x3f0 build/Diplomamunka/production/_ext/1606841020/adler32.o
 .text.adler32_combine
                0x00000000       0x1c build/Diplomamunka/production/_ext/1606841020/adler32.o
 .text.adler32_combine64
                0x00000000       0x1c build/Diplomamunka/production/_ext/1606841020/adler32.o
 .text          0x00000000        0x0 build/Diplomamunka/production/_ext/1606841020/compress.o
 .data          0x00000000        0x0 build/Diplomamunka/production/_ext/1606841020/compress.o
 .bss           0x00000000        0x0 build/Diplomamunka/production/_ext/1606841020/compress.o
 .reginfo       0x00000000       0x18 build/Diplomamunka/production/_ext/1606841020/compress.o
 .rodata        0x00000000        0x8 build/Diplomamunka/production/_ext/1606841020/compress.o
 .text.compress2
                0x00000000       0xa8 build/Diplomamunka/production/_ext/1606841020/compress.o
 .text.compress
                0x00000000       0x20 build/Diplomamunka/production/_ext/1606841020/compress.o
 .text.compressBound
                0x00000000       0x20 build/Diplomamunka/production/_ext/1606841020/compress.o
 .text          0x00000000        0x0 build/Diplomamunka/production/_ext/1606841020/crc32.o
 .data          0x00000000        0x0 build/Diplomamunka/production/_ext/1606841020/crc32.o
 .bss           0x00000000        0x0 build/Diplomamunka/production/_ext/1606841020/crc32.o
 .reginfo       0x00000000       0x18 build/Diplomamunka/production/_ext/1606841020/crc32.o
 .text.gf2_matrix_times
                0x00000000       0x38 build/Diplomamunka/production/_ext/1606841020/crc32.o
 .text.gf2_matrix_square
                0x00000000       0x64 build/Diplomamunka/production/_ext/1606841020/crc32.o
 .text.crc32_combine_
                0x00000000       0xec build/Diplomamunka/production/_ext/1606841020/crc32.o
 .text.get_crc_table
                0x00000000        0xc build/Diplomamunka/production/_ext/1606841020/crc32.o
 .text.crc32    0x00000000      0x488 build/Diplomamunka/production/_ext/1606841020/crc32.o
 .text.crc32_combine
                0x00000000       0x1c build/Diplomamunka/production/_ext/1606841020/crc32.o
 .text.crc32_combine64
                0x00000000       0x1c build/Diplomamunka/production/_ext/1606841020/crc32.o
 .rodata        0x00000000     0x2000 build/Diplomamunka/production/_ext/1606841020/crc32.o
 .text          0x00000000        0x0 build/Diplomamunka/production/_ext/1606841020/deflate.o
 .data          0x00000000        0x0 build/Diplomamunka/production/_ext/1606841020/deflate.o
 .bss           0x00000000        0x0 build/Diplomamunka/production/_ext/1606841020/deflate.o
 .reginfo       0x00000000       0x18 build/Diplomamunka/production/_ext/1606841020/deflate.o
 .text.putShortMSB
                0x00000000       0x38 build/Diplomamunka/production/_ext/1606841020/deflate.o
 .text.longest_match
                0x00000000      0x208 build/Diplomamunka/production/_ext/1606841020/deflate.o
 .text.fill_window
                0x00000000      0x384 build/Diplomamunka/production/_ext/1606841020/deflate.o
 .text.flush_pending
                0x00000000       0xac build/Diplomamunka/production/_ext/1606841020/deflate.o
 .text.deflate_slow
                0x00000000      0x5ac build/Diplomamunka/production/_ext/1606841020/deflate.o
 .text.deflate_fast
                0x00000000      0x474 build/Diplomamunka/production/_ext/1606841020/deflate.o
 .text.deflate_stored
                0x00000000      0x214 build/Diplomamunka/production/_ext/1606841020/deflate.o
 .text.deflateSetDictionary
                0x00000000      0x26c build/Diplomamunka/production/_ext/1606841020/deflate.o
 .text.deflateResetKeep
                0x00000000       0xf0 build/Diplomamunka/production/_ext/1606841020/deflate.o
 .text.deflateReset
                0x00000000       0xe0 build/Diplomamunka/production/_ext/1606841020/deflate.o
 .text.deflateSetHeader
                0x00000000       0x44 build/Diplomamunka/production/_ext/1606841020/deflate.o
 .text.deflatePending
                0x00000000       0x58 build/Diplomamunka/production/_ext/1606841020/deflate.o
 .text.deflatePrime
                0x00000000       0xdc build/Diplomamunka/production/_ext/1606841020/deflate.o
 .text.deflateTune
                0x00000000       0x40 build/Diplomamunka/production/_ext/1606841020/deflate.o
 .text.deflateBound
                0x00000000      0x108 build/Diplomamunka/production/_ext/1606841020/deflate.o
 .text.deflate  0x00000000     0x1174 build/Diplomamunka/production/_ext/1606841020/deflate.o
 .text.deflateParams
                0x00000000      0x140 build/Diplomamunka/production/_ext/1606841020/deflate.o
 .text.deflateEnd
                0x00000000      0x10c build/Diplomamunka/production/_ext/1606841020/deflate.o
 .text.deflateInit2_
                0x00000000      0x2d0 build/Diplomamunka/production/_ext/1606841020/deflate.o
 .text.deflateInit_
                0x00000000       0x34 build/Diplomamunka/production/_ext/1606841020/deflate.o
 .text.deflateCopy
                0x00000000      0x2a4 build/Diplomamunka/production/_ext/1606841020/deflate.o
 .rodata        0x00000000       0xbc build/Diplomamunka/production/_ext/1606841020/deflate.o
 .text          0x00000000        0x0 build/Diplomamunka/production/_ext/1606841020/infback.o
 .data          0x00000000        0x0 build/Diplomamunka/production/_ext/1606841020/infback.o
 .bss           0x00000000        0x0 build/Diplomamunka/production/_ext/1606841020/infback.o
 .reginfo       0x00000000       0x18 build/Diplomamunka/production/_ext/1606841020/infback.o
 .text.inflateBackInit_
                0x00000000      0x120 build/Diplomamunka/production/_ext/1606841020/infback.o
 .rodata        0x00000000      0x9e8 build/Diplomamunka/production/_ext/1606841020/infback.o
 .text.inflateBack
                0x00000000     0x1258 build/Diplomamunka/production/_ext/1606841020/infback.o
 .text.inflateBackEnd
                0x00000000       0x54 build/Diplomamunka/production/_ext/1606841020/infback.o
 .text          0x00000000        0x0 build/Diplomamunka/production/_ext/1606841020/inffast.o
 .data          0x00000000        0x0 build/Diplomamunka/production/_ext/1606841020/inffast.o
 .bss           0x00000000        0x0 build/Diplomamunka/production/_ext/1606841020/inffast.o
 .reginfo       0x00000000       0x18 build/Diplomamunka/production/_ext/1606841020/inffast.o
 .rodata        0x00000000       0x54 build/Diplomamunka/production/_ext/1606841020/inffast.o
 .text.inflate_fast
                0x00000000      0x5d4 build/Diplomamunka/production/_ext/1606841020/inffast.o
 .text          0x00000000        0x0 build/Diplomamunka/production/_ext/1606841020/inflate.o
 .data          0x00000000        0x0 build/Diplomamunka/production/_ext/1606841020/inflate.o
 .bss           0x00000000        0x0 build/Diplomamunka/production/_ext/1606841020/inflate.o
 .reginfo       0x00000000       0x18 build/Diplomamunka/production/_ext/1606841020/inflate.o
 .text.syncsearch
                0x00000000       0x98 build/Diplomamunka/production/_ext/1606841020/inflate.o
 .text.updatewindow
                0x00000000      0x158 build/Diplomamunka/production/_ext/1606841020/inflate.o
 .text.inflateResetKeep
                0x00000000       0x90 build/Diplomamunka/production/_ext/1606841020/inflate.o
 .text.inflateReset
                0x00000000       0x4c build/Diplomamunka/production/_ext/1606841020/inflate.o
 .text.inflateReset2
                0x00000000       0xcc build/Diplomamunka/production/_ext/1606841020/inflate.o
 .text.inflateInit2_
                0x00000000      0x10c build/Diplomamunka/production/_ext/1606841020/inflate.o
 .text.inflateInit_
                0x00000000       0x28 build/Diplomamunka/production/_ext/1606841020/inflate.o
 .text.inflatePrime
                0x00000000       0x90 build/Diplomamunka/production/_ext/1606841020/inflate.o
 .rodata        0x00000000      0xa90 build/Diplomamunka/production/_ext/1606841020/inflate.o
 .text.inflate  0x00000000     0x1b9c build/Diplomamunka/production/_ext/1606841020/inflate.o
 .text.inflateEnd
                0x00000000       0x70 build/Diplomamunka/production/_ext/1606841020/inflate.o
 .text.inflateSetDictionary
                0x00000000      0x11c build/Diplomamunka/production/_ext/1606841020/inflate.o
 .text.inflateGetHeader
                0x00000000       0x4c build/Diplomamunka/production/_ext/1606841020/inflate.o
 .text.inflateSync
                0x00000000      0x154 build/Diplomamunka/production/_ext/1606841020/inflate.o
 .text.inflateSyncPoint
                0x00000000       0x40 build/Diplomamunka/production/_ext/1606841020/inflate.o
 .text.inflateCopy
                0x00000000      0x284 build/Diplomamunka/production/_ext/1606841020/inflate.o
 .text.inflateUndermine
                0x00000000       0x30 build/Diplomamunka/production/_ext/1606841020/inflate.o
 .text.inflateMark
                0x00000000       0x60 build/Diplomamunka/production/_ext/1606841020/inflate.o
 .text          0x00000000        0x0 build/Diplomamunka/production/_ext/1606841020/inftrees.o
 .data          0x00000000        0x0 build/Diplomamunka/production/_ext/1606841020/inftrees.o
 .bss           0x00000000        0x0 build/Diplomamunka/production/_ext/1606841020/inftrees.o
 .reginfo       0x00000000       0x18 build/Diplomamunka/production/_ext/1606841020/inftrees.o
 .text.inflate_table
                0x00000000      0x5a4 build/Diplomamunka/production/_ext/1606841020/inftrees.o
 .rodata        0x00000000      0x130 build/Diplomamunka/production/_ext/1606841020/inftrees.o
 .text          0x00000000        0x0 build/Diplomamunka/production/_ext/1606841020/trees.o
 .data          0x00000000       0x3c build/Diplomamunka/production/_ext/1606841020/trees.o
 .bss           0x00000000        0x0 build/Diplomamunka/production/_ext/1606841020/trees.o
 .reginfo       0x00000000       0x18 build/Diplomamunka/production/_ext/1606841020/trees.o
 .text.init_block
                0x00000000       0x64 build/Diplomamunka/production/_ext/1606841020/trees.o
 .text.pqdownheap
                0x00000000      0x12c build/Diplomamunka/production/_ext/1606841020/trees.o
 .text.scan_tree
                0x00000000      0x130 build/Diplomamunka/production/_ext/1606841020/trees.o
 .text.send_tree
                0x00000000      0x610 build/Diplomamunka/production/_ext/1606841020/trees.o
 .text.compress_block
                0x00000000      0x4f0 build/Diplomamunka/production/_ext/1606841020/trees.o
 .text.build_tree
                0x00000000      0x55c build/Diplomamunka/production/_ext/1606841020/trees.o
 .text.bi_flush
                0x00000000       0x9c build/Diplomamunka/production/_ext/1606841020/trees.o
 .text.bi_windup
                0x00000000       0x80 build/Diplomamunka/production/_ext/1606841020/trees.o
 .text._tr_init
                0x00000000       0x5c build/Diplomamunka/production/_ext/1606841020/trees.o
 .text._tr_stored_block
                0x00000000      0x17c build/Diplomamunka/production/_ext/1606841020/trees.o
 .text._tr_flush_bits
                0x00000000       0x1c build/Diplomamunka/production/_ext/1606841020/trees.o
 .text._tr_align
                0x00000000      0x114 build/Diplomamunka/production/_ext/1606841020/trees.o
 .text._tr_flush_block
                0x00000000      0x684 build/Diplomamunka/production/_ext/1606841020/trees.o
 .text._tr_tally
                0x00000000       0xdc build/Diplomamunka/production/_ext/1606841020/trees.o
 .rodata        0x00000000      0xa30 build/Diplomamunka/production/_ext/1606841020/trees.o
 .text          0x00000000        0x0 build/Diplomamunka/production/_ext/1606841020/uncompr.o
 .data          0x00000000        0x0 build/Diplomamunka/production/_ext/1606841020/uncompr.o
 .bss           0x00000000        0x0 build/Diplomamunka/production/_ext/1606841020/uncompr.o
 .reginfo       0x00000000       0x18 build/Diplomamunka/production/_ext/1606841020/uncompr.o
 .rodata        0x00000000        0x8 build/Diplomamunka/production/_ext/1606841020/uncompr.o
 .text.uncompress
                0x00000000       0xc4 build/Diplomamunka/production/_ext/1606841020/uncompr.o
 .text          0x00000000        0x0 build/Diplomamunka/production/_ext/1606841020/zutil.o
 .data          0x00000000        0x0 build/Diplomamunka/production/_ext/1606841020/zutil.o
 .bss           0x00000000        0x0 build/Diplomamunka/production/_ext/1606841020/zutil.o
 .reginfo       0x00000000       0x18 build/Diplomamunka/production/_ext/1606841020/zutil.o
 .rodata        0x00000000       0xb4 build/Diplomamunka/production/_ext/1606841020/zutil.o
 .text.zlibVersion
                0x00000000        0xc build/Diplomamunka/production/_ext/1606841020/zutil.o
 .text.zlibCompileFlags
                0x00000000        0x8 build/Diplomamunka/production/_ext/1606841020/zutil.o
 .text.zError   0x00000000       0x20 build/Diplomamunka/production/_ext/1606841020/zutil.o
 .text.zcalloc  0x00000000       0x1c build/Diplomamunka/production/_ext/1606841020/zutil.o
 .text.zcfree   0x00000000       0x1c build/Diplomamunka/production/_ext/1606841020/zutil.o
 .text          0x00000000        0x0 build/Diplomamunka/production/_ext/1886890887/ecc.o
 .data          0x00000000        0x0 build/Diplomamunka/production/_ext/1886890887/ecc.o
 .bss           0x00000000        0x0 build/Diplomamunka/production/_ext/1886890887/ecc.o
 .reginfo       0x00000000       0x18 build/Diplomamunka/production/_ext/1886890887/ecc.o
 .text          0x00000000        0x0 build/Diplomamunka/production/_ext/1886890887/ssl-dummy.o
 .data          0x00000000        0x0 build/Diplomamunka/production/_ext/1886890887/ssl-dummy.o
 .bss           0x00000000        0x0 build/Diplomamunka/production/_ext/1886890887/ssl-dummy.o
 .reginfo       0x00000000       0x18 build/Diplomamunka/production/_ext/1886890887/ssl-dummy.o
 .text.GetCA    0x00000000        0x8 build/Diplomamunka/production/_ext/1886890887/ssl-dummy.o
 .text.wolfSSL_dtls
                0x00000000        0x8 build/Diplomamunka/production/_ext/1886890887/ssl-dummy.o
 .text.wolfSSL_get_using_nonblock
                0x00000000        0x8 build/Diplomamunka/production/_ext/1886890887/ssl-dummy.o
 .text.GetCAByName
                0x00000000        0x8 build/Diplomamunka/production/_ext/1886890887/ssl-dummy.o
 .text          0x00000000        0x0 build/Diplomamunka/production/_ext/1886890887/arc4.o
 .data          0x00000000        0x0 build/Diplomamunka/production/_ext/1886890887/arc4.o
 .bss           0x00000000        0x0 build/Diplomamunka/production/_ext/1886890887/arc4.o
 .reginfo       0x00000000       0x18 build/Diplomamunka/production/_ext/1886890887/arc4.o
 .text.wc_Arc4SetKey
                0x00000000       0x7c build/Diplomamunka/production/_ext/1886890887/arc4.o
 .text.wc_Arc4Process
                0x00000000       0x70 build/Diplomamunka/production/_ext/1886890887/arc4.o
 .text          0x00000000        0x0 build/Diplomamunka/production/_ext/1886890887/pwdbased.o
 .data          0x00000000        0x0 build/Diplomamunka/production/_ext/1886890887/pwdbased.o
 .bss           0x00000000        0x0 build/Diplomamunka/production/_ext/1886890887/pwdbased.o
 .reginfo       0x00000000       0x18 build/Diplomamunka/production/_ext/1886890887/pwdbased.o
 .text.wc_PBKDF1
                0x00000000      0x198 build/Diplomamunka/production/_ext/1886890887/pwdbased.o
 .text.GetDigestSize
                0x00000000       0x34 build/Diplomamunka/production/_ext/1886890887/pwdbased.o
 .text.wc_PBKDF2
                0x00000000      0x240 build/Diplomamunka/production/_ext/1886890887/pwdbased.o
 .text.GetPKCS12HashSizes
                0x00000000       0x88 build/Diplomamunka/production/_ext/1886890887/pwdbased.o
 .text.DoPKCS12Hash
                0x00000000      0x1d0 build/Diplomamunka/production/_ext/1886890887/pwdbased.o
 .text.wc_PKCS12_PBKDF
                0x00000000      0x464 build/Diplomamunka/production/_ext/1886890887/pwdbased.o
 .text          0x00000000        0x0 build/Diplomamunka/production/_ext/1886890887/tfm.o
 .data          0x00000000        0x0 build/Diplomamunka/production/_ext/1886890887/tfm.o
 .bss           0x00000000        0x0 build/Diplomamunka/production/_ext/1886890887/tfm.o
 .reginfo       0x00000000       0x18 build/Diplomamunka/production/_ext/1886890887/tfm.o
 .text.CheckRunTimeSettings
                0x00000000        0x8 build/Diplomamunka/production/_ext/1886890887/tfm.o
 .text.CheckRunTimeFastMath
                0x00000000        0x8 build/Diplomamunka/production/_ext/1886890887/tfm.o
 .text.s_fp_add
                0x00000000      0x144 build/Diplomamunka/production/_ext/1886890887/tfm.o
 .text.s_fp_sub
                0x00000000      0x164 build/Diplomamunka/production/_ext/1886890887/tfm.o
 .text.fp_mul_2
                0x00000000       0xb8 build/Diplomamunka/production/_ext/1886890887/tfm.o
 .text.fp_mul_d
                0x00000000      0x138 build/Diplomamunka/production/_ext/1886890887/tfm.o
 .text.fp_mul_comba
                0x00000000      0x250 build/Diplomamunka/production/_ext/1886890887/tfm.o
 .text.fp_mul   0x00000000       0x5c build/Diplomamunka/production/_ext/1886890887/tfm.o
 .text.fp_div_2
                0x00000000       0xf0 build/Diplomamunka/production/_ext/1886890887/tfm.o
 .text.fp_mod_2d
                0x00000000      0x194 build/Diplomamunka/production/_ext/1886890887/tfm.o
 .text.fp_2expt
                0x00000000       0x74 build/Diplomamunka/production/_ext/1886890887/tfm.o
 .text.fp_sqr_comba
                0x00000000      0x2b8 build/Diplomamunka/production/_ext/1886890887/tfm.o
 .text.fp_sqr   0x00000000       0x40 build/Diplomamunka/production/_ext/1886890887/tfm.o
 .text.fp_cmp_d
                0x00000000       0x54 build/Diplomamunka/production/_ext/1886890887/tfm.o
 .text.fp_cmp_mag
                0x00000000       0xd0 build/Diplomamunka/production/_ext/1886890887/tfm.o
 .text.fp_add   0x00000000       0xa4 build/Diplomamunka/production/_ext/1886890887/tfm.o
 .text.fp_sub   0x00000000       0xa0 build/Diplomamunka/production/_ext/1886890887/tfm.o
 .text.fp_cmp   0x00000000       0x78 build/Diplomamunka/production/_ext/1886890887/tfm.o
 .text.fp_montgomery_setup
                0x00000000       0x5c build/Diplomamunka/production/_ext/1886890887/tfm.o
 .text.fp_montgomery_reduce
                0x00000000      0x224 build/Diplomamunka/production/_ext/1886890887/tfm.o
 .text.fp_read_unsigned_bin
                0x00000000       0xf8 build/Diplomamunka/production/_ext/1886890887/tfm.o
 .text.fp_set   0x00000000       0x44 build/Diplomamunka/production/_ext/1886890887/tfm.o
 .text.fp_is_bit_set
                0x00000000       0x3c build/Diplomamunka/production/_ext/1886890887/tfm.o
 .text.fp_set_bit
                0x00000000       0x48 build/Diplomamunka/production/_ext/1886890887/tfm.o
 .text.fp_count_bits
                0x00000000       0x48 build/Diplomamunka/production/_ext/1886890887/tfm.o
 .text.fp_montgomery_calc_normalization
                0x00000000       0xec build/Diplomamunka/production/_ext/1886890887/tfm.o
 .text.fp_unsigned_bin_size
                0x00000000       0x38 build/Diplomamunka/production/_ext/1886890887/tfm.o
 .text.fp_leading_bit
                0x00000000       0x40 build/Diplomamunka/production/_ext/1886890887/tfm.o
 .text.fp_lshd  0x00000000       0xec build/Diplomamunka/production/_ext/1886890887/tfm.o
 .text.fp_mul_2d
                0x00000000      0x1c4 build/Diplomamunka/production/_ext/1886890887/tfm.o
 .text.fp_rshb  0x00000000       0x68 build/Diplomamunka/production/_ext/1886890887/tfm.o
 .text.fp_rshd  0x00000000      0x108 build/Diplomamunka/production/_ext/1886890887/tfm.o
 .text.fp_div_2d
                0x00000000      0x294 build/Diplomamunka/production/_ext/1886890887/tfm.o
 .text.fp_div   0x00000000      0x768 build/Diplomamunka/production/_ext/1886890887/tfm.o
 .text.fp_mod   0x00000000       0xf0 build/Diplomamunka/production/_ext/1886890887/tfm.o
 .text.fp_invmod
                0x00000000      0x8fc build/Diplomamunka/production/_ext/1886890887/tfm.o
 .text.fp_mulmod
                0x00000000       0x74 build/Diplomamunka/production/_ext/1886890887/tfm.o
 .text._fp_exptmod
                0x00000000      0x284 build/Diplomamunka/production/_ext/1886890887/tfm.o
 .text.fp_exptmod
                0x00000000      0x108 build/Diplomamunka/production/_ext/1886890887/tfm.o
 .text.fp_reverse
                0x00000000       0x44 build/Diplomamunka/production/_ext/1886890887/tfm.o
 .text.fp_to_unsigned_bin
                0x00000000       0xd8 build/Diplomamunka/production/_ext/1886890887/tfm.o
 .text.fp_sub_d
                0x00000000       0x64 build/Diplomamunka/production/_ext/1886890887/tfm.o
 .text.mp_init  0x00000000       0x30 build/Diplomamunka/production/_ext/1886890887/tfm.o
 .text.mp_clear
                0x00000000       0x20 build/Diplomamunka/production/_ext/1886890887/tfm.o
 .text.mp_init_multi
                0x00000000       0xc8 build/Diplomamunka/production/_ext/1886890887/tfm.o
 .text.mp_add   0x00000000       0x20 build/Diplomamunka/production/_ext/1886890887/tfm.o
 .text.mp_sub   0x00000000       0x20 build/Diplomamunka/production/_ext/1886890887/tfm.o
 .text.mp_mul   0x00000000       0x20 build/Diplomamunka/production/_ext/1886890887/tfm.o
 .text.mp_mulmod
                0x00000000       0x1c build/Diplomamunka/production/_ext/1886890887/tfm.o
 .text.mp_mod   0x00000000       0x1c build/Diplomamunka/production/_ext/1886890887/tfm.o
 .text.mp_invmod
                0x00000000       0x1c build/Diplomamunka/production/_ext/1886890887/tfm.o
 .text.mp_exptmod
                0x00000000       0x1c build/Diplomamunka/production/_ext/1886890887/tfm.o
 .text.mp_cmp   0x00000000       0x1c build/Diplomamunka/production/_ext/1886890887/tfm.o
 .text.mp_cmp_d
                0x00000000       0x1c build/Diplomamunka/production/_ext/1886890887/tfm.o
 .text.mp_unsigned_bin_size
                0x00000000       0x1c build/Diplomamunka/production/_ext/1886890887/tfm.o
 .text.mp_to_unsigned_bin
                0x00000000       0x20 build/Diplomamunka/production/_ext/1886890887/tfm.o
 .text.mp_read_unsigned_bin
                0x00000000       0x20 build/Diplomamunka/production/_ext/1886890887/tfm.o
 .text.mp_sub_d
                0x00000000       0x20 build/Diplomamunka/production/_ext/1886890887/tfm.o
 .text.mp_mul_2d
                0x00000000       0x20 build/Diplomamunka/production/_ext/1886890887/tfm.o
 .text.mp_div_2d
                0x00000000       0x20 build/Diplomamunka/production/_ext/1886890887/tfm.o
 .text.mp_copy  0x00000000       0x84 build/Diplomamunka/production/_ext/1886890887/tfm.o
 .text.mp_isodd
                0x00000000       0x20 build/Diplomamunka/production/_ext/1886890887/tfm.o
 .text.mp_iszero
                0x00000000        0xc build/Diplomamunka/production/_ext/1886890887/tfm.o
 .text.mp_count_bits
                0x00000000       0x1c build/Diplomamunka/production/_ext/1886890887/tfm.o
 .text.mp_leading_bit
                0x00000000       0x1c build/Diplomamunka/production/_ext/1886890887/tfm.o
 .text.mp_rshb  0x00000000       0x1c build/Diplomamunka/production/_ext/1886890887/tfm.o
 .text.mp_set_int
                0x00000000       0x20 build/Diplomamunka/production/_ext/1886890887/tfm.o
 .text.mp_is_bit_set
                0x00000000       0x1c build/Diplomamunka/production/_ext/1886890887/tfm.o
 .text.mp_set_bit
                0x00000000       0x1c build/Diplomamunka/production/_ext/1886890887/tfm.o
 .text.fp_add_d
                0x00000000       0x64 build/Diplomamunka/production/_ext/1886890887/tfm.o
 .text.mp_add_d
                0x00000000       0x20 build/Diplomamunka/production/_ext/1886890887/tfm.o
 .text          0x00000000        0x0 build/Diplomamunka/production/_ext/1886890887/asn.o
 .data          0x00000000        0x0 build/Diplomamunka/production/_ext/1886890887/asn.o
 .bss           0x00000000        0x0 build/Diplomamunka/production/_ext/1886890887/asn.o
 .reginfo       0x00000000       0x18 build/Diplomamunka/production/_ext/1886890887/asn.o
 .text.OidFromId
                0x00000000      0x660 build/Diplomamunka/production/_ext/1886890887/asn.o
 .text.DateGreaterThan
                0x00000000       0xfc build/Diplomamunka/production/_ext/1886890887/asn.o
 .text.MatchBaseName
                0x00000000      0x1e8 build/Diplomamunka/production/_ext/1886890887/asn.o
 .text.GetLength
                0x00000000       0x9c build/Diplomamunka/production/_ext/1886890887/asn.o
 .text.GetSequence
                0x00000000       0x80 build/Diplomamunka/production/_ext/1886890887/asn.o
 .text.GetSet   0x00000000       0x80 build/Diplomamunka/production/_ext/1886890887/asn.o
 .text.GetName  0x00000000      0x664 build/Diplomamunka/production/_ext/1886890887/asn.o
 .text.GetMyVersion
                0x00000000       0x58 build/Diplomamunka/production/_ext/1886890887/asn.o
 .text.GetInt   0x00000000       0xe8 build/Diplomamunka/production/_ext/1886890887/asn.o
 .text.GetCertHeader
                0x00000000      0x134 build/Diplomamunka/production/_ext/1886890887/asn.o
 .text.GetObjectId
                0x00000000      0x154 build/Diplomamunka/production/_ext/1886890887/asn.o
 .text.GetAlgoId
                0x00000000       0xd8 build/Diplomamunka/production/_ext/1886890887/asn.o
 .text.wc_RsaPrivateKeyDecode
                0x00000000      0x180 build/Diplomamunka/production/_ext/1886890887/asn.o
 .text.ToTraditional
                0x00000000      0x138 build/Diplomamunka/production/_ext/1886890887/asn.o
 .text.ToTraditionalEnc
                0x00000000      0x6b8 build/Diplomamunka/production/_ext/1886890887/asn.o
 .text.wc_RsaPublicKeyDecode
                0x00000000      0x1d4 build/Diplomamunka/production/_ext/1886890887/asn.o
 .text.wc_RsaPublicKeyDecodeRaw
                0x00000000       0xfc build/Diplomamunka/production/_ext/1886890887/asn.o
 .text.wc_DhKeyDecode
                0x00000000       0x9c build/Diplomamunka/production/_ext/1886890887/asn.o
 .text.wc_DhParamsLoad
                0x00000000      0x18c build/Diplomamunka/production/_ext/1886890887/asn.o
 .text.wc_DsaPublicKeyDecode
                0x00000000       0xe0 build/Diplomamunka/production/_ext/1886890887/asn.o
 .text.wc_DsaPrivateKeyDecode
                0x00000000      0x120 build/Diplomamunka/production/_ext/1886890887/asn.o
 .text.InitDecodedCert
                0x00000000       0xf4 build/Diplomamunka/production/_ext/1886890887/asn.o
 .text.FreeAltNames
                0x00000000       0x58 build/Diplomamunka/production/_ext/1886890887/asn.o
 .text.FreeNameSubtrees
                0x00000000       0x58 build/Diplomamunka/production/_ext/1886890887/asn.o
 .text.FreeDecodedCert
                0x00000000       0xc0 build/Diplomamunka/production/_ext/1886890887/asn.o
 .text.ValidateDate
                0x00000000      0x2e4 build/Diplomamunka/production/_ext/1886890887/asn.o
 .text.GetDate  0x00000000      0x148 build/Diplomamunka/production/_ext/1886890887/asn.o
 .text.DecodeToKey
                0x00000000      0x250 build/Diplomamunka/production/_ext/1886890887/asn.o
 .text.SetLength
                0x00000000       0x9c build/Diplomamunka/production/_ext/1886890887/asn.o
 .text.SetSequence
                0x00000000       0x28 build/Diplomamunka/production/_ext/1886890887/asn.o
 .text.wc_DsaKeyToDer
                0x00000000      0x2dc build/Diplomamunka/production/_ext/1886890887/asn.o
 .text.SetOctetString
                0x00000000       0x28 build/Diplomamunka/production/_ext/1886890887/asn.o
 .text.SetSet   0x00000000       0x28 build/Diplomamunka/production/_ext/1886890887/asn.o
 .text.SetImplicit
                0x00000000       0x44 build/Diplomamunka/production/_ext/1886890887/asn.o
 .text.SetExplicit
                0x00000000       0x30 build/Diplomamunka/production/_ext/1886890887/asn.o
 .text.SetAlgoID
                0x00000000      0x120 build/Diplomamunka/production/_ext/1886890887/asn.o
 .text.wc_EncodeSignature
                0x00000000       0xc4 build/Diplomamunka/production/_ext/1886890887/asn.o
 .text.ConfirmSignature
                0x00000000      0x1a0 build/Diplomamunka/production/_ext/1886890887/asn.o
 .text.wc_GetCTC_HashOID
                0x00000000       0x34 build/Diplomamunka/production/_ext/1886890887/asn.o
 .text.ParseCertRelative
                0x00000000     0x1314 build/Diplomamunka/production/_ext/1886890887/asn.o
 .text.ParseCert
                0x00000000       0xf0 build/Diplomamunka/production/_ext/1886890887/asn.o
 .text.MakeSigner
                0x00000000       0x44 build/Diplomamunka/production/_ext/1886890887/asn.o
 .text.FreeSigner
                0x00000000       0x88 build/Diplomamunka/production/_ext/1886890887/asn.o
 .text.FreeSignerTable
                0x00000000       0x88 build/Diplomamunka/production/_ext/1886890887/asn.o
 .text.SetMyVersion
                0x00000000       0x4c build/Diplomamunka/production/_ext/1886890887/asn.o
 .text.SetSerialNumber
                0x00000000       0x98 build/Diplomamunka/production/_ext/1886890887/asn.o
 .text.GetNameHash
                0x00000000       0xd0 build/Diplomamunka/production/_ext/1886890887/asn.o
 .text          0x00000000        0x0 build/Diplomamunka/production/_ext/1886890887/des3.o
 .data          0x00000000        0x0 build/Diplomamunka/production/_ext/1886890887/des3.o
 .bss           0x00000000        0x0 build/Diplomamunka/production/_ext/1886890887/des3.o
 .reginfo       0x00000000       0x18 build/Diplomamunka/production/_ext/1886890887/des3.o
 .text.DesRawProcessBlock
                0x00000000      0x1cc build/Diplomamunka/production/_ext/1886890887/des3.o
 .text.DesSetKey
                0x00000000      0x218 build/Diplomamunka/production/_ext/1886890887/des3.o
 .text.Des3ProcessBlock
                0x00000000      0x220 build/Diplomamunka/production/_ext/1886890887/des3.o
 .text.DesProcessBlock
                0x00000000      0x1f4 build/Diplomamunka/production/_ext/1886890887/des3.o
 .text.wc_Des_CbcEncrypt
                0x00000000      0x10c build/Diplomamunka/production/_ext/1886890887/des3.o
 .text.wc_Des_CbcDecrypt
                0x00000000      0x130 build/Diplomamunka/production/_ext/1886890887/des3.o
 .text.wc_Des3_CbcEncrypt
                0x00000000      0x10c build/Diplomamunka/production/_ext/1886890887/des3.o
 .text.wc_Des3_CbcDecrypt
                0x00000000      0x138 build/Diplomamunka/production/_ext/1886890887/des3.o
 .text.wc_Des_SetIV
                0x00000000       0x58 build/Diplomamunka/production/_ext/1886890887/des3.o
 .text.wc_Des_SetKey
                0x00000000       0x50 build/Diplomamunka/production/_ext/1886890887/des3.o
 .text.wc_Des3_SetIV
                0x00000000       0x5c build/Diplomamunka/production/_ext/1886890887/des3.o
 .text.wc_Des3_SetKey
                0x00000000       0xb4 build/Diplomamunka/production/_ext/1886890887/des3.o
 .rodata        0x00000000      0x898 build/Diplomamunka/production/_ext/1886890887/des3.o
 .text          0x00000000        0x0 build/Diplomamunka/production/_ext/1886890887/rsa.o
 .data          0x00000000        0x0 build/Diplomamunka/production/_ext/1886890887/rsa.o
 .bss           0x00000000        0x0 build/Diplomamunka/production/_ext/1886890887/rsa.o
 .reginfo       0x00000000       0x18 build/Diplomamunka/production/_ext/1886890887/rsa.o
 .text.RsaUnPad
                0x00000000      0x114 build/Diplomamunka/production/_ext/1886890887/rsa.o
 .text.wc_RsaFunction
                0x00000000      0x234 build/Diplomamunka/production/_ext/1886890887/rsa.o
 .text.wc_InitRsaKey
                0x00000000       0x6c build/Diplomamunka/production/_ext/1886890887/rsa.o
 .text.wc_FreeRsaKey
                0x00000000        0x8 build/Diplomamunka/production/_ext/1886890887/rsa.o
 .text.wc_RsaPublicEncrypt
                0x00000000      0x138 build/Diplomamunka/production/_ext/1886890887/rsa.o
 .text.wc_RsaPrivateDecryptInline
                0x00000000       0x60 build/Diplomamunka/production/_ext/1886890887/rsa.o
 .text.wc_RsaPrivateDecrypt
                0x00000000       0xf0 build/Diplomamunka/production/_ext/1886890887/rsa.o
 .text.wc_RsaSSL_VerifyInline
                0x00000000       0x60 build/Diplomamunka/production/_ext/1886890887/rsa.o
 .text.wc_RsaSSL_Verify
                0x00000000       0xf0 build/Diplomamunka/production/_ext/1886890887/rsa.o
 .text.wc_RsaSSL_Sign
                0x00000000       0xf4 build/Diplomamunka/production/_ext/1886890887/rsa.o
 .text.wc_RsaEncryptSize
                0x00000000       0x1c build/Diplomamunka/production/_ext/1886890887/rsa.o
 .text.wc_RsaFlattenPublicKey
                0x00000000      0x118 build/Diplomamunka/production/_ext/1886890887/rsa.o
 .text          0x00000000        0x0 build/Diplomamunka/production/_ext/1886890887/aes.o
 .data          0x00000000        0x0 build/Diplomamunka/production/_ext/1886890887/aes.o
 .bss           0x00000000        0x0 build/Diplomamunka/production/_ext/1886890887/aes.o
 .reginfo       0x00000000       0x18 build/Diplomamunka/production/_ext/1886890887/aes.o
 .text.wc_AesSetIV
                0x00000000       0x8c build/Diplomamunka/production/_ext/1886890887/aes.o
 .text.wc_AesSetKey
                0x00000000      0x768 build/Diplomamunka/production/_ext/1886890887/aes.o
 .text.wc_AesCbcEncrypt
                0x00000000      0x768 build/Diplomamunka/production/_ext/1886890887/aes.o
 .text.wc_AesCbcDecrypt
                0x00000000      0x7b8 build/Diplomamunka/production/_ext/1886890887/aes.o
 .rodata        0x00000000     0x2828 build/Diplomamunka/production/_ext/1886890887/aes.o
 .text          0x00000000        0x0 build/Diplomamunka/production/_ext/1886890887/md5.o
 .data          0x00000000        0x0 build/Diplomamunka/production/_ext/1886890887/md5.o
 .bss           0x00000000        0x0 build/Diplomamunka/production/_ext/1886890887/md5.o
 .reginfo       0x00000000       0x18 build/Diplomamunka/production/_ext/1886890887/md5.o
 .text.Transform
                0x00000000      0xa88 build/Diplomamunka/production/_ext/1886890887/md5.o
 .text.wc_InitMd5
                0x00000000       0x40 build/Diplomamunka/production/_ext/1886890887/md5.o
 .text.wc_Md5Update
                0x00000000       0xd0 build/Diplomamunka/production/_ext/1886890887/md5.o
 .text.wc_Md5Final
                0x00000000      0x168 build/Diplomamunka/production/_ext/1886890887/md5.o
 .text.wc_Md5Hash
                0x00000000       0x60 build/Diplomamunka/production/_ext/1886890887/md5.o
 .text          0x00000000        0x0 build/Diplomamunka/production/_ext/1886890887/sha.o
 .data          0x00000000        0x0 build/Diplomamunka/production/_ext/1886890887/sha.o
 .bss           0x00000000        0x0 build/Diplomamunka/production/_ext/1886890887/sha.o
 .reginfo       0x00000000       0x18 build/Diplomamunka/production/_ext/1886890887/sha.o
 .text.Transform
                0x00000000     0x1018 build/Diplomamunka/production/_ext/1886890887/sha.o
 .text.wc_InitSha
                0x00000000       0x50 build/Diplomamunka/production/_ext/1886890887/sha.o
 .text.wc_ShaUpdate
                0x00000000      0x12c build/Diplomamunka/production/_ext/1886890887/sha.o
 .text.wc_ShaFinal
                0x00000000      0x24c build/Diplomamunka/production/_ext/1886890887/sha.o
 .text          0x00000000        0x0 build/Diplomamunka/production/_ext/1886890887/sha256.o
 .data          0x00000000        0x0 build/Diplomamunka/production/_ext/1886890887/sha256.o
 .bss           0x00000000        0x0 build/Diplomamunka/production/_ext/1886890887/sha256.o
 .reginfo       0x00000000       0x18 build/Diplomamunka/production/_ext/1886890887/sha256.o
 .text.Transform
                0x00000000      0x470 build/Diplomamunka/production/_ext/1886890887/sha256.o
 .text.wc_InitSha256
                0x00000000       0x74 build/Diplomamunka/production/_ext/1886890887/sha256.o
 .text.wc_Sha256Update
                0x00000000      0x138 build/Diplomamunka/production/_ext/1886890887/sha256.o
 .text.wc_Sha256Final
                0x00000000      0x290 build/Diplomamunka/production/_ext/1886890887/sha256.o
 .rodata        0x00000000      0x100 build/Diplomamunka/production/_ext/1886890887/sha256.o
 .text          0x00000000        0x0 build/Diplomamunka/production/_ext/1886890887/sha512.o
 .data          0x00000000        0x0 build/Diplomamunka/production/_ext/1886890887/sha512.o
 .bss           0x00000000        0x0 build/Diplomamunka/production/_ext/1886890887/sha512.o
 .reginfo       0x00000000       0x18 build/Diplomamunka/production/_ext/1886890887/sha512.o
 .text          0x00000000        0x0 build/Diplomamunka/production/_ext/1886890887/hmac.o
 .data          0x00000000        0x0 build/Diplomamunka/production/_ext/1886890887/hmac.o
 .bss           0x00000000        0x0 build/Diplomamunka/production/_ext/1886890887/hmac.o
 .reginfo       0x00000000       0x18 build/Diplomamunka/production/_ext/1886890887/hmac.o
 .text.HmacKeyInnerHash
                0x00000000       0x8c build/Diplomamunka/production/_ext/1886890887/hmac.o
 .text.wc_HmacSetKey
                0x00000000      0x208 build/Diplomamunka/production/_ext/1886890887/hmac.o
 .text.wc_HmacUpdate
                0x00000000       0xb4 build/Diplomamunka/production/_ext/1886890887/hmac.o
 .text.wc_HmacFinal
                0x00000000      0x164 build/Diplomamunka/production/_ext/1886890887/hmac.o
 .text.wolfSSL_GetHmacMaxSize
                0x00000000        0x8 build/Diplomamunka/production/_ext/1886890887/hmac.o
 .text          0x00000000        0x0 build/Diplomamunka/production/_ext/1886890887/hash.o
 .data          0x00000000        0x0 build/Diplomamunka/production/_ext/1886890887/hash.o
 .bss           0x00000000        0x0 build/Diplomamunka/production/_ext/1886890887/hash.o
 .reginfo       0x00000000       0x18 build/Diplomamunka/production/_ext/1886890887/hash.o
 .text.wc_HashGetDigestSize
                0x00000000       0x38 build/Diplomamunka/production/_ext/1886890887/hash.o
 .text.wc_Md5GetHash
                0x00000000       0xc4 build/Diplomamunka/production/_ext/1886890887/hash.o
 .text.wc_Md5RestorePos
                0x00000000       0x50 build/Diplomamunka/production/_ext/1886890887/hash.o
 .text.wc_ShaGetHash
                0x00000000       0x94 build/Diplomamunka/production/_ext/1886890887/hash.o
 .text.wc_ShaRestorePos
                0x00000000       0x3c build/Diplomamunka/production/_ext/1886890887/hash.o
 .text.wc_ShaHash
                0x00000000       0x70 build/Diplomamunka/production/_ext/1886890887/hash.o
 .text.wc_Sha256GetHash
                0x00000000       0xc4 build/Diplomamunka/production/_ext/1886890887/hash.o
 .text.wc_Sha256RestorePos
                0x00000000       0x50 build/Diplomamunka/production/_ext/1886890887/hash.o
 .text.wc_Sha256Hash
                0x00000000       0x6c build/Diplomamunka/production/_ext/1886890887/hash.o
 .text.wc_Hash  0x00000000       0xb8 build/Diplomamunka/production/_ext/1886890887/hash.o
 .text          0x00000000        0x0 build/Diplomamunka/production/_ext/1886890887/compress.o
 .data          0x00000000        0x0 build/Diplomamunka/production/_ext/1886890887/compress.o
 .bss           0x00000000        0x0 build/Diplomamunka/production/_ext/1886890887/compress.o
 .reginfo       0x00000000       0x18 build/Diplomamunka/production/_ext/1886890887/compress.o
 .text          0x00000000        0x0 build/Diplomamunka/production/_ext/1886890887/random.o
 .data          0x00000000        0x0 build/Diplomamunka/production/_ext/1886890887/random.o
 .bss           0x00000000        0x0 build/Diplomamunka/production/_ext/1886890887/random.o
 .reginfo       0x00000000       0x18 build/Diplomamunka/production/_ext/1886890887/random.o
 .text.array_add
                0x00000000       0x8c build/Diplomamunka/production/_ext/1886890887/random.o
 .text.Hash_DRBG_Uninstantiate
                0x00000000       0x48 build/Diplomamunka/production/_ext/1886890887/random.o
 .text.Hash_df  0x00000000      0x244 build/Diplomamunka/production/_ext/1886890887/random.o
 .text.Hash_DRBG_Instantiate
                0x00000000       0xd4 build/Diplomamunka/production/_ext/1886890887/random.o
 .text.Hash_DRBG_Reseed
                0x00000000      0x128 build/Diplomamunka/production/_ext/1886890887/random.o
 .text.Hash_DRBG_Generate
                0x00000000      0x42c build/Diplomamunka/production/_ext/1886890887/random.o
 .text.wc_FreeRng
                0x00000000       0x68 build/Diplomamunka/production/_ext/1886890887/random.o
 .text.wc_RNG_HealthTest
                0x00000000      0x10c build/Diplomamunka/production/_ext/1886890887/random.o
 .text.wc_GenerateSeed
                0x00000000       0xcc build/Diplomamunka/production/_ext/1886890887/random.o
 .text.wc_InitRng
                0x00000000      0x16c build/Diplomamunka/production/_ext/1886890887/random.o
 .text.wc_RNG_GenerateBlock
                0x00000000      0x1b0 build/Diplomamunka/production/_ext/1886890887/random.o
 .text.wc_RNG_GenerateByte
                0x00000000       0x1c build/Diplomamunka/production/_ext/1886890887/random.o
 .rodata        0x00000000      0x180 build/Diplomamunka/production/_ext/1886890887/random.o
 .text          0x00000000        0x0 build/Diplomamunka/production/_ext/1886890887/crypto.o
 .data          0x00000000        0x0 build/Diplomamunka/production/_ext/1886890887/crypto.o
 .bss           0x00000000        0x0 build/Diplomamunka/production/_ext/1886890887/crypto.o
 .reginfo       0x00000000       0x18 build/Diplomamunka/production/_ext/1886890887/crypto.o
 .text.CRYPT_MD5_Initialize
                0x00000000       0x34 build/Diplomamunka/production/_ext/1886890887/crypto.o
 .text.CRYPT_MD5_DataSizeSet
                0x00000000        0xc build/Diplomamunka/production/_ext/1886890887/crypto.o
 .text.CRYPT_MD5_DataAdd
                0x00000000       0x44 build/Diplomamunka/production/_ext/1886890887/crypto.o
 .text.CRYPT_MD5_Finalize
                0x00000000       0x44 build/Diplomamunka/production/_ext/1886890887/crypto.o
 .text.CRYPT_SHA_Initialize
                0x00000000       0x30 build/Diplomamunka/production/_ext/1886890887/crypto.o
 .text.CRYPT_SHA_DataSizeSet
                0x00000000        0xc build/Diplomamunka/production/_ext/1886890887/crypto.o
 .text.CRYPT_SHA_DataAdd
                0x00000000       0x40 build/Diplomamunka/production/_ext/1886890887/crypto.o
 .text.CRYPT_SHA_Finalize
                0x00000000       0x40 build/Diplomamunka/production/_ext/1886890887/crypto.o
 .text.CRYPT_SHA256_Initialize
                0x00000000       0x30 build/Diplomamunka/production/_ext/1886890887/crypto.o
 .text.CRYPT_SHA256_DataSizeSet
                0x00000000        0xc build/Diplomamunka/production/_ext/1886890887/crypto.o
 .text.CRYPT_SHA256_DataAdd
                0x00000000       0x40 build/Diplomamunka/production/_ext/1886890887/crypto.o
 .text.CRYPT_SHA256_Finalize
                0x00000000       0x40 build/Diplomamunka/production/_ext/1886890887/crypto.o
 .text.CRYPT_HMAC_SetKey
                0x00000000       0x54 build/Diplomamunka/production/_ext/1886890887/crypto.o
 .text.CRYPT_HMAC_DataAdd
                0x00000000       0x40 build/Diplomamunka/production/_ext/1886890887/crypto.o
 .text.CRYPT_HMAC_Finalize
                0x00000000       0x40 build/Diplomamunka/production/_ext/1886890887/crypto.o
 .text.CRYPT_RNG_Initialize
                0x00000000       0x30 build/Diplomamunka/production/_ext/1886890887/crypto.o
 .text.CRYPT_RNG_Get
                0x00000000       0x40 build/Diplomamunka/production/_ext/1886890887/crypto.o
 .text.CRYPT_RNG_BlockGenerate
                0x00000000       0x40 build/Diplomamunka/production/_ext/1886890887/crypto.o
 .text.CRYPT_TDES_KeySet
                0x00000000       0x40 build/Diplomamunka/production/_ext/1886890887/crypto.o
 .text.CRYPT_TDES_IvSet
                0x00000000       0x40 build/Diplomamunka/production/_ext/1886890887/crypto.o
 .text.CRYPT_TDES_CBC_Encrypt
                0x00000000       0x50 build/Diplomamunka/production/_ext/1886890887/crypto.o
 .text.CRYPT_TDES_CBC_Decrypt
                0x00000000       0x50 build/Diplomamunka/production/_ext/1886890887/crypto.o
 .text.CRYPT_AES_KeySet
                0x00000000       0x44 build/Diplomamunka/production/_ext/1886890887/crypto.o
 .text.CRYPT_AES_IvSet
                0x00000000       0x40 build/Diplomamunka/production/_ext/1886890887/crypto.o
 .text.CRYPT_AES_CBC_Encrypt
                0x00000000       0x50 build/Diplomamunka/production/_ext/1886890887/crypto.o
 .text.CRYPT_AES_CBC_Decrypt
                0x00000000       0x50 build/Diplomamunka/production/_ext/1886890887/crypto.o
 .text.CRYPT_RSA_Initialize
                0x00000000       0x54 build/Diplomamunka/production/_ext/1886890887/crypto.o
 .text.CRYPT_RSA_Free
                0x00000000       0x50 build/Diplomamunka/production/_ext/1886890887/crypto.o
 .text.CRYPT_RSA_PublicKeyDecode
                0x00000000       0x4c build/Diplomamunka/production/_ext/1886890887/crypto.o
 .text.CRYPT_RSA_PrivateKeyDecode
                0x00000000       0x4c build/Diplomamunka/production/_ext/1886890887/crypto.o
 .text.CRYPT_RSA_PublicEncrypt
                0x00000000       0x70 build/Diplomamunka/production/_ext/1886890887/crypto.o
 .text.CRYPT_RSA_PrivateDecrypt
                0x00000000       0x68 build/Diplomamunka/production/_ext/1886890887/crypto.o
 .text.CRYPT_RSA_EncryptSizeGet
                0x00000000       0x30 build/Diplomamunka/production/_ext/1886890887/crypto.o
 .text.CRYPT_ERROR_StringGet
                0x00000000       0x34 build/Diplomamunka/production/_ext/1886890887/crypto.o
 .text          0x00000000        0x0 build/Diplomamunka/production/_ext/1886890887/coding.o
 .data          0x00000000        0x0 build/Diplomamunka/production/_ext/1886890887/coding.o
 .bss           0x00000000        0x0 build/Diplomamunka/production/_ext/1886890887/coding.o
 .reginfo       0x00000000       0x18 build/Diplomamunka/production/_ext/1886890887/coding.o
 .text.CEscape  0x00000000      0x17c build/Diplomamunka/production/_ext/1886890887/coding.o
 .text.DoBase64_Encode
                0x00000000      0x428 build/Diplomamunka/production/_ext/1886890887/coding.o
 .text.Base64_Decode
                0x00000000      0x2bc build/Diplomamunka/production/_ext/1886890887/coding.o
 .text.Base64_Encode
                0x00000000       0x1c build/Diplomamunka/production/_ext/1886890887/coding.o
 .text.Base64_EncodeEsc
                0x00000000       0x20 build/Diplomamunka/production/_ext/1886890887/coding.o
 .text.Base64_Encode_NoNl
                0x00000000       0x20 build/Diplomamunka/production/_ext/1886890887/coding.o
 .rodata        0x00000000       0x90 build/Diplomamunka/production/_ext/1886890887/coding.o
 .text          0x00000000        0x0 build/Diplomamunka/production/_ext/1886890887/error.o
 .data          0x00000000        0x0 build/Diplomamunka/production/_ext/1886890887/error.o
 .bss           0x00000000        0x0 build/Diplomamunka/production/_ext/1886890887/error.o
 .reginfo       0x00000000       0x18 build/Diplomamunka/production/_ext/1886890887/error.o
 .rodata        0x00000000      0xe40 build/Diplomamunka/production/_ext/1886890887/error.o
 .text.wc_GetErrorString
                0x00000000      0x74c build/Diplomamunka/production/_ext/1886890887/error.o
 .text.wc_ErrorString
                0x00000000       0x34 build/Diplomamunka/production/_ext/1886890887/error.o
 .text          0x00000000        0x0 build/Diplomamunka/production/_ext/1886890887/integer.o
 .data          0x00000000        0x0 build/Diplomamunka/production/_ext/1886890887/integer.o
 .bss           0x00000000        0x0 build/Diplomamunka/production/_ext/1886890887/integer.o
 .reginfo       0x00000000       0x18 build/Diplomamunka/production/_ext/1886890887/integer.o
 .text          0x00000000        0x0 build/Diplomamunka/production/_ext/1886890887/logging.o
 .data          0x00000000        0x0 build/Diplomamunka/production/_ext/1886890887/logging.o
 .bss           0x00000000        0x0 build/Diplomamunka/production/_ext/1886890887/logging.o
 .reginfo       0x00000000       0x18 build/Diplomamunka/production/_ext/1886890887/logging.o
 .text.wolfSSL_SetLoggingCb
                0x00000000        0x8 build/Diplomamunka/production/_ext/1886890887/logging.o
 .text.wolfSSL_Debugging_ON
                0x00000000        0x8 build/Diplomamunka/production/_ext/1886890887/logging.o
 .text.wolfSSL_Debugging_OFF
                0x00000000        0x8 build/Diplomamunka/production/_ext/1886890887/logging.o
 .text          0x00000000        0x0 build/Diplomamunka/production/_ext/1886890887/memory.o
 .data          0x00000000        0x0 build/Diplomamunka/production/_ext/1886890887/memory.o
 .bss           0x00000000        0x0 build/Diplomamunka/production/_ext/1886890887/memory.o
 .reginfo       0x00000000       0x18 build/Diplomamunka/production/_ext/1886890887/memory.o
 .text.wolfSSL_SetAllocators
                0x00000000       0x38 build/Diplomamunka/production/_ext/1886890887/memory.o
 .text.wolfSSL_Malloc
                0x00000000       0x38 build/Diplomamunka/production/_ext/1886890887/memory.o
 .text.wolfSSL_Free
                0x00000000       0x38 build/Diplomamunka/production/_ext/1886890887/memory.o
 .text.wolfSSL_Realloc
                0x00000000       0x38 build/Diplomamunka/production/_ext/1886890887/memory.o
 .text          0x00000000        0x0 build/Diplomamunka/production/_ext/1886890887/misc.o
 .data          0x00000000        0x0 build/Diplomamunka/production/_ext/1886890887/misc.o
 .bss           0x00000000        0x0 build/Diplomamunka/production/_ext/1886890887/misc.o
 .reginfo       0x00000000       0x18 build/Diplomamunka/production/_ext/1886890887/misc.o
 .text          0x00000000        0x0 build/Diplomamunka/production/_ext/1886890887/port.o
 .data          0x00000000        0x0 build/Diplomamunka/production/_ext/1886890887/port.o
 .bss           0x00000000        0x0 build/Diplomamunka/production/_ext/1886890887/port.o
 .reginfo       0x00000000       0x18 build/Diplomamunka/production/_ext/1886890887/port.o
 .text.wolfCrypt_Init
                0x00000000        0x8 build/Diplomamunka/production/_ext/1886890887/port.o
 .text.InitMutex
                0x00000000        0x8 build/Diplomamunka/production/_ext/1886890887/port.o
 .text.FreeMutex
                0x00000000        0x8 build/Diplomamunka/production/_ext/1886890887/port.o
 .text.LockMutex
                0x00000000        0x8 build/Diplomamunka/production/_ext/1886890887/port.o
 .text.UnLockMutex
                0x00000000        0x8 build/Diplomamunka/production/_ext/1886890887/port.o
 .text          0x00000000        0x0 build/Diplomamunka/production/_ext/1908841681/drv_ethmac.o
 .bss           0x00000000        0x0 build/Diplomamunka/production/_ext/1908841681/drv_ethmac.o
 .reginfo       0x00000000       0x18 build/Diplomamunka/production/_ext/1908841681/drv_ethmac.o
 .text          0x00000000        0x0 build/Diplomamunka/production/_ext/1908841681/drv_ethmac_lib.o
 .data          0x00000000        0x0 build/Diplomamunka/production/_ext/1908841681/drv_ethmac_lib.o
 .bss           0x00000000        0x0 build/Diplomamunka/production/_ext/1908841681/drv_ethmac_lib.o
 .reginfo       0x00000000       0x18 build/Diplomamunka/production/_ext/1908841681/drv_ethmac_lib.o
 .text.DRV_ETHMAC_LibDescriptorsPoolRemove
                0x00000000       0xc4 build/Diplomamunka/production/_ext/1908841681/drv_ethmac_lib.o
 .text.DRV_ETHMAC_LibTxSendBuffer
                0x00000000       0xc8 build/Diplomamunka/production/_ext/1908841681/drv_ethmac_lib.o
 .text.DRV_ETHMAC_LibTxGetBufferStatus
                0x00000000       0x84 build/Diplomamunka/production/_ext/1908841681/drv_ethmac_lib.o
 .text.DRV_ETHMAC_LibRxGetBuffer
                0x00000000       0x3c build/Diplomamunka/production/_ext/1908841681/drv_ethmac_lib.o
 .text          0x00000000        0x0 build/Diplomamunka/production/_ext/732687875/drv_ethphy.o
 .data          0x00000000        0x0 build/Diplomamunka/production/_ext/732687875/drv_ethphy.o
 .bss           0x00000000        0x0 build/Diplomamunka/production/_ext/732687875/drv_ethphy.o
 .reginfo       0x00000000       0x18 build/Diplomamunka/production/_ext/732687875/drv_ethphy.o
 .text          0x00000000        0x0 build/Diplomamunka/production/_ext/732687875/drv_extphy_dp83848.o
 .data          0x00000000        0x0 build/Diplomamunka/production/_ext/732687875/drv_extphy_dp83848.o
 .bss           0x00000000        0x0 build/Diplomamunka/production/_ext/732687875/drv_extphy_dp83848.o
 .reginfo       0x00000000       0x18 build/Diplomamunka/production/_ext/732687875/drv_extphy_dp83848.o
 .text          0x00000000        0x0 build/Diplomamunka/production/_ext/185269848/drv_tmr.o
 .data          0x00000000        0x0 build/Diplomamunka/production/_ext/185269848/drv_tmr.o
 .reginfo       0x00000000       0x18 build/Diplomamunka/production/_ext/185269848/drv_tmr.o
 .text.DRV_TMR_Deinitialize
                0x00000000       0x54 build/Diplomamunka/production/_ext/185269848/drv_tmr.o
 .text.DRV_TMR_Status
                0x00000000       0x28 build/Diplomamunka/production/_ext/185269848/drv_tmr.o
 .text.DRV_TMR_Tasks_ISR
                0x00000000       0x1c build/Diplomamunka/production/_ext/185269848/drv_tmr.o
 .text.DRV_TMR_ClientStatus
                0x00000000       0x44 build/Diplomamunka/production/_ext/185269848/drv_tmr.o
 .text.DRV_TMR_CounterValueSet
                0x00000000      0x11c build/Diplomamunka/production/_ext/185269848/drv_tmr.o
 .text.DRV_TMR_CounterValue16BitSet
                0x00000000       0x1c build/Diplomamunka/production/_ext/185269848/drv_tmr.o
 .text.DRV_TMR_CounterValue32BitSet
                0x00000000       0x1c build/Diplomamunka/production/_ext/185269848/drv_tmr.o
 .text.DRV_TMR_CounterValue16BitGet
                0x00000000       0x20 build/Diplomamunka/production/_ext/185269848/drv_tmr.o
 .text.DRV_TMR_CounterValue32BitGet
                0x00000000       0x1c build/Diplomamunka/production/_ext/185269848/drv_tmr.o
 .text.DRV_TMR_CounterClear
                0x00000000      0x114 build/Diplomamunka/production/_ext/185269848/drv_tmr.o
 .text.DRV_TMR_Alarm16BitRegister
                0x00000000       0x28 build/Diplomamunka/production/_ext/185269848/drv_tmr.o
 .text.DRV_TMR_Alarm32BitRegister
                0x00000000       0x24 build/Diplomamunka/production/_ext/185269848/drv_tmr.o
 .text.DRV_TMR_AlarmDisable
                0x00000000       0x64 build/Diplomamunka/production/_ext/185269848/drv_tmr.o
 .text.DRV_TMR_AlarmEnable
                0x00000000       0x60 build/Diplomamunka/production/_ext/185269848/drv_tmr.o
 .text.DRV_TMR_AlarmPeriodSet
                0x00000000      0x160 build/Diplomamunka/production/_ext/185269848/drv_tmr.o
 .text.DRV_TMR_AlarmPeriod16BitSet
                0x00000000       0x1c build/Diplomamunka/production/_ext/185269848/drv_tmr.o
 .text.DRV_TMR_AlarmPeriod32BitSet
                0x00000000       0x1c build/Diplomamunka/production/_ext/185269848/drv_tmr.o
 .text.DRV_TMR_AlarmPeriod32BitGet
                0x00000000       0x1c build/Diplomamunka/production/_ext/185269848/drv_tmr.o
 .text.DRV_TMR_AlarmDeregister
                0x00000000       0x60 build/Diplomamunka/production/_ext/185269848/drv_tmr.o
 .text.DRV_TMR_Alarm16BitDeregister
                0x00000000       0x1c build/Diplomamunka/production/_ext/185269848/drv_tmr.o
 .text.DRV_TMR_Alarm32BitDeregister
                0x00000000       0x1c build/Diplomamunka/production/_ext/185269848/drv_tmr.o
 .text.DRV_TMR_Stop
                0x00000000       0x80 build/Diplomamunka/production/_ext/185269848/drv_tmr.o
 .text.DRV_TMR_AlarmHasElapsed
                0x00000000       0x3c build/Diplomamunka/production/_ext/185269848/drv_tmr.o
 .text.DRV_TMR_OperationModeGet
                0x00000000       0x3c build/Diplomamunka/production/_ext/185269848/drv_tmr.o
 .text.DRV_TMR_DividerRangeGet
                0x00000000       0x74 build/Diplomamunka/production/_ext/185269848/drv_tmr.o
 .text.DRV_TMR_GateModeSet
                0x00000000      0x12c build/Diplomamunka/production/_ext/185269848/drv_tmr.o
 .text.DRV_TMR_GateModeClear
                0x00000000      0x12c build/Diplomamunka/production/_ext/185269848/drv_tmr.o
 .text.DRV_TMR_ClockSet
                0x00000000       0xa4 build/Diplomamunka/production/_ext/185269848/drv_tmr.o
 .text.DRV_TMR_PrescalerGet
                0x00000000      0x1fc build/Diplomamunka/production/_ext/185269848/drv_tmr.o
 .text          0x00000000        0x0 build/Diplomamunka/production/_ext/1271179505/sys_devcon.o
 .data          0x00000000        0x0 build/Diplomamunka/production/_ext/1271179505/sys_devcon.o
 .bss           0x00000000        0x0 build/Diplomamunka/production/_ext/1271179505/sys_devcon.o
 .reginfo       0x00000000       0x18 build/Diplomamunka/production/_ext/1271179505/sys_devcon.o
 .text.SYS_DEVCON_Reinitialize
                0x00000000       0x10 build/Diplomamunka/production/_ext/1271179505/sys_devcon.o
 .text.SYS_DEVCON_Deinitialize
                0x00000000        0x8 build/Diplomamunka/production/_ext/1271179505/sys_devcon.o
 .text.SYS_DEVCON_Status
                0x00000000        0x8 build/Diplomamunka/production/_ext/1271179505/sys_devcon.o
 .text.SYS_DEVCON_JTAGDisable
                0x00000000       0x1c build/Diplomamunka/production/_ext/1271179505/sys_devcon.o
 .text.SYS_DEVCON_TraceEnable
                0x00000000       0x18 build/Diplomamunka/production/_ext/1271179505/sys_devcon.o
 .text.SYS_DEVCON_TraceDisable
                0x00000000       0x1c build/Diplomamunka/production/_ext/1271179505/sys_devcon.o
 .text.SYS_DEVCON_PowerModeEnter
                0x00000000       0x54 build/Diplomamunka/production/_ext/1271179505/sys_devcon.o
 .text          0x00000000        0x0 build/Diplomamunka/production/_ext/1271179505/sys_devcon_pic32mx.o
 .data          0x00000000        0x0 build/Diplomamunka/production/_ext/1271179505/sys_devcon_pic32mx.o
 .bss           0x00000000        0x0 build/Diplomamunka/production/_ext/1271179505/sys_devcon_pic32mx.o
 .reginfo       0x00000000       0x18 build/Diplomamunka/production/_ext/1271179505/sys_devcon_pic32mx.o
 .text          0x00000000        0x0 build/Diplomamunka/production/_ext/122796885/sys_int_pic32.o
 .data          0x00000000        0x0 build/Diplomamunka/production/_ext/122796885/sys_int_pic32.o
 .bss           0x00000000        0x0 build/Diplomamunka/production/_ext/122796885/sys_int_pic32.o
 .reginfo       0x00000000       0x18 build/Diplomamunka/production/_ext/122796885/sys_int_pic32.o
 .text.SYS_INT_StatusGetAndDisable
                0x00000000       0x1c build/Diplomamunka/production/_ext/122796885/sys_int_pic32.o
 .text.SYS_INT_StatusRestore
                0x00000000       0x1c build/Diplomamunka/production/_ext/122796885/sys_int_pic32.o
 .text.SYS_INT_Disable
                0x00000000       0x20 build/Diplomamunka/production/_ext/122796885/sys_int_pic32.o
 .text.SYS_INT_ExternalInterruptTriggerSet
                0x00000000       0x34 build/Diplomamunka/production/_ext/122796885/sys_int_pic32.o
 .text          0x00000000        0x0 build/Diplomamunka/production/_ext/77319752/sys_ports.o
 .data          0x00000000        0x0 build/Diplomamunka/production/_ext/77319752/sys_ports.o
 .bss           0x00000000        0x0 build/Diplomamunka/production/_ext/77319752/sys_ports.o
 .reginfo       0x00000000       0x18 build/Diplomamunka/production/_ext/77319752/sys_ports.o
 .text.SYS_PORTS_Read
                0x00000000       0x38 build/Diplomamunka/production/_ext/77319752/sys_ports.o
 .text.SYS_PORTS_Write
                0x00000000       0x2c build/Diplomamunka/production/_ext/77319752/sys_ports.o
 .text.SYS_PORTS_Set
                0x00000000       0x38 build/Diplomamunka/production/_ext/77319752/sys_ports.o
 .text.SYS_PORTS_Clear
                0x00000000       0x34 build/Diplomamunka/production/_ext/77319752/sys_ports.o
 .text.SYS_PORTS_DirectionSelect
                0x00000000       0x6c build/Diplomamunka/production/_ext/77319752/sys_ports.o
 .text.SYS_PORTS_DirectionGet
                0x00000000       0x38 build/Diplomamunka/production/_ext/77319752/sys_ports.o
 .text.SYS_PORTS_Toggle
                0x00000000       0x34 build/Diplomamunka/production/_ext/77319752/sys_ports.o
 .text.SYS_PORTS_OpenDrainEnable
                0x00000000       0x34 build/Diplomamunka/production/_ext/77319752/sys_ports.o
 .text.SYS_PORTS_OpenDrainDisable
                0x00000000       0x34 build/Diplomamunka/production/_ext/77319752/sys_ports.o
 .text.SYS_PORTS_ChangeNotificationGlobalEnable
                0x00000000       0x1c build/Diplomamunka/production/_ext/77319752/sys_ports.o
 .text.SYS_PORTS_ChangeNotificationGlobalDisable
                0x00000000       0x1c build/Diplomamunka/production/_ext/77319752/sys_ports.o
 .text.SYS_PORTS_GlobalChangeNotificationDisable
                0x00000000       0x1c build/Diplomamunka/production/_ext/77319752/sys_ports.o
 .text.SYS_PORTS_ChangeNotificationEnable
                0x00000000       0x78 build/Diplomamunka/production/_ext/77319752/sys_ports.o
 .text.SYS_PORTS_ChangeNotificationDisable
                0x00000000       0x20 build/Diplomamunka/production/_ext/77319752/sys_ports.o
 .text.SYS_PORTS_ChangeNotificationInIdleModeEnable
                0x00000000       0x1c build/Diplomamunka/production/_ext/77319752/sys_ports.o
 .text.SYS_PORTS_ChangeNotificationInIdleModeDisable
                0x00000000       0x1c build/Diplomamunka/production/_ext/77319752/sys_ports.o
 .text.SYS_PORTS_ChangeNotificationPullUpEnable
                0x00000000       0x20 build/Diplomamunka/production/_ext/77319752/sys_ports.o
 .text.SYS_PORTS_ChangeNotificationPullUpDisable
                0x00000000       0x20 build/Diplomamunka/production/_ext/77319752/sys_ports.o
 .text.SYS_PORTS_PinModeSelect
                0x00000000       0x38 build/Diplomamunka/production/_ext/77319752/sys_ports.o
 .text.SYS_PORTS_PinWrite
                0x00000000       0x70 build/Diplomamunka/production/_ext/77319752/sys_ports.o
 .text.SYS_PORTS_PinRead
                0x00000000       0x44 build/Diplomamunka/production/_ext/77319752/sys_ports.o
 .text.SYS_PORTS_PinToggle
                0x00000000       0x38 build/Diplomamunka/production/_ext/77319752/sys_ports.o
 .text.SYS_PORTS_PinSet
                0x00000000       0x38 build/Diplomamunka/production/_ext/77319752/sys_ports.o
 .text.SYS_PORTS_PinClear
                0x00000000       0x38 build/Diplomamunka/production/_ext/77319752/sys_ports.o
 .text.SYS_PORTS_PinDirectionSelect
                0x00000000       0x78 build/Diplomamunka/production/_ext/77319752/sys_ports.o
 .text.SYS_PORTS_PinOpenDrainEnable
                0x00000000       0x38 build/Diplomamunka/production/_ext/77319752/sys_ports.o
 .text.SYS_PORTS_PinOpenDrainDisable
                0x00000000       0x38 build/Diplomamunka/production/_ext/77319752/sys_ports.o
 .text.SYS_PORTS_RemapInput
                0x00000000        0x8 build/Diplomamunka/production/_ext/77319752/sys_ports.o
 .text.SYS_PORTS_RemapOutput
                0x00000000        0x8 build/Diplomamunka/production/_ext/77319752/sys_ports.o
 .text          0x00000000        0x0 build/Diplomamunka/production/_ext/1283840359/sys_random.o
 .data          0x00000000        0x0 build/Diplomamunka/production/_ext/1283840359/sys_random.o
 .reginfo       0x00000000       0x18 build/Diplomamunka/production/_ext/1283840359/sys_random.o
 .text.SYS_RANDOM_Deinitialize
                0x00000000        0xc build/Diplomamunka/production/_ext/1283840359/sys_random.o
 .text.SYS_RANDOM_PseudoSeedSet
                0x00000000       0x1c build/Diplomamunka/production/_ext/1283840359/sys_random.o
 .text.SYS_RANDOM_CryptoSeedSet
                0x00000000        0x8 build/Diplomamunka/production/_ext/1283840359/sys_random.o
 .text.SYS_RANDOM_CryptoSeedSizeGet
                0x00000000       0x24 build/Diplomamunka/production/_ext/1283840359/sys_random.o
 .text.SYS_RANDOM_CryptoGet
                0x00000000       0x30 build/Diplomamunka/production/_ext/1283840359/sys_random.o
 .text.SYS_RANDOM_CryptoBlockGet
                0x00000000       0x38 build/Diplomamunka/production/_ext/1283840359/sys_random.o
 .text.SYS_RANDOM_CryptoByteGet
                0x00000000       0x2c build/Diplomamunka/production/_ext/1283840359/sys_random.o
 .text.SYS_RANDOM_CryptoEntropyAdd
                0x00000000        0x8 build/Diplomamunka/production/_ext/1283840359/sys_random.o
 COMMON         0x00000000      0x108 build/Diplomamunka/production/_ext/1283840359/sys_random.o
 .text          0x00000000        0x0 build/Diplomamunka/production/_ext/1264926591/sys_tmr.o
 .data          0x00000000        0x0 build/Diplomamunka/production/_ext/1264926591/sys_tmr.o
 .reginfo       0x00000000       0x18 build/Diplomamunka/production/_ext/1264926591/sys_tmr.o
 .text.SYS_TMR_Deinitialize
                0x00000000       0xd0 build/Diplomamunka/production/_ext/1264926591/sys_tmr.o
 .text.SYS_TMR_Status
                0x00000000       0x20 build/Diplomamunka/production/_ext/1264926591/sys_tmr.o
 .text.SYS_TMR_ObjectCreate
                0x00000000       0x1c build/Diplomamunka/production/_ext/1264926591/sys_tmr.o
 .text.SYS_TMR_ObjectReload
                0x00000000       0xb4 build/Diplomamunka/production/_ext/1264926591/sys_tmr.o
 .text.SYS_TMR_ObjectCountGet
                0x00000000       0xe4 build/Diplomamunka/production/_ext/1264926591/sys_tmr.o
 .text.SYS_TMR_CallbackSingle
                0x00000000       0x1c build/Diplomamunka/production/_ext/1264926591/sys_tmr.o
 .text.SYS_TMR_DelayMS
                0x00000000       0x24 build/Diplomamunka/production/_ext/1264926591/sys_tmr.o
 .text.SYS_TMR_DelayStatusGet
                0x00000000       0x20 build/Diplomamunka/production/_ext/1264926591/sys_tmr.o
 .text          0x00000000        0x0 build/Diplomamunka/production/_ext/1136935090/helpers.o
 .data          0x00000000        0x0 build/Diplomamunka/production/_ext/1136935090/helpers.o
 .bss           0x00000000        0x0 build/Diplomamunka/production/_ext/1136935090/helpers.o
 .reginfo       0x00000000       0x18 build/Diplomamunka/production/_ext/1136935090/helpers.o
 .text.uitoa    0x00000000       0x94 build/Diplomamunka/production/_ext/1136935090/helpers.o
 .text.btohexa_high
                0x00000000       0x1c build/Diplomamunka/production/_ext/1136935090/helpers.o
 .text.btohexa_low
                0x00000000       0x1c build/Diplomamunka/production/_ext/1136935090/helpers.o
 .text.strnchr  0x00000000       0x40 build/Diplomamunka/production/_ext/1136935090/helpers.o
 .text.strncpy_m
                0x00000000       0xd8 build/Diplomamunka/production/_ext/1136935090/helpers.o
 .text.stricmppgm2ram
                0x00000000       0xa0 build/Diplomamunka/production/_ext/1136935090/helpers.o
 .text          0x00000000        0x0 build/Diplomamunka/production/_ext/1136935090/lfsr.o
 .data          0x00000000        0x0 build/Diplomamunka/production/_ext/1136935090/lfsr.o
 .bss           0x00000000        0x0 build/Diplomamunka/production/_ext/1136935090/lfsr.o
 .reginfo       0x00000000       0x18 build/Diplomamunka/production/_ext/1136935090/lfsr.o
 .text.LFSRSeedRand
                0x00000000       0x4c build/Diplomamunka/production/_ext/1136935090/lfsr.o
 .text          0x00000000        0x0 build/Diplomamunka/production/_ext/1408260596/tcp.o
 .data          0x00000000        0x0 build/Diplomamunka/production/_ext/1408260596/tcp.o
 .bss           0x00000000        0x0 build/Diplomamunka/production/_ext/1408260596/tcp.o
 .reginfo       0x00000000       0x18 build/Diplomamunka/production/_ext/1408260596/tcp.o
 .text.TCPIP_TCP_ConnectionSetToMSS
                0x00000000       0x10 build/Diplomamunka/production/_ext/1408260596/tcp.o
 .text.TCPIP_TCP_ClientOpen
                0x00000000       0x3c build/Diplomamunka/production/_ext/1408260596/tcp.o
 .text.TCPIP_TCP_WasReset
                0x00000000       0x48 build/Diplomamunka/production/_ext/1408260596/tcp.o
 .text.TCPIP_TCP_Disconnect
                0x00000000       0x3c build/Diplomamunka/production/_ext/1408260596/tcp.o
 .text.TCPIP_TCP_Abort
                0x00000000       0x3c build/Diplomamunka/production/_ext/1408260596/tcp.o
 .text.TCPIP_TCP_Connect
                0x00000000       0x64 build/Diplomamunka/production/_ext/1408260596/tcp.o
 .text.TCPIP_TCP_SocketInfoGet
                0x00000000       0x78 build/Diplomamunka/production/_ext/1408260596/tcp.o
 .text.TCPIP_TCP_SocketsNumberGet
                0x00000000        0x8 build/Diplomamunka/production/_ext/1408260596/tcp.o
 .text.TCPIP_TCP_StringPut
                0x00000000       0x48 build/Diplomamunka/production/_ext/1408260596/tcp.o
 .text.TCPIP_TCP_FifoTxFullGet
                0x00000000       0x68 build/Diplomamunka/production/_ext/1408260596/tcp.o
 .text.TCPIP_TCP_FifoTxFreeGet
                0x00000000       0x54 build/Diplomamunka/production/_ext/1408260596/tcp.o
 .text.TCPIP_TCP_Discard
                0x00000000       0x64 build/Diplomamunka/production/_ext/1408260596/tcp.o
 .text.TCPIP_TCP_FifoRxFreeGet
                0x00000000       0x50 build/Diplomamunka/production/_ext/1408260596/tcp.o
 .text.TCPIP_TCP_ArrayPeek
                0x00000000       0xe8 build/Diplomamunka/production/_ext/1408260596/tcp.o
 .text.TCPIP_TCP_Peek
                0x00000000       0x2c build/Diplomamunka/production/_ext/1408260596/tcp.o
 .text.TCPIP_TCP_SocketNetSet
                0x00000000       0x4c build/Diplomamunka/production/_ext/1408260596/tcp.o
 .text.TCPIP_TCP_SocketNetGet
                0x00000000       0x28 build/Diplomamunka/production/_ext/1408260596/tcp.o
 .text.TCPIP_TCP_Bind
                0x00000000      0x138 build/Diplomamunka/production/_ext/1408260596/tcp.o
 .text.TCPIP_TCP_OptionsGet
                0x00000000      0x160 build/Diplomamunka/production/_ext/1408260596/tcp.o
 .text.TCPIP_TCP_DestinationIPAddressSet
                0x00000000       0x78 build/Diplomamunka/production/_ext/1408260596/tcp.o
 .text.TCPIP_TCP_RemoteBind
                0x00000000       0x8c build/Diplomamunka/production/_ext/1408260596/tcp.o
 .text.TCPIP_TCP_SourceIPAddressSet
                0x00000000       0x54 build/Diplomamunka/production/_ext/1408260596/tcp.o
 .text.TCPIP_TCP_SignalHandlerRegister
                0x00000000       0x68 build/Diplomamunka/production/_ext/1408260596/tcp.o
 .text.TCPIP_TCP_SignalHandlerDeregister
                0x00000000       0x4c build/Diplomamunka/production/_ext/1408260596/tcp.o
 .text          0x00000000        0x0 build/Diplomamunka/production/_ext/1408260596/udp.o
 .data          0x00000000        0x0 build/Diplomamunka/production/_ext/1408260596/udp.o
 .bss           0x00000000        0x0 build/Diplomamunka/production/_ext/1408260596/udp.o
 .reginfo       0x00000000       0x18 build/Diplomamunka/production/_ext/1408260596/udp.o
 .text.TCPIP_UDP_IsConnected
                0x00000000       0x20 build/Diplomamunka/production/_ext/1408260596/udp.o
 .text.TCPIP_UDP_Disconnect
                0x00000000       0xe4 build/Diplomamunka/production/_ext/1408260596/udp.o
 .text.TCPIP_UDP_StringPut
                0x00000000       0x64 build/Diplomamunka/production/_ext/1408260596/udp.o
 .text.TCPIP_UDP_TxCountGet
                0x00000000       0x58 build/Diplomamunka/production/_ext/1408260596/udp.o
 .text.TCPIP_UDP_RxOffsetSet
                0x00000000       0x84 build/Diplomamunka/production/_ext/1408260596/udp.o
 .text.TCPIP_UDP_Get
                0x00000000       0x20 build/Diplomamunka/production/_ext/1408260596/udp.o
 .text.TCPIP_UDP_SocketNetGet
                0x00000000       0x28 build/Diplomamunka/production/_ext/1408260596/udp.o
 .text.TCPIP_UDP_DestinationPortSet
                0x00000000       0x4c build/Diplomamunka/production/_ext/1408260596/udp.o
 .text.TCPIP_UDP_SetSplitPayload
                0x00000000       0xc4 build/Diplomamunka/production/_ext/1408260596/udp.o
 .text.TCPIP_UDP_SignalHandlerDeregister
                0x00000000       0x4c build/Diplomamunka/production/_ext/1408260596/udp.o
 .text          0x00000000        0x0 build/Diplomamunka/production/_ext/1408260596/tcpip_heap_alloc.o
 .data          0x00000000        0x0 build/Diplomamunka/production/_ext/1408260596/tcpip_heap_alloc.o
 .bss           0x00000000        0x0 build/Diplomamunka/production/_ext/1408260596/tcpip_heap_alloc.o
 .reginfo       0x00000000       0x18 build/Diplomamunka/production/_ext/1408260596/tcpip_heap_alloc.o
 .text._TCPIP_HEAP_PointerMapCached
                0x00000000        0x8 build/Diplomamunka/production/_ext/1408260596/tcpip_heap_alloc.o
 .text          0x00000000        0x0 build/Diplomamunka/production/_ext/1408260596/tcpip_heap_internal.o
 .data          0x00000000        0x0 build/Diplomamunka/production/_ext/1408260596/tcpip_heap_internal.o
 .bss           0x00000000        0x0 build/Diplomamunka/production/_ext/1408260596/tcpip_heap_internal.o
 .reginfo       0x00000000       0x18 build/Diplomamunka/production/_ext/1408260596/tcpip_heap_internal.o
 .text          0x00000000        0x0 build/Diplomamunka/production/_ext/1408260596/arp.o
 .data          0x00000000        0x0 build/Diplomamunka/production/_ext/1408260596/arp.o
 .reginfo       0x00000000       0x18 build/Diplomamunka/production/_ext/1408260596/arp.o
 .text.TCPIP_ARP_Resolve
                0x00000000       0x78 build/Diplomamunka/production/_ext/1408260596/arp.o
 .text.TCPIP_ARP_EntrySet
                0x00000000      0x174 build/Diplomamunka/production/_ext/1408260596/arp.o
 .text.TCPIP_ARP_EntryRemoveAll
                0x00000000       0xe8 build/Diplomamunka/production/_ext/1408260596/arp.o
 .text.TCPIP_ARP_EntryQuery
                0x00000000      0x114 build/Diplomamunka/production/_ext/1408260596/arp.o
 .text.TCPIP_ARP_CacheEntriesNoGet
                0x00000000       0xdc build/Diplomamunka/production/_ext/1408260596/arp.o
 .text.TCPIP_ARP_CacheThresholdSet
                0x00000000       0xa8 build/Diplomamunka/production/_ext/1408260596/arp.o
 .text          0x00000000        0x0 build/Diplomamunka/production/_ext/1408260596/dhcp.o
 .data          0x00000000        0x0 build/Diplomamunka/production/_ext/1408260596/dhcp.o
 .reginfo       0x00000000       0x18 build/Diplomamunka/production/_ext/1408260596/dhcp.o
 .text._DHCPStartOperation
                0x00000000      0x168 build/Diplomamunka/production/_ext/1408260596/dhcp.o
 .text.TCPIP_DHCP_Disable
                0x00000000       0xb4 build/Diplomamunka/production/_ext/1408260596/dhcp.o
 .text.TCPIP_DHCP_Enable
                0x00000000       0x38 build/Diplomamunka/production/_ext/1408260596/dhcp.o
 .text.TCPIP_DHCP_Renew
                0x00000000       0x38 build/Diplomamunka/production/_ext/1408260596/dhcp.o
 .text.TCPIP_DHCP_Request
                0x00000000       0x38 build/Diplomamunka/production/_ext/1408260596/dhcp.o
 .text.TCPIP_DHCP_IsEnabled
                0x00000000       0x78 build/Diplomamunka/production/_ext/1408260596/dhcp.o
 .text.TCPIP_DHCP_IsActive
                0x00000000       0x30 build/Diplomamunka/production/_ext/1408260596/dhcp.o
 .text.TCPIP_DHCP_IsBound
                0x00000000       0x78 build/Diplomamunka/production/_ext/1408260596/dhcp.o
 .text.TCPIP_DHCP_IsServerDetected
                0x00000000       0x78 build/Diplomamunka/production/_ext/1408260596/dhcp.o
 .text.TCPIP_DHCP_RequestTimeoutSet
                0x00000000       0xa4 build/Diplomamunka/production/_ext/1408260596/dhcp.o
 .text.TCPIP_DHCP_InfoGet
                0x00000000      0x10c build/Diplomamunka/production/_ext/1408260596/dhcp.o
 .text.TCPIP_DHCP_HostNameCallbackRegister
                0x00000000       0xa0 build/Diplomamunka/production/_ext/1408260596/dhcp.o
 .text          0x00000000        0x0 build/Diplomamunka/production/_ext/1408260596/dns.o
 .data          0x00000000        0x0 build/Diplomamunka/production/_ext/1408260596/dns.o
 .reginfo       0x00000000       0x18 build/Diplomamunka/production/_ext/1408260596/dns.o
 .text._DNS_Resolve
                0x00000000      0x1b0 build/Diplomamunka/production/_ext/1408260596/dns.o
 .text._DNS_GetAddresses
                0x00000000      0x1a4 build/Diplomamunka/production/_ext/1408260596/dns.o
 .text._DNS_IsNameResolved
                0x00000000      0x1dc build/Diplomamunka/production/_ext/1408260596/dns.o
 .text.TCPIP_DNS_Resolve
                0x00000000       0x1c build/Diplomamunka/production/_ext/1408260596/dns.o
 .text.TCPIP_DNS_Send_Query
                0x00000000       0x1c build/Diplomamunka/production/_ext/1408260596/dns.o
 .text.TCPIP_DNS_GetIPv4Addresses
                0x00000000       0x20 build/Diplomamunka/production/_ext/1408260596/dns.o
 .text.TCPIP_DNS_GetIPv6Addresses
                0x00000000       0x20 build/Diplomamunka/production/_ext/1408260596/dns.o
 .text.TCPIP_DNS_GetIPAddressesNumber
                0x00000000       0xb8 build/Diplomamunka/production/_ext/1408260596/dns.o
 .text.TCPIP_DNS_IsResolved
                0x00000000       0x3c build/Diplomamunka/production/_ext/1408260596/dns.o
 .text.TCPIP_DNS_IsNameResolved
                0x00000000       0x1c build/Diplomamunka/production/_ext/1408260596/dns.o
 .text.TCPIP_DNS_ClientInfoGet
                0x00000000       0x64 build/Diplomamunka/production/_ext/1408260596/dns.o
 .text.TCPIP_DNS_EntryQuery
                0x00000000      0x240 build/Diplomamunka/production/_ext/1408260596/dns.o
 .text.TCPIP_DNS_RemoveAll
                0x00000000       0xa0 build/Diplomamunka/production/_ext/1408260596/dns.o
 .text.TCPIP_DNS_IsEnabled
                0x00000000       0x24 build/Diplomamunka/production/_ext/1408260596/dns.o
 .text.TCPIP_DNS_Enable
                0x00000000       0x20 build/Diplomamunka/production/_ext/1408260596/dns.o
 .text.TCPIP_DNS_Disable
                0x00000000       0xc4 build/Diplomamunka/production/_ext/1408260596/dns.o
 .text          0x00000000        0x0 build/Diplomamunka/production/_ext/1408260596/icmp.o
 .data          0x00000000        0x0 build/Diplomamunka/production/_ext/1408260596/icmp.o
 .reginfo       0x00000000       0x18 build/Diplomamunka/production/_ext/1408260596/icmp.o
 .text.TCPIP_ICMP_CallbackRegister
                0x00000000       0x58 build/Diplomamunka/production/_ext/1408260596/icmp.o
 .text.TCPIP_ICMP_CallbackDeregister
                0x00000000       0x44 build/Diplomamunka/production/_ext/1408260596/icmp.o
 .text.TCPIP_ICMP_EchoRequestSend
                0x00000000      0x11c build/Diplomamunka/production/_ext/1408260596/icmp.o
 .text          0x00000000        0x0 build/Diplomamunka/production/_ext/1408260596/tcpip_announce.o
 .data          0x00000000        0x0 build/Diplomamunka/production/_ext/1408260596/tcpip_announce.o
 .bss           0x00000000        0x0 build/Diplomamunka/production/_ext/1408260596/tcpip_announce.o
 .reginfo       0x00000000       0x18 build/Diplomamunka/production/_ext/1408260596/tcpip_announce.o
 .text          0x00000000        0x0 build/Diplomamunka/production/_ext/1408260596/hash_fnv.o
 .data          0x00000000        0x0 build/Diplomamunka/production/_ext/1408260596/hash_fnv.o
 .bss           0x00000000        0x0 build/Diplomamunka/production/_ext/1408260596/hash_fnv.o
 .reginfo       0x00000000       0x18 build/Diplomamunka/production/_ext/1408260596/hash_fnv.o
 .text.fnv_32a_hash
                0x00000000       0x5c build/Diplomamunka/production/_ext/1408260596/hash_fnv.o
 .text          0x00000000        0x0 build/Diplomamunka/production/_ext/1408260596/oahash.o
 .data          0x00000000        0x0 build/Diplomamunka/production/_ext/1408260596/oahash.o
 .bss           0x00000000        0x0 build/Diplomamunka/production/_ext/1408260596/oahash.o
 .reginfo       0x00000000       0x18 build/Diplomamunka/production/_ext/1408260596/oahash.o
 .text          0x00000000        0x0 build/Diplomamunka/production/_ext/1408260596/tcpip_helpers.o
 .data          0x00000000       0x28 build/Diplomamunka/production/_ext/1408260596/tcpip_helpers.o
 .bss           0x00000000        0x0 build/Diplomamunka/production/_ext/1408260596/tcpip_helpers.o
 .reginfo       0x00000000       0x18 build/Diplomamunka/production/_ext/1408260596/tcpip_helpers.o
 .text._TCPIP_Helper_SecurePortEntry
                0x00000000       0x54 build/Diplomamunka/production/_ext/1408260596/tcpip_helpers.o
 .text.TCPIP_Helper_IPAddressToString
                0x00000000       0x98 build/Diplomamunka/production/_ext/1408260596/tcpip_helpers.o
 .text.TCPIP_Helper_StringToIPv6Address
                0x00000000      0x3f0 build/Diplomamunka/production/_ext/1408260596/tcpip_helpers.o
 .text.TCPIP_Helper_IPv6AddressToString
                0x00000000      0x164 build/Diplomamunka/production/_ext/1408260596/tcpip_helpers.o
 .text.TCPIP_Helper_IsPrivateAddress
                0x00000000       0x3c build/Diplomamunka/production/_ext/1408260596/tcpip_helpers.o
 .text.TCPIP_Helper_MACAddressToString
                0x00000000       0x80 build/Diplomamunka/production/_ext/1408260596/tcpip_helpers.o
 .text.TCPIP_Helper_PowerModeToString
                0x00000000       0x28 build/Diplomamunka/production/_ext/1408260596/tcpip_helpers.o
 .text.TCPIP_Helper_FindCommonPrefix
                0x00000000       0xa4 build/Diplomamunka/production/_ext/1408260596/tcpip_helpers.o
 .text.TCPIP_Helper_SingleListHeadAdd
                0x00000000       0x28 build/Diplomamunka/production/_ext/1408260596/tcpip_helpers.o
 .text.TCPIP_Helper_SingleListMidAdd
                0x00000000       0x1c build/Diplomamunka/production/_ext/1408260596/tcpip_helpers.o
 .text.TCPIP_Helper_SingleListNextRemove
                0x00000000       0x58 build/Diplomamunka/production/_ext/1408260596/tcpip_helpers.o
 .text.TCPIP_Helper_SingleListFind
                0x00000000       0x48 build/Diplomamunka/production/_ext/1408260596/tcpip_helpers.o
 .text.TCPIP_Helper_ProtectedSingleListHeadAdd
                0x00000000       0x7c build/Diplomamunka/production/_ext/1408260596/tcpip_helpers.o
 .text.TCPIP_Helper_ProtectedSingleListMidAdd
                0x00000000       0x88 build/Diplomamunka/production/_ext/1408260596/tcpip_helpers.o
 .text.TCPIP_Helper_ProtectedSingleListNextRemove
                0x00000000       0x8c build/Diplomamunka/production/_ext/1408260596/tcpip_helpers.o
 .text.TCPIP_Helper_ProtectedSingleListAppend
                0x00000000       0x7c build/Diplomamunka/production/_ext/1408260596/tcpip_helpers.o
 .text.TCPIP_Helper_DoubleListInitialize
                0x00000000       0x10 build/Diplomamunka/production/_ext/1408260596/tcpip_helpers.o
 .text.TCPIP_Helper_DoubleListHeadAdd
                0x00000000       0x40 build/Diplomamunka/production/_ext/1408260596/tcpip_helpers.o
 .text.TCPIP_Helper_DoubleListTailAdd
                0x00000000       0x44 build/Diplomamunka/production/_ext/1408260596/tcpip_helpers.o
 .text.TCPIP_Helper_DoubleListMidAdd
                0x00000000       0x28 build/Diplomamunka/production/_ext/1408260596/tcpip_helpers.o
 .text.TCPIP_Helper_DoubleListHeadRemove
                0x00000000       0x40 build/Diplomamunka/production/_ext/1408260596/tcpip_helpers.o
 .text.TCPIP_Helper_DoubleListTailRemove
                0x00000000       0x40 build/Diplomamunka/production/_ext/1408260596/tcpip_helpers.o
 .text.TCPIP_Helper_DoubleListMidRemove
                0x00000000       0x28 build/Diplomamunka/production/_ext/1408260596/tcpip_helpers.o
 .text.TCPIP_Helper_DoubleListNodeRemove
                0x00000000       0x50 build/Diplomamunka/production/_ext/1408260596/tcpip_helpers.o
 .text.TCPIP_Helper_DoubleListFind
                0x00000000       0x48 build/Diplomamunka/production/_ext/1408260596/tcpip_helpers.o
 .text.TCPIP_Helper_ProtectedDoubleListInitialize
                0x00000000       0x44 build/Diplomamunka/production/_ext/1408260596/tcpip_helpers.o
 .text.TCPIP_Helper_ProtectedDoubleListDeinitialize
                0x00000000       0x78 build/Diplomamunka/production/_ext/1408260596/tcpip_helpers.o
 .text.TCPIP_Helper_ProtectedDoubleListHeadAdd
                0x00000000       0x7c build/Diplomamunka/production/_ext/1408260596/tcpip_helpers.o
 .text.TCPIP_Helper_ProtectedDoubleListTailAdd
                0x00000000       0x7c build/Diplomamunka/production/_ext/1408260596/tcpip_helpers.o
 .text.TCPIP_Helper_ProtectedDoubleListMidAdd
                0x00000000       0x7c build/Diplomamunka/production/_ext/1408260596/tcpip_helpers.o
 .text.TCPIP_Helper_ProtectedDoubleListHeadRemove
                0x00000000       0x8c build/Diplomamunka/production/_ext/1408260596/tcpip_helpers.o
 .text.TCPIP_Helper_ProtectedDoubleListTailRemove
                0x00000000       0x8c build/Diplomamunka/production/_ext/1408260596/tcpip_helpers.o
 .text.TCPIP_Helper_ProtectedDoubleListMidRemove
                0x00000000       0x7c build/Diplomamunka/production/_ext/1408260596/tcpip_helpers.o
 .text.TCPIP_Helper_ProtectedDoubleListNodeRemove
                0x00000000       0x7c build/Diplomamunka/production/_ext/1408260596/tcpip_helpers.o
 .text.TCPIP_Helper_ProtectedDoubleListRemoveAll
                0x00000000       0x90 build/Diplomamunka/production/_ext/1408260596/tcpip_helpers.o
 .text.TCPIP_Helper_ProtectedDoubleListLock
                0x00000000       0x54 build/Diplomamunka/production/_ext/1408260596/tcpip_helpers.o
 .text.TCPIP_Helper_ProtectedDoubleListUnlock
                0x00000000       0x40 build/Diplomamunka/production/_ext/1408260596/tcpip_helpers.o
 .text.TCPIP_Helper_TCPSecurePortGet
                0x00000000       0x30 build/Diplomamunka/production/_ext/1408260596/tcpip_helpers.o
 .text.TCPIP_Helper_UDPSecurePortGet
                0x00000000       0x30 build/Diplomamunka/production/_ext/1408260596/tcpip_helpers.o
 .text.TCPIP_Helper_SecurePortGetByIndex
                0x00000000       0x64 build/Diplomamunka/production/_ext/1408260596/tcpip_helpers.o
 .text.TCPIP_Helper_SecurePortSet
                0x00000000       0xc4 build/Diplomamunka/production/_ext/1408260596/tcpip_helpers.o
 .data          0x00000000        0x0 build/Diplomamunka/production/_ext/1408260596/tcpip_helper_c32.o
 .bss           0x00000000        0x0 build/Diplomamunka/production/_ext/1408260596/tcpip_helper_c32.o
 .reginfo       0x00000000       0x18 build/Diplomamunka/production/_ext/1408260596/tcpip_helper_c32.o
 .text          0x00000000        0x0 build/Diplomamunka/production/_ext/1408260596/tcpip_manager.o
 .data          0x00000000        0x0 build/Diplomamunka/production/_ext/1408260596/tcpip_manager.o
 .reginfo       0x00000000       0x18 build/Diplomamunka/production/_ext/1408260596/tcpip_manager.o
 .text._NetConfigStringToBuffer
                0x00000000       0xc8 build/Diplomamunka/production/_ext/1408260596/tcpip_manager.o
 .text.TCPIP_STACK_InitializeDataGet
                0x00000000       0x58 build/Diplomamunka/production/_ext/1408260596/tcpip_manager.o
 .text.TCPIP_STACK_NetDefaultSet
                0x00000000       0x2c build/Diplomamunka/production/_ext/1408260596/tcpip_manager.o
 .text.TCPIP_STACK_MacToNet
                0x00000000       0x4c build/Diplomamunka/production/_ext/1408260596/tcpip_manager.o
 .text.TCPIP_STACK_MacToNetIndex
                0x00000000       0x54 build/Diplomamunka/production/_ext/1408260596/tcpip_manager.o
 .text.TCPIP_STACK_NetIndexGet
                0x00000000       0x18 build/Diplomamunka/production/_ext/1408260596/tcpip_manager.o
 .text.TCPIP_STACK_MACIdToNet
                0x00000000       0x5c build/Diplomamunka/production/_ext/1408260596/tcpip_manager.o
 .text.TCPIP_STACK_NetNameGet
                0x00000000       0x2c build/Diplomamunka/production/_ext/1408260596/tcpip_manager.o
 .text.TCPIP_STACK_NetAliasNameGet
                0x00000000       0x8c build/Diplomamunka/production/_ext/1408260596/tcpip_manager.o
 .text.TCPIP_STACK_MACObjectGet
                0x00000000       0x18 build/Diplomamunka/production/_ext/1408260596/tcpip_manager.o
 .text.TCPIP_STACK_NetAddressGatewaySet
                0x00000000       0x30 build/Diplomamunka/production/_ext/1408260596/tcpip_manager.o
 .text.TCPIP_STACK_NetAddressGateway
                0x00000000       0x28 build/Diplomamunka/production/_ext/1408260596/tcpip_manager.o
 .text.TCPIP_STACK_NetAddressDnsPrimary
                0x00000000       0x28 build/Diplomamunka/production/_ext/1408260596/tcpip_manager.o
 .text.TCPIP_STACK_NetAddressDnsSecond
                0x00000000       0x28 build/Diplomamunka/production/_ext/1408260596/tcpip_manager.o
 .text.TCPIP_STACK_NetAddressDnsPrimarySet
                0x00000000       0x2c build/Diplomamunka/production/_ext/1408260596/tcpip_manager.o
 .text.TCPIP_STACK_NetAddressDnsSecondSet
                0x00000000       0x30 build/Diplomamunka/production/_ext/1408260596/tcpip_manager.o
 .text.TCPIP_STACK_NetAddressMacSet
                0x00000000       0x4c build/Diplomamunka/production/_ext/1408260596/tcpip_manager.o
 .text.TCPIP_STACK_NetBiosNameSet
                0x00000000       0x8c build/Diplomamunka/production/_ext/1408260596/tcpip_manager.o
 .text.TCPIP_STACK_SetLocalMasksType
                0x00000000       0x38 build/Diplomamunka/production/_ext/1408260596/tcpip_manager.o
 .text.TCPIP_STACK_SetLocalMasks
                0x00000000       0x30 build/Diplomamunka/production/_ext/1408260596/tcpip_manager.o
 .text.TCPIP_STACK_NetMACIdGet
                0x00000000       0x28 build/Diplomamunka/production/_ext/1408260596/tcpip_manager.o
 .text.TCPIP_STACK_NetMACStatisticsGet
                0x00000000       0x50 build/Diplomamunka/production/_ext/1408260596/tcpip_manager.o
 .text.TCPIP_STACK_NetMACRegisterStatisticsGet
                0x00000000       0x50 build/Diplomamunka/production/_ext/1408260596/tcpip_manager.o
 .text.TCPIP_STACK_ModuleConfigGet
                0x00000000       0x74 build/Diplomamunka/production/_ext/1408260596/tcpip_manager.o
 .text.TCPIP_STACK_NetConfigGet
                0x00000000      0x104 build/Diplomamunka/production/_ext/1408260596/tcpip_manager.o
 .text.TCPIP_STACK_NetConfigSet
                0x00000000      0x2dc build/Diplomamunka/production/_ext/1408260596/tcpip_manager.o
 .text.TCPIP_STACK_StringToMACId
                0x00000000       0x9c build/Diplomamunka/production/_ext/1408260596/tcpip_manager.o
 .text.TCPIP_STACK_NetHandleGet
                0x00000000       0x84 build/Diplomamunka/production/_ext/1408260596/tcpip_manager.o
 .text.TCPIP_STACK_NetIsUp
                0x00000000       0x20 build/Diplomamunka/production/_ext/1408260596/tcpip_manager.o
 .text.TCPIP_STACK_AddressServiceCanStart
                0x00000000       0x20 build/Diplomamunka/production/_ext/1408260596/tcpip_manager.o
 .text._TCPIPStackAddressServiceIsRunning
                0x00000000        0xc build/Diplomamunka/production/_ext/1408260596/tcpip_manager.o
 .text.TCPIP_STACK_EventsPendingGet
                0x00000000       0x4c build/Diplomamunka/production/_ext/1408260596/tcpip_manager.o
 .text.TCPIP_STACK_NetStaticIPv6AddressGet
                0x00000000        0x8 build/Diplomamunka/production/_ext/1408260596/tcpip_manager.o
 .text.TCPIP_STACK_NetDefaultIPv6GatewayGet
                0x00000000        0x8 build/Diplomamunka/production/_ext/1408260596/tcpip_manager.o
 .text.TCPIP_STACK_NetworkAddressSet
                0x00000000       0x48 build/Diplomamunka/production/_ext/1408260596/tcpip_manager.o
 .text.TCPIP_STACK_NetAddressSet
                0x00000000       0x48 build/Diplomamunka/production/_ext/1408260596/tcpip_manager.o
 .text.TCPIP_STACK_NetMask
                0x00000000       0x44 build/Diplomamunka/production/_ext/1408260596/tcpip_manager.o
 .text.TCPIP_STACK_AddressIsOfNetUp
                0x00000000       0x54 build/Diplomamunka/production/_ext/1408260596/tcpip_manager.o
 .text.TCPIP_STACK_NetIsLinked
                0x00000000       0x44 build/Diplomamunka/production/_ext/1408260596/tcpip_manager.o
 .text.TCPIP_STACK_NetMACId
                0x00000000       0x18 build/Diplomamunka/production/_ext/1408260596/tcpip_manager.o
 .text.TCPIP_STACK_NetToMAC
                0x00000000       0x18 build/Diplomamunka/production/_ext/1408260596/tcpip_manager.o
 .text.TCPIP_STACK_NetAddressMac
                0x00000000       0x44 build/Diplomamunka/production/_ext/1408260596/tcpip_manager.o
 .text._TCPIPStackSignalHandlerSetParams
                0x00000000       0x4c build/Diplomamunka/production/_ext/1408260596/tcpip_manager.o
 .text.TCPIP_STACK_Deinitialize
                0x00000000       0x3c build/Diplomamunka/production/_ext/1408260596/tcpip_manager.o
 .text.TCPIP_STACK_NetUp
                0x00000000       0xec build/Diplomamunka/production/_ext/1408260596/tcpip_manager.o
 .text.TCPIP_STACK_NetDown
                0x00000000       0xac build/Diplomamunka/production/_ext/1408260596/tcpip_manager.o
 .text.TCPIP_STACK_VersionGet
                0x00000000        0xc build/Diplomamunka/production/_ext/1408260596/tcpip_manager.o
 .text.TCPIP_STACK_VersionStrGet
                0x00000000        0xc build/Diplomamunka/production/_ext/1408260596/tcpip_manager.o
 .text.TCPIP_MODULE_SignalFunctionRegister
                0x00000000       0x50 build/Diplomamunka/production/_ext/1408260596/tcpip_manager.o
 .text.TCPIP_MODULE_SignalFunctionDeregister
                0x00000000       0x1c build/Diplomamunka/production/_ext/1408260596/tcpip_manager.o
 .text.TCPIP_MODULE_SignalGet
                0x00000000       0x50 build/Diplomamunka/production/_ext/1408260596/tcpip_manager.o
 .text.TCPIP_STACK_HeapHandleGet
                0x00000000       0x20 build/Diplomamunka/production/_ext/1408260596/tcpip_manager.o
 .text.TCPIP_STACK_HEAP_Size
                0x00000000       0x34 build/Diplomamunka/production/_ext/1408260596/tcpip_manager.o
 .text.TCPIP_STACK_HEAP_MaxSize
                0x00000000       0x34 build/Diplomamunka/production/_ext/1408260596/tcpip_manager.o
 .text.TCPIP_STACK_HEAP_FreeSize
                0x00000000       0x34 build/Diplomamunka/production/_ext/1408260596/tcpip_manager.o
 .text.TCPIP_STACK_HEAP_LastError
                0x00000000       0x34 build/Diplomamunka/production/_ext/1408260596/tcpip_manager.o
 .text          0x00000000        0x0 build/Diplomamunka/production/_ext/1408260596/tcpip_notify.o
 .data          0x00000000        0x0 build/Diplomamunka/production/_ext/1408260596/tcpip_notify.o
 .bss           0x00000000        0x0 build/Diplomamunka/production/_ext/1408260596/tcpip_notify.o
 .reginfo       0x00000000       0x18 build/Diplomamunka/production/_ext/1408260596/tcpip_notify.o
 .text          0x00000000        0x0 build/Diplomamunka/production/_ext/1408260596/tcpip_packet.o
 .data          0x00000000        0x0 build/Diplomamunka/production/_ext/1408260596/tcpip_packet.o
 .bss           0x00000000        0x0 build/Diplomamunka/production/_ext/1408260596/tcpip_packet.o
 .reginfo       0x00000000       0x18 build/Diplomamunka/production/_ext/1408260596/tcpip_packet.o
 .text.TCPIP_PKT_SegmentAlloc
                0x00000000       0xb4 build/Diplomamunka/production/_ext/1408260596/tcpip_packet.o
 .text.TCPIP_PKT_SegmentAppend
                0x00000000       0x30 build/Diplomamunka/production/_ext/1408260596/tcpip_packet.o
 .text.TCPIP_PKT_SegmentFree
                0x00000000       0x50 build/Diplomamunka/production/_ext/1408260596/tcpip_packet.o
 .text.TCPIP_PKT_PayloadLen
                0x00000000       0x38 build/Diplomamunka/production/_ext/1408260596/tcpip_packet.o
 .text          0x00000000        0x0 build/Diplomamunka/production/_ext/1408260596/ipv4.o
 .data          0x00000000        0x0 build/Diplomamunka/production/_ext/1408260596/ipv4.o
 .reginfo       0x00000000       0x18 build/Diplomamunka/production/_ext/1408260596/ipv4.o
 .text          0x00000000        0x0 ..\..\..\..\bin\framework\peripheral\PIC32MX795F512L_peripherals.a(plib_eth_lib.o)
 .data          0x00000000        0x0 ..\..\..\..\bin\framework\peripheral\PIC32MX795F512L_peripherals.a(plib_eth_lib.o)
 .bss           0x00000000        0x0 ..\..\..\..\bin\framework\peripheral\PIC32MX795F512L_peripherals.a(plib_eth_lib.o)
 .reginfo       0x00000000       0x18 ..\..\..\..\bin\framework\peripheral\PIC32MX795F512L_peripherals.a(plib_eth_lib.o)
 .text.PLIB_ETH_RxFiltersWrite
                0x00000000       0x3c ..\..\..\..\bin\framework\peripheral\PIC32MX795F512L_peripherals.a(plib_eth_lib.o)
 .text.PLIB_ETH_RxFiltersPMSet
                0x00000000       0xe4 ..\..\..\..\bin\framework\peripheral\PIC32MX795F512L_peripherals.a(plib_eth_lib.o)
 .text.PLIB_ETH_RxFiltersPMClr
                0x00000000       0x20 ..\..\..\..\bin\framework\peripheral\PIC32MX795F512L_peripherals.a(plib_eth_lib.o)
 .text.PLIB_ETH_EventsEnableWrite
                0x00000000       0x34 ..\..\..\..\bin\framework\peripheral\PIC32MX795F512L_peripherals.a(plib_eth_lib.o)
 .text.PLIB_ETH_EventsEnableGet
                0x00000000       0x20 ..\..\..\..\bin\framework\peripheral\PIC32MX795F512L_peripherals.a(plib_eth_lib.o)
 .text          0x00000000        0x0 c:/program files (x86)/microchip/xc32/v1.42/bin/bin/../../lib/gcc/pic32mx/4.8.3/../../../../pic32mx/lib/./proc/32MX795F512L\default_isr_vectors.o
 .data          0x00000000        0x0 c:/program files (x86)/microchip/xc32/v1.42/bin/bin/../../lib/gcc/pic32mx/4.8.3/../../../../pic32mx/lib/./proc/32MX795F512L\default_isr_vectors.o
 .bss           0x00000000        0x0 c:/program files (x86)/microchip/xc32/v1.42/bin/bin/../../lib/gcc/pic32mx/4.8.3/../../../../pic32mx/lib/./proc/32MX795F512L\default_isr_vectors.o
 .reginfo       0x00000000       0x18 c:/program files (x86)/microchip/xc32/v1.42/bin/bin/../../lib/gcc/pic32mx/4.8.3/../../../../pic32mx/lib/./proc/32MX795F512L\default_isr_vectors.o
 .discard       0x00000000       0xd0 c:/program files (x86)/microchip/xc32/v1.42/bin/bin/../../lib/gcc/pic32mx/4.8.3/../../../../pic32mx/lib/./proc/32MX795F512L\default_isr_vectors.o
 .data          0x00000000        0x0 c:/program files (x86)/microchip/xc32/v1.42/bin/bin/../../lib/gcc/pic32mx/4.8.3/../../../../pic32mx/lib\pic32_software_reset.o
 .bss           0x00000000        0x0 c:/program files (x86)/microchip/xc32/v1.42/bin/bin/../../lib/gcc/pic32mx/4.8.3/../../../../pic32mx/lib\pic32_software_reset.o
 .reginfo       0x00000000       0x18 c:/program files (x86)/microchip/xc32/v1.42/bin/bin/../../lib/gcc/pic32mx/4.8.3/../../../../pic32mx/lib\pic32_software_reset.o
 .text          0x00000000        0x0 c:/program files (x86)/microchip/xc32/v1.42/bin/bin/../../lib/gcc/pic32mx/4.8.3/../../../../pic32mx/lib/./proc/32MX795F512L\processor.o
 .data          0x00000000        0x0 c:/program files (x86)/microchip/xc32/v1.42/bin/bin/../../lib/gcc/pic32mx/4.8.3/../../../../pic32mx/lib/./proc/32MX795F512L\processor.o
 .bss           0x00000000        0x0 c:/program files (x86)/microchip/xc32/v1.42/bin/bin/../../lib/gcc/pic32mx/4.8.3/../../../../pic32mx/lib/./proc/32MX795F512L\processor.o
 .reginfo       0x00000000       0x18 c:/program files (x86)/microchip/xc32/v1.42/bin/bin/../../lib/gcc/pic32mx/4.8.3/../../../../pic32mx/lib/./proc/32MX795F512L\processor.o
 .data          0x00000000        0x0 c:/program files (x86)/microchip/xc32/v1.42/bin/bin/../../lib/gcc/pic32mx/4.8.3\libgcc.a(_udivdi3.o)
 .bss           0x00000000        0x0 c:/program files (x86)/microchip/xc32/v1.42/bin/bin/../../lib/gcc/pic32mx/4.8.3\libgcc.a(_udivdi3.o)
 .reginfo       0x00000000       0x18 c:/program files (x86)/microchip/xc32/v1.42/bin/bin/../../lib/gcc/pic32mx/4.8.3\libgcc.a(_udivdi3.o)
 .data          0x00000000        0x0 c:/program files (x86)/microchip/xc32/v1.42/bin/bin/../../lib/gcc/pic32mx/4.8.3\libgcc.a(floatunsisf.o)
 .bss           0x00000000        0x0 c:/program files (x86)/microchip/xc32/v1.42/bin/bin/../../lib/gcc/pic32mx/4.8.3\libgcc.a(floatunsisf.o)
 .reginfo       0x00000000       0x18 c:/program files (x86)/microchip/xc32/v1.42/bin/bin/../../lib/gcc/pic32mx/4.8.3\libgcc.a(floatunsisf.o)
 .data          0x00000000        0x0 c:/program files (x86)/microchip/xc32/v1.42/bin/bin/../../lib/gcc/pic32mx/4.8.3/../../../../pic32mx/lib\libpic32.a(memcmp.o)
 .bss           0x00000000        0x0 c:/program files (x86)/microchip/xc32/v1.42/bin/bin/../../lib/gcc/pic32mx/4.8.3/../../../../pic32mx/lib\libpic32.a(memcmp.o)
 .reginfo       0x00000000       0x18 c:/program files (x86)/microchip/xc32/v1.42/bin/bin/../../lib/gcc/pic32mx/4.8.3/../../../../pic32mx/lib\libpic32.a(memcmp.o)
 .data          0x00000000        0x0 c:/program files (x86)/microchip/xc32/v1.42/bin/bin/../../lib/gcc/pic32mx/4.8.3/../../../../pic32mx/lib\libpic32.a(memcpy.o)
 .bss           0x00000000        0x0 c:/program files (x86)/microchip/xc32/v1.42/bin/bin/../../lib/gcc/pic32mx/4.8.3/../../../../pic32mx/lib\libpic32.a(memcpy.o)
 .reginfo       0x00000000       0x18 c:/program files (x86)/microchip/xc32/v1.42/bin/bin/../../lib/gcc/pic32mx/4.8.3/../../../../pic32mx/lib\libpic32.a(memcpy.o)
 .data          0x00000000        0x0 c:/program files (x86)/microchip/xc32/v1.42/bin/bin/../../lib/gcc/pic32mx/4.8.3/../../../../pic32mx/lib\libpic32.a(memset.o)
 .bss           0x00000000        0x0 c:/program files (x86)/microchip/xc32/v1.42/bin/bin/../../lib/gcc/pic32mx/4.8.3/../../../../pic32mx/lib\libpic32.a(memset.o)
 .reginfo       0x00000000       0x18 c:/program files (x86)/microchip/xc32/v1.42/bin/bin/../../lib/gcc/pic32mx/4.8.3/../../../../pic32mx/lib\libpic32.a(memset.o)
 .data          0x00000000        0x0 c:/program files (x86)/microchip/xc32/v1.42/bin/bin/../../lib/gcc/pic32mx/4.8.3/../../../../pic32mx/lib\libpic32.a(strcmp.o)
 .bss           0x00000000        0x0 c:/program files (x86)/microchip/xc32/v1.42/bin/bin/../../lib/gcc/pic32mx/4.8.3/../../../../pic32mx/lib\libpic32.a(strcmp.o)
 .reginfo       0x00000000       0x18 c:/program files (x86)/microchip/xc32/v1.42/bin/bin/../../lib/gcc/pic32mx/4.8.3/../../../../pic32mx/lib\libpic32.a(strcmp.o)
 .text          0x00000000      0x1a0 c:/program files (x86)/microchip/xc32/v1.42/bin/bin/../../lib/gcc/pic32mx/4.8.3/../../../../pic32mx/lib\libpic32.a(strcpy.o)
 .data          0x00000000        0x0 c:/program files (x86)/microchip/xc32/v1.42/bin/bin/../../lib/gcc/pic32mx/4.8.3/../../../../pic32mx/lib\libpic32.a(strcpy.o)
 .bss           0x00000000        0x0 c:/program files (x86)/microchip/xc32/v1.42/bin/bin/../../lib/gcc/pic32mx/4.8.3/../../../../pic32mx/lib\libpic32.a(strcpy.o)
 .reginfo       0x00000000       0x18 c:/program files (x86)/microchip/xc32/v1.42/bin/bin/../../lib/gcc/pic32mx/4.8.3/../../../../pic32mx/lib\libpic32.a(strcpy.o)
 .comment       0x00000000       0x1a c:/program files (x86)/microchip/xc32/v1.42/bin/bin/../../lib/gcc/pic32mx/4.8.3/../../../../pic32mx/lib\libpic32.a(strcpy.o)
 .data          0x00000000        0x0 c:/program files (x86)/microchip/xc32/v1.42/bin/bin/../../lib/gcc/pic32mx/4.8.3/../../../../pic32mx/lib\libpic32.a(strlen.o)
 .bss           0x00000000        0x0 c:/program files (x86)/microchip/xc32/v1.42/bin/bin/../../lib/gcc/pic32mx/4.8.3/../../../../pic32mx/lib\libpic32.a(strlen.o)
 .reginfo       0x00000000       0x18 c:/program files (x86)/microchip/xc32/v1.42/bin/bin/../../lib/gcc/pic32mx/4.8.3/../../../../pic32mx/lib\libpic32.a(strlen.o)
 .text          0x00000000        0x0 c:/program files (x86)/microchip/xc32/v1.42/bin/bin/../../lib/gcc/pic32mx/4.8.3/../../../../pic32mx/lib\libpic32.a(default-bootstrap-exception-handler.o)
 .data          0x00000000        0x0 c:/program files (x86)/microchip/xc32/v1.42/bin/bin/../../lib/gcc/pic32mx/4.8.3/../../../../pic32mx/lib\libpic32.a(default-bootstrap-exception-handler.o)
 .bss           0x00000000        0x0 c:/program files (x86)/microchip/xc32/v1.42/bin/bin/../../lib/gcc/pic32mx/4.8.3/../../../../pic32mx/lib\libpic32.a(default-bootstrap-exception-handler.o)
 .reginfo       0x00000000       0x18 c:/program files (x86)/microchip/xc32/v1.42/bin/bin/../../lib/gcc/pic32mx/4.8.3/../../../../pic32mx/lib\libpic32.a(default-bootstrap-exception-handler.o)
 .text          0x00000000        0x0 c:/program files (x86)/microchip/xc32/v1.42/bin/bin/../../lib/gcc/pic32mx/4.8.3/../../../../pic32mx/lib\libpic32.a(default-on-reset.o)
 .data          0x00000000        0x0 c:/program files (x86)/microchip/xc32/v1.42/bin/bin/../../lib/gcc/pic32mx/4.8.3/../../../../pic32mx/lib\libpic32.a(default-on-reset.o)
 .bss           0x00000000        0x0 c:/program files (x86)/microchip/xc32/v1.42/bin/bin/../../lib/gcc/pic32mx/4.8.3/../../../../pic32mx/lib\libpic32.a(default-on-reset.o)
 .reginfo       0x00000000       0x18 c:/program files (x86)/microchip/xc32/v1.42/bin/bin/../../lib/gcc/pic32mx/4.8.3/../../../../pic32mx/lib\libpic32.a(default-on-reset.o)
 .text          0x00000000        0x0 c:/program files (x86)/microchip/xc32/v1.42/bin/bin/../../lib/gcc/pic32mx/4.8.3/../../../../pic32mx/lib\libpic32.a(default-on-bootstrap.o)
 .data          0x00000000        0x0 c:/program files (x86)/microchip/xc32/v1.42/bin/bin/../../lib/gcc/pic32mx/4.8.3/../../../../pic32mx/lib\libpic32.a(default-on-bootstrap.o)
 .bss           0x00000000        0x0 c:/program files (x86)/microchip/xc32/v1.42/bin/bin/../../lib/gcc/pic32mx/4.8.3/../../../../pic32mx/lib\libpic32.a(default-on-bootstrap.o)
 .reginfo       0x00000000       0x18 c:/program files (x86)/microchip/xc32/v1.42/bin/bin/../../lib/gcc/pic32mx/4.8.3/../../../../pic32mx/lib\libpic32.a(default-on-bootstrap.o)
 .data          0x00000000        0x0 c:/program files (x86)/microchip/xc32/v1.42/bin/bin/../../lib/gcc/pic32mx/4.8.3/../../../../pic32mx/lib\libpic32.a(default-nmi-handler.o)
 .bss           0x00000000        0x0 c:/program files (x86)/microchip/xc32/v1.42/bin/bin/../../lib/gcc/pic32mx/4.8.3/../../../../pic32mx/lib\libpic32.a(default-nmi-handler.o)
 .reginfo       0x00000000       0x18 c:/program files (x86)/microchip/xc32/v1.42/bin/bin/../../lib/gcc/pic32mx/4.8.3/../../../../pic32mx/lib\libpic32.a(default-nmi-handler.o)
 .text          0x00000000        0x0 c:/program files (x86)/microchip/xc32/v1.42/bin/bin/../../lib/gcc/pic32mx/4.8.3/../../../../pic32mx/lib\libpic32.a(general-exception.o)
 .data          0x00000000        0x0 c:/program files (x86)/microchip/xc32/v1.42/bin/bin/../../lib/gcc/pic32mx/4.8.3/../../../../pic32mx/lib\libpic32.a(general-exception.o)
 .bss           0x00000000        0x0 c:/program files (x86)/microchip/xc32/v1.42/bin/bin/../../lib/gcc/pic32mx/4.8.3/../../../../pic32mx/lib\libpic32.a(general-exception.o)
 .reginfo       0x00000000       0x18 c:/program files (x86)/microchip/xc32/v1.42/bin/bin/../../lib/gcc/pic32mx/4.8.3/../../../../pic32mx/lib\libpic32.a(general-exception.o)
 .text          0x00000000        0x0 c:/program files (x86)/microchip/xc32/v1.42/bin/bin/../../lib/gcc/pic32mx/4.8.3/../../../../pic32mx/lib\libpic32.a(vector0.o)
 .data          0x00000000        0x0 c:/program files (x86)/microchip/xc32/v1.42/bin/bin/../../lib/gcc/pic32mx/4.8.3/../../../../pic32mx/lib\libpic32.a(vector0.o)
 .bss           0x00000000        0x0 c:/program files (x86)/microchip/xc32/v1.42/bin/bin/../../lib/gcc/pic32mx/4.8.3/../../../../pic32mx/lib\libpic32.a(vector0.o)
 .reginfo       0x00000000       0x18 c:/program files (x86)/microchip/xc32/v1.42/bin/bin/../../lib/gcc/pic32mx/4.8.3/../../../../pic32mx/lib\libpic32.a(vector0.o)
 .text          0x00000000        0x0 c:/program files (x86)/microchip/xc32/v1.42/bin/bin/../../lib/gcc/pic32mx/4.8.3/../../../../pic32mx/lib\libpic32.a(vector1.o)
 .data          0x00000000        0x0 c:/program files (x86)/microchip/xc32/v1.42/bin/bin/../../lib/gcc/pic32mx/4.8.3/../../../../pic32mx/lib\libpic32.a(vector1.o)
 .bss           0x00000000        0x0 c:/program files (x86)/microchip/xc32/v1.42/bin/bin/../../lib/gcc/pic32mx/4.8.3/../../../../pic32mx/lib\libpic32.a(vector1.o)
 .reginfo       0x00000000       0x18 c:/program files (x86)/microchip/xc32/v1.42/bin/bin/../../lib/gcc/pic32mx/4.8.3/../../../../pic32mx/lib\libpic32.a(vector1.o)
 .text          0x00000000        0x0 c:/program files (x86)/microchip/xc32/v1.42/bin/bin/../../lib/gcc/pic32mx/4.8.3/../../../../pic32mx/lib\libpic32.a(vector2.o)
 .data          0x00000000        0x0 c:/program files (x86)/microchip/xc32/v1.42/bin/bin/../../lib/gcc/pic32mx/4.8.3/../../../../pic32mx/lib\libpic32.a(vector2.o)
 .bss           0x00000000        0x0 c:/program files (x86)/microchip/xc32/v1.42/bin/bin/../../lib/gcc/pic32mx/4.8.3/../../../../pic32mx/lib\libpic32.a(vector2.o)
 .reginfo       0x00000000       0x18 c:/program files (x86)/microchip/xc32/v1.42/bin/bin/../../lib/gcc/pic32mx/4.8.3/../../../../pic32mx/lib\libpic32.a(vector2.o)
 .text          0x00000000        0x0 c:/program files (x86)/microchip/xc32/v1.42/bin/bin/../../lib/gcc/pic32mx/4.8.3/../../../../pic32mx/lib\libpic32.a(vector3.o)
 .data          0x00000000        0x0 c:/program files (x86)/microchip/xc32/v1.42/bin/bin/../../lib/gcc/pic32mx/4.8.3/../../../../pic32mx/lib\libpic32.a(vector3.o)
 .bss           0x00000000        0x0 c:/program files (x86)/microchip/xc32/v1.42/bin/bin/../../lib/gcc/pic32mx/4.8.3/../../../../pic32mx/lib\libpic32.a(vector3.o)
 .reginfo       0x00000000       0x18 c:/program files (x86)/microchip/xc32/v1.42/bin/bin/../../lib/gcc/pic32mx/4.8.3/../../../../pic32mx/lib\libpic32.a(vector3.o)
 .text          0x00000000        0x0 c:/program files (x86)/microchip/xc32/v1.42/bin/bin/../../lib/gcc/pic32mx/4.8.3/../../../../pic32mx/lib\libpic32.a(vector5.o)
 .data          0x00000000        0x0 c:/program files (x86)/microchip/xc32/v1.42/bin/bin/../../lib/gcc/pic32mx/4.8.3/../../../../pic32mx/lib\libpic32.a(vector5.o)
 .bss           0x00000000        0x0 c:/program files (x86)/microchip/xc32/v1.42/bin/bin/../../lib/gcc/pic32mx/4.8.3/../../../../pic32mx/lib\libpic32.a(vector5.o)
 .reginfo       0x00000000       0x18 c:/program files (x86)/microchip/xc32/v1.42/bin/bin/../../lib/gcc/pic32mx/4.8.3/../../../../pic32mx/lib\libpic32.a(vector5.o)
 .text          0x00000000        0x0 c:/program files (x86)/microchip/xc32/v1.42/bin/bin/../../lib/gcc/pic32mx/4.8.3/../../../../pic32mx/lib\libpic32.a(vector6.o)
 .data          0x00000000        0x0 c:/program files (x86)/microchip/xc32/v1.42/bin/bin/../../lib/gcc/pic32mx/4.8.3/../../../../pic32mx/lib\libpic32.a(vector6.o)
 .bss           0x00000000        0x0 c:/program files (x86)/microchip/xc32/v1.42/bin/bin/../../lib/gcc/pic32mx/4.8.3/../../../../pic32mx/lib\libpic32.a(vector6.o)
 .reginfo       0x00000000       0x18 c:/program files (x86)/microchip/xc32/v1.42/bin/bin/../../lib/gcc/pic32mx/4.8.3/../../../../pic32mx/lib\libpic32.a(vector6.o)
 .text          0x00000000        0x0 c:/program files (x86)/microchip/xc32/v1.42/bin/bin/../../lib/gcc/pic32mx/4.8.3/../../../../pic32mx/lib\libpic32.a(vector7.o)
 .data          0x00000000        0x0 c:/program files (x86)/microchip/xc32/v1.42/bin/bin/../../lib/gcc/pic32mx/4.8.3/../../../../pic32mx/lib\libpic32.a(vector7.o)
 .bss           0x00000000        0x0 c:/program files (x86)/microchip/xc32/v1.42/bin/bin/../../lib/gcc/pic32mx/4.8.3/../../../../pic32mx/lib\libpic32.a(vector7.o)
 .reginfo       0x00000000       0x18 c:/program files (x86)/microchip/xc32/v1.42/bin/bin/../../lib/gcc/pic32mx/4.8.3/../../../../pic32mx/lib\libpic32.a(vector7.o)
 .text          0x00000000        0x0 c:/program files (x86)/microchip/xc32/v1.42/bin/bin/../../lib/gcc/pic32mx/4.8.3/../../../../pic32mx/lib\libpic32.a(vector9.o)
 .data          0x00000000        0x0 c:/program files (x86)/microchip/xc32/v1.42/bin/bin/../../lib/gcc/pic32mx/4.8.3/../../../../pic32mx/lib\libpic32.a(vector9.o)
 .bss           0x00000000        0x0 c:/program files (x86)/microchip/xc32/v1.42/bin/bin/../../lib/gcc/pic32mx/4.8.3/../../../../pic32mx/lib\libpic32.a(vector9.o)
 .reginfo       0x00000000       0x18 c:/program files (x86)/microchip/xc32/v1.42/bin/bin/../../lib/gcc/pic32mx/4.8.3/../../../../pic32mx/lib\libpic32.a(vector9.o)
 .text          0x00000000        0x0 c:/program files (x86)/microchip/xc32/v1.42/bin/bin/../../lib/gcc/pic32mx/4.8.3/../../../../pic32mx/lib\libpic32.a(vector10.o)
 .data          0x00000000        0x0 c:/program files (x86)/microchip/xc32/v1.42/bin/bin/../../lib/gcc/pic32mx/4.8.3/../../../../pic32mx/lib\libpic32.a(vector10.o)
 .bss           0x00000000        0x0 c:/program files (x86)/microchip/xc32/v1.42/bin/bin/../../lib/gcc/pic32mx/4.8.3/../../../../pic32mx/lib\libpic32.a(vector10.o)
 .reginfo       0x00000000       0x18 c:/program files (x86)/microchip/xc32/v1.42/bin/bin/../../lib/gcc/pic32mx/4.8.3/../../../../pic32mx/lib\libpic32.a(vector10.o)
 .text          0x00000000        0x0 c:/program files (x86)/microchip/xc32/v1.42/bin/bin/../../lib/gcc/pic32mx/4.8.3/../../../../pic32mx/lib\libpic32.a(vector11.o)
 .data          0x00000000        0x0 c:/program files (x86)/microchip/xc32/v1.42/bin/bin/../../lib/gcc/pic32mx/4.8.3/../../../../pic32mx/lib\libpic32.a(vector11.o)
 .bss           0x00000000        0x0 c:/program files (x86)/microchip/xc32/v1.42/bin/bin/../../lib/gcc/pic32mx/4.8.3/../../../../pic32mx/lib\libpic32.a(vector11.o)
 .reginfo       0x00000000       0x18 c:/program files (x86)/microchip/xc32/v1.42/bin/bin/../../lib/gcc/pic32mx/4.8.3/../../../../pic32mx/lib\libpic32.a(vector11.o)
 .text          0x00000000        0x0 c:/program files (x86)/microchip/xc32/v1.42/bin/bin/../../lib/gcc/pic32mx/4.8.3/../../../../pic32mx/lib\libpic32.a(vector14.o)
 .data          0x00000000        0x0 c:/program files (x86)/microchip/xc32/v1.42/bin/bin/../../lib/gcc/pic32mx/4.8.3/../../../../pic32mx/lib\libpic32.a(vector14.o)
 .bss           0x00000000        0x0 c:/program files (x86)/microchip/xc32/v1.42/bin/bin/../../lib/gcc/pic32mx/4.8.3/../../../../pic32mx/lib\libpic32.a(vector14.o)
 .reginfo       0x00000000       0x18 c:/program files (x86)/microchip/xc32/v1.42/bin/bin/../../lib/gcc/pic32mx/4.8.3/../../../../pic32mx/lib\libpic32.a(vector14.o)
 .text          0x00000000        0x0 c:/program files (x86)/microchip/xc32/v1.42/bin/bin/../../lib/gcc/pic32mx/4.8.3/../../../../pic32mx/lib\libpic32.a(vector15.o)
 .data          0x00000000        0x0 c:/program files (x86)/microchip/xc32/v1.42/bin/bin/../../lib/gcc/pic32mx/4.8.3/../../../../pic32mx/lib\libpic32.a(vector15.o)
 .bss           0x00000000        0x0 c:/program files (x86)/microchip/xc32/v1.42/bin/bin/../../lib/gcc/pic32mx/4.8.3/../../../../pic32mx/lib\libpic32.a(vector15.o)
 .reginfo       0x00000000       0x18 c:/program files (x86)/microchip/xc32/v1.42/bin/bin/../../lib/gcc/pic32mx/4.8.3/../../../../pic32mx/lib\libpic32.a(vector15.o)
 .text          0x00000000        0x0 c:/program files (x86)/microchip/xc32/v1.42/bin/bin/../../lib/gcc/pic32mx/4.8.3/../../../../pic32mx/lib\libpic32.a(vector16.o)
 .data          0x00000000        0x0 c:/program files (x86)/microchip/xc32/v1.42/bin/bin/../../lib/gcc/pic32mx/4.8.3/../../../../pic32mx/lib\libpic32.a(vector16.o)
 .bss           0x00000000        0x0 c:/program files (x86)/microchip/xc32/v1.42/bin/bin/../../lib/gcc/pic32mx/4.8.3/../../../../pic32mx/lib\libpic32.a(vector16.o)
 .reginfo       0x00000000       0x18 c:/program files (x86)/microchip/xc32/v1.42/bin/bin/../../lib/gcc/pic32mx/4.8.3/../../../../pic32mx/lib\libpic32.a(vector16.o)
 .text          0x00000000        0x0 c:/program files (x86)/microchip/xc32/v1.42/bin/bin/../../lib/gcc/pic32mx/4.8.3/../../../../pic32mx/lib\libpic32.a(vector17.o)
 .data          0x00000000        0x0 c:/program files (x86)/microchip/xc32/v1.42/bin/bin/../../lib/gcc/pic32mx/4.8.3/../../../../pic32mx/lib\libpic32.a(vector17.o)
 .bss           0x00000000        0x0 c:/program files (x86)/microchip/xc32/v1.42/bin/bin/../../lib/gcc/pic32mx/4.8.3/../../../../pic32mx/lib\libpic32.a(vector17.o)
 .reginfo       0x00000000       0x18 c:/program files (x86)/microchip/xc32/v1.42/bin/bin/../../lib/gcc/pic32mx/4.8.3/../../../../pic32mx/lib\libpic32.a(vector17.o)
 .text          0x00000000        0x0 c:/program files (x86)/microchip/xc32/v1.42/bin/bin/../../lib/gcc/pic32mx/4.8.3/../../../../pic32mx/lib\libpic32.a(vector18.o)
 .data          0x00000000        0x0 c:/program files (x86)/microchip/xc32/v1.42/bin/bin/../../lib/gcc/pic32mx/4.8.3/../../../../pic32mx/lib\libpic32.a(vector18.o)
 .bss           0x00000000        0x0 c:/program files (x86)/microchip/xc32/v1.42/bin/bin/../../lib/gcc/pic32mx/4.8.3/../../../../pic32mx/lib\libpic32.a(vector18.o)
 .reginfo       0x00000000       0x18 c:/program files (x86)/microchip/xc32/v1.42/bin/bin/../../lib/gcc/pic32mx/4.8.3/../../../../pic32mx/lib\libpic32.a(vector18.o)
 .text          0x00000000        0x0 c:/program files (x86)/microchip/xc32/v1.42/bin/bin/../../lib/gcc/pic32mx/4.8.3/../../../../pic32mx/lib\libpic32.a(vector19.o)
 .data          0x00000000        0x0 c:/program files (x86)/microchip/xc32/v1.42/bin/bin/../../lib/gcc/pic32mx/4.8.3/../../../../pic32mx/lib\libpic32.a(vector19.o)
 .bss           0x00000000        0x0 c:/program files (x86)/microchip/xc32/v1.42/bin/bin/../../lib/gcc/pic32mx/4.8.3/../../../../pic32mx/lib\libpic32.a(vector19.o)
 .reginfo       0x00000000       0x18 c:/program files (x86)/microchip/xc32/v1.42/bin/bin/../../lib/gcc/pic32mx/4.8.3/../../../../pic32mx/lib\libpic32.a(vector19.o)
 .text          0x00000000        0x0 c:/program files (x86)/microchip/xc32/v1.42/bin/bin/../../lib/gcc/pic32mx/4.8.3/../../../../pic32mx/lib\libpic32.a(vector20.o)
 .data          0x00000000        0x0 c:/program files (x86)/microchip/xc32/v1.42/bin/bin/../../lib/gcc/pic32mx/4.8.3/../../../../pic32mx/lib\libpic32.a(vector20.o)
 .bss           0x00000000        0x0 c:/program files (x86)/microchip/xc32/v1.42/bin/bin/../../lib/gcc/pic32mx/4.8.3/../../../../pic32mx/lib\libpic32.a(vector20.o)
 .reginfo       0x00000000       0x18 c:/program files (x86)/microchip/xc32/v1.42/bin/bin/../../lib/gcc/pic32mx/4.8.3/../../../../pic32mx/lib\libpic32.a(vector20.o)
 .text          0x00000000        0x0 c:/program files (x86)/microchip/xc32/v1.42/bin/bin/../../lib/gcc/pic32mx/4.8.3/../../../../pic32mx/lib\libpic32.a(vector22.o)
 .data          0x00000000        0x0 c:/program files (x86)/microchip/xc32/v1.42/bin/bin/../../lib/gcc/pic32mx/4.8.3/../../../../pic32mx/lib\libpic32.a(vector22.o)
 .bss           0x00000000        0x0 c:/program files (x86)/microchip/xc32/v1.42/bin/bin/../../lib/gcc/pic32mx/4.8.3/../../../../pic32mx/lib\libpic32.a(vector22.o)
 .reginfo       0x00000000       0x18 c:/program files (x86)/microchip/xc32/v1.42/bin/bin/../../lib/gcc/pic32mx/4.8.3/../../../../pic32mx/lib\libpic32.a(vector22.o)
 .text          0x00000000        0x0 c:/program files (x86)/microchip/xc32/v1.42/bin/bin/../../lib/gcc/pic32mx/4.8.3/../../../../pic32mx/lib\libpic32.a(vector23.o)
 .data          0x00000000        0x0 c:/program files (x86)/microchip/xc32/v1.42/bin/bin/../../lib/gcc/pic32mx/4.8.3/../../../../pic32mx/lib\libpic32.a(vector23.o)
 .bss           0x00000000        0x0 c:/program files (x86)/microchip/xc32/v1.42/bin/bin/../../lib/gcc/pic32mx/4.8.3/../../../../pic32mx/lib\libpic32.a(vector23.o)
 .reginfo       0x00000000       0x18 c:/program files (x86)/microchip/xc32/v1.42/bin/bin/../../lib/gcc/pic32mx/4.8.3/../../../../pic32mx/lib\libpic32.a(vector23.o)
 .text          0x00000000        0x0 c:/program files (x86)/microchip/xc32/v1.42/bin/bin/../../lib/gcc/pic32mx/4.8.3/../../../../pic32mx/lib\libpic32.a(vector24.o)
 .data          0x00000000        0x0 c:/program files (x86)/microchip/xc32/v1.42/bin/bin/../../lib/gcc/pic32mx/4.8.3/../../../../pic32mx/lib\libpic32.a(vector24.o)
 .bss           0x00000000        0x0 c:/program files (x86)/microchip/xc32/v1.42/bin/bin/../../lib/gcc/pic32mx/4.8.3/../../../../pic32mx/lib\libpic32.a(vector24.o)
 .reginfo       0x00000000       0x18 c:/program files (x86)/microchip/xc32/v1.42/bin/bin/../../lib/gcc/pic32mx/4.8.3/../../../../pic32mx/lib\libpic32.a(vector24.o)
 .text          0x00000000        0x0 c:/program files (x86)/microchip/xc32/v1.42/bin/bin/../../lib/gcc/pic32mx/4.8.3/../../../../pic32mx/lib\libpic32.a(vector25.o)
 .data          0x00000000        0x0 c:/program files (x86)/microchip/xc32/v1.42/bin/bin/../../lib/gcc/pic32mx/4.8.3/../../../../pic32mx/lib\libpic32.a(vector25.o)
 .bss           0x00000000        0x0 c:/program files (x86)/microchip/xc32/v1.42/bin/bin/../../lib/gcc/pic32mx/4.8.3/../../../../pic32mx/lib\libpic32.a(vector25.o)
 .reginfo       0x00000000       0x18 c:/program files (x86)/microchip/xc32/v1.42/bin/bin/../../lib/gcc/pic32mx/4.8.3/../../../../pic32mx/lib\libpic32.a(vector25.o)
 .text          0x00000000        0x0 c:/program files (x86)/microchip/xc32/v1.42/bin/bin/../../lib/gcc/pic32mx/4.8.3/../../../../pic32mx/lib\libpic32.a(vector26.o)
 .data          0x00000000        0x0 c:/program files (x86)/microchip/xc32/v1.42/bin/bin/../../lib/gcc/pic32mx/4.8.3/../../../../pic32mx/lib\libpic32.a(vector26.o)
 .bss           0x00000000        0x0 c:/program files (x86)/microchip/xc32/v1.42/bin/bin/../../lib/gcc/pic32mx/4.8.3/../../../../pic32mx/lib\libpic32.a(vector26.o)
 .reginfo       0x00000000       0x18 c:/program files (x86)/microchip/xc32/v1.42/bin/bin/../../lib/gcc/pic32mx/4.8.3/../../../../pic32mx/lib\libpic32.a(vector26.o)
 .text          0x00000000        0x0 c:/program files (x86)/microchip/xc32/v1.42/bin/bin/../../lib/gcc/pic32mx/4.8.3/../../../../pic32mx/lib\libpic32.a(vector27.o)
 .data          0x00000000        0x0 c:/program files (x86)/microchip/xc32/v1.42/bin/bin/../../lib/gcc/pic32mx/4.8.3/../../../../pic32mx/lib\libpic32.a(vector27.o)
 .bss           0x00000000        0x0 c:/program files (x86)/microchip/xc32/v1.42/bin/bin/../../lib/gcc/pic32mx/4.8.3/../../../../pic32mx/lib\libpic32.a(vector27.o)
 .reginfo       0x00000000       0x18 c:/program files (x86)/microchip/xc32/v1.42/bin/bin/../../lib/gcc/pic32mx/4.8.3/../../../../pic32mx/lib\libpic32.a(vector27.o)
 .text          0x00000000        0x0 c:/program files (x86)/microchip/xc32/v1.42/bin/bin/../../lib/gcc/pic32mx/4.8.3/../../../../pic32mx/lib\libpic32.a(vector28.o)
 .data          0x00000000        0x0 c:/program files (x86)/microchip/xc32/v1.42/bin/bin/../../lib/gcc/pic32mx/4.8.3/../../../../pic32mx/lib\libpic32.a(vector28.o)
 .bss           0x00000000        0x0 c:/program files (x86)/microchip/xc32/v1.42/bin/bin/../../lib/gcc/pic32mx/4.8.3/../../../../pic32mx/lib\libpic32.a(vector28.o)
 .reginfo       0x00000000       0x18 c:/program files (x86)/microchip/xc32/v1.42/bin/bin/../../lib/gcc/pic32mx/4.8.3/../../../../pic32mx/lib\libpic32.a(vector28.o)
 .text          0x00000000        0x0 c:/program files (x86)/microchip/xc32/v1.42/bin/bin/../../lib/gcc/pic32mx/4.8.3/../../../../pic32mx/lib\libpic32.a(vector29.o)
 .data          0x00000000        0x0 c:/program files (x86)/microchip/xc32/v1.42/bin/bin/../../lib/gcc/pic32mx/4.8.3/../../../../pic32mx/lib\libpic32.a(vector29.o)
 .bss           0x00000000        0x0 c:/program files (x86)/microchip/xc32/v1.42/bin/bin/../../lib/gcc/pic32mx/4.8.3/../../../../pic32mx/lib\libpic32.a(vector29.o)
 .reginfo       0x00000000       0x18 c:/program files (x86)/microchip/xc32/v1.42/bin/bin/../../lib/gcc/pic32mx/4.8.3/../../../../pic32mx/lib\libpic32.a(vector29.o)
 .text          0x00000000        0x0 c:/program files (x86)/microchip/xc32/v1.42/bin/bin/../../lib/gcc/pic32mx/4.8.3/../../../../pic32mx/lib\libpic32.a(vector30.o)
 .data          0x00000000        0x0 c:/program files (x86)/microchip/xc32/v1.42/bin/bin/../../lib/gcc/pic32mx/4.8.3/../../../../pic32mx/lib\libpic32.a(vector30.o)
 .bss           0x00000000        0x0 c:/program files (x86)/microchip/xc32/v1.42/bin/bin/../../lib/gcc/pic32mx/4.8.3/../../../../pic32mx/lib\libpic32.a(vector30.o)
 .reginfo       0x00000000       0x18 c:/program files (x86)/microchip/xc32/v1.42/bin/bin/../../lib/gcc/pic32mx/4.8.3/../../../../pic32mx/lib\libpic32.a(vector30.o)
 .text          0x00000000        0x0 c:/program files (x86)/microchip/xc32/v1.42/bin/bin/../../lib/gcc/pic32mx/4.8.3/../../../../pic32mx/lib\libpic32.a(vector31.o)
 .data          0x00000000        0x0 c:/program files (x86)/microchip/xc32/v1.42/bin/bin/../../lib/gcc/pic32mx/4.8.3/../../../../pic32mx/lib\libpic32.a(vector31.o)
 .bss           0x00000000        0x0 c:/program files (x86)/microchip/xc32/v1.42/bin/bin/../../lib/gcc/pic32mx/4.8.3/../../../../pic32mx/lib\libpic32.a(vector31.o)
 .reginfo       0x00000000       0x18 c:/program files (x86)/microchip/xc32/v1.42/bin/bin/../../lib/gcc/pic32mx/4.8.3/../../../../pic32mx/lib\libpic32.a(vector31.o)
 .text          0x00000000        0x0 c:/program files (x86)/microchip/xc32/v1.42/bin/bin/../../lib/gcc/pic32mx/4.8.3/../../../../pic32mx/lib\libpic32.a(vector32.o)
 .data          0x00000000        0x0 c:/program files (x86)/microchip/xc32/v1.42/bin/bin/../../lib/gcc/pic32mx/4.8.3/../../../../pic32mx/lib\libpic32.a(vector32.o)
 .bss           0x00000000        0x0 c:/program files (x86)/microchip/xc32/v1.42/bin/bin/../../lib/gcc/pic32mx/4.8.3/../../../../pic32mx/lib\libpic32.a(vector32.o)
 .reginfo       0x00000000       0x18 c:/program files (x86)/microchip/xc32/v1.42/bin/bin/../../lib/gcc/pic32mx/4.8.3/../../../../pic32mx/lib\libpic32.a(vector32.o)
 .text          0x00000000        0x0 c:/program files (x86)/microchip/xc32/v1.42/bin/bin/../../lib/gcc/pic32mx/4.8.3/../../../../pic32mx/lib\libpic32.a(vector34.o)
 .data          0x00000000        0x0 c:/program files (x86)/microchip/xc32/v1.42/bin/bin/../../lib/gcc/pic32mx/4.8.3/../../../../pic32mx/lib\libpic32.a(vector34.o)
 .bss           0x00000000        0x0 c:/program files (x86)/microchip/xc32/v1.42/bin/bin/../../lib/gcc/pic32mx/4.8.3/../../../../pic32mx/lib\libpic32.a(vector34.o)
 .reginfo       0x00000000       0x18 c:/program files (x86)/microchip/xc32/v1.42/bin/bin/../../lib/gcc/pic32mx/4.8.3/../../../../pic32mx/lib\libpic32.a(vector34.o)
 .text          0x00000000        0x0 c:/program files (x86)/microchip/xc32/v1.42/bin/bin/../../lib/gcc/pic32mx/4.8.3/../../../../pic32mx/lib\libpic32.a(vector35.o)
 .data          0x00000000        0x0 c:/program files (x86)/microchip/xc32/v1.42/bin/bin/../../lib/gcc/pic32mx/4.8.3/../../../../pic32mx/lib\libpic32.a(vector35.o)
 .bss           0x00000000        0x0 c:/program files (x86)/microchip/xc32/v1.42/bin/bin/../../lib/gcc/pic32mx/4.8.3/../../../../pic32mx/lib\libpic32.a(vector35.o)
 .reginfo       0x00000000       0x18 c:/program files (x86)/microchip/xc32/v1.42/bin/bin/../../lib/gcc/pic32mx/4.8.3/../../../../pic32mx/lib\libpic32.a(vector35.o)
 .text          0x00000000        0x0 c:/program files (x86)/microchip/xc32/v1.42/bin/bin/../../lib/gcc/pic32mx/4.8.3/../../../../pic32mx/lib\libpic32.a(vector36.o)
 .data          0x00000000        0x0 c:/program files (x86)/microchip/xc32/v1.42/bin/bin/../../lib/gcc/pic32mx/4.8.3/../../../../pic32mx/lib\libpic32.a(vector36.o)
 .bss           0x00000000        0x0 c:/program files (x86)/microchip/xc32/v1.42/bin/bin/../../lib/gcc/pic32mx/4.8.3/../../../../pic32mx/lib\libpic32.a(vector36.o)
 .reginfo       0x00000000       0x18 c:/program files (x86)/microchip/xc32/v1.42/bin/bin/../../lib/gcc/pic32mx/4.8.3/../../../../pic32mx/lib\libpic32.a(vector36.o)
 .text          0x00000000        0x0 c:/program files (x86)/microchip/xc32/v1.42/bin/bin/../../lib/gcc/pic32mx/4.8.3/../../../../pic32mx/lib\libpic32.a(vector37.o)
 .data          0x00000000        0x0 c:/program files (x86)/microchip/xc32/v1.42/bin/bin/../../lib/gcc/pic32mx/4.8.3/../../../../pic32mx/lib\libpic32.a(vector37.o)
 .bss           0x00000000        0x0 c:/program files (x86)/microchip/xc32/v1.42/bin/bin/../../lib/gcc/pic32mx/4.8.3/../../../../pic32mx/lib\libpic32.a(vector37.o)
 .reginfo       0x00000000       0x18 c:/program files (x86)/microchip/xc32/v1.42/bin/bin/../../lib/gcc/pic32mx/4.8.3/../../../../pic32mx/lib\libpic32.a(vector37.o)
 .text          0x00000000        0x0 c:/program files (x86)/microchip/xc32/v1.42/bin/bin/../../lib/gcc/pic32mx/4.8.3/../../../../pic32mx/lib\libpic32.a(vector38.o)
 .data          0x00000000        0x0 c:/program files (x86)/microchip/xc32/v1.42/bin/bin/../../lib/gcc/pic32mx/4.8.3/../../../../pic32mx/lib\libpic32.a(vector38.o)
 .bss           0x00000000        0x0 c:/program files (x86)/microchip/xc32/v1.42/bin/bin/../../lib/gcc/pic32mx/4.8.3/../../../../pic32mx/lib\libpic32.a(vector38.o)
 .reginfo       0x00000000       0x18 c:/program files (x86)/microchip/xc32/v1.42/bin/bin/../../lib/gcc/pic32mx/4.8.3/../../../../pic32mx/lib\libpic32.a(vector38.o)
 .text          0x00000000        0x0 c:/program files (x86)/microchip/xc32/v1.42/bin/bin/../../lib/gcc/pic32mx/4.8.3/../../../../pic32mx/lib\libpic32.a(vector39.o)
 .data          0x00000000        0x0 c:/program files (x86)/microchip/xc32/v1.42/bin/bin/../../lib/gcc/pic32mx/4.8.3/../../../../pic32mx/lib\libpic32.a(vector39.o)
 .bss           0x00000000        0x0 c:/program files (x86)/microchip/xc32/v1.42/bin/bin/../../lib/gcc/pic32mx/4.8.3/../../../../pic32mx/lib\libpic32.a(vector39.o)
 .reginfo       0x00000000       0x18 c:/program files (x86)/microchip/xc32/v1.42/bin/bin/../../lib/gcc/pic32mx/4.8.3/../../../../pic32mx/lib\libpic32.a(vector39.o)
 .text          0x00000000        0x0 c:/program files (x86)/microchip/xc32/v1.42/bin/bin/../../lib/gcc/pic32mx/4.8.3/../../../../pic32mx/lib\libpic32.a(vector40.o)
 .data          0x00000000        0x0 c:/program files (x86)/microchip/xc32/v1.42/bin/bin/../../lib/gcc/pic32mx/4.8.3/../../../../pic32mx/lib\libpic32.a(vector40.o)
 .bss           0x00000000        0x0 c:/program files (x86)/microchip/xc32/v1.42/bin/bin/../../lib/gcc/pic32mx/4.8.3/../../../../pic32mx/lib\libpic32.a(vector40.o)
 .reginfo       0x00000000       0x18 c:/program files (x86)/microchip/xc32/v1.42/bin/bin/../../lib/gcc/pic32mx/4.8.3/../../../../pic32mx/lib\libpic32.a(vector40.o)
 .text          0x00000000        0x0 c:/program files (x86)/microchip/xc32/v1.42/bin/bin/../../lib/gcc/pic32mx/4.8.3/../../../../pic32mx/lib\libpic32.a(vector41.o)
 .data          0x00000000        0x0 c:/program files (x86)/microchip/xc32/v1.42/bin/bin/../../lib/gcc/pic32mx/4.8.3/../../../../pic32mx/lib\libpic32.a(vector41.o)
 .bss           0x00000000        0x0 c:/program files (x86)/microchip/xc32/v1.42/bin/bin/../../lib/gcc/pic32mx/4.8.3/../../../../pic32mx/lib\libpic32.a(vector41.o)
 .reginfo       0x00000000       0x18 c:/program files (x86)/microchip/xc32/v1.42/bin/bin/../../lib/gcc/pic32mx/4.8.3/../../../../pic32mx/lib\libpic32.a(vector41.o)
 .text          0x00000000        0x0 c:/program files (x86)/microchip/xc32/v1.42/bin/bin/../../lib/gcc/pic32mx/4.8.3/../../../../pic32mx/lib\libpic32.a(vector42.o)
 .data          0x00000000        0x0 c:/program files (x86)/microchip/xc32/v1.42/bin/bin/../../lib/gcc/pic32mx/4.8.3/../../../../pic32mx/lib\libpic32.a(vector42.o)
 .bss           0x00000000        0x0 c:/program files (x86)/microchip/xc32/v1.42/bin/bin/../../lib/gcc/pic32mx/4.8.3/../../../../pic32mx/lib\libpic32.a(vector42.o)
 .reginfo       0x00000000       0x18 c:/program files (x86)/microchip/xc32/v1.42/bin/bin/../../lib/gcc/pic32mx/4.8.3/../../../../pic32mx/lib\libpic32.a(vector42.o)
 .text          0x00000000        0x0 c:/program files (x86)/microchip/xc32/v1.42/bin/bin/../../lib/gcc/pic32mx/4.8.3/../../../../pic32mx/lib\libpic32.a(vector43.o)
 .data          0x00000000        0x0 c:/program files (x86)/microchip/xc32/v1.42/bin/bin/../../lib/gcc/pic32mx/4.8.3/../../../../pic32mx/lib\libpic32.a(vector43.o)
 .bss           0x00000000        0x0 c:/program files (x86)/microchip/xc32/v1.42/bin/bin/../../lib/gcc/pic32mx/4.8.3/../../../../pic32mx/lib\libpic32.a(vector43.o)
 .reginfo       0x00000000       0x18 c:/program files (x86)/microchip/xc32/v1.42/bin/bin/../../lib/gcc/pic32mx/4.8.3/../../../../pic32mx/lib\libpic32.a(vector43.o)
 .text          0x00000000        0x0 c:/program files (x86)/microchip/xc32/v1.42/bin/bin/../../lib/gcc/pic32mx/4.8.3/../../../../pic32mx/lib\libpic32.a(vector44.o)
 .data          0x00000000        0x0 c:/program files (x86)/microchip/xc32/v1.42/bin/bin/../../lib/gcc/pic32mx/4.8.3/../../../../pic32mx/lib\libpic32.a(vector44.o)
 .bss           0x00000000        0x0 c:/program files (x86)/microchip/xc32/v1.42/bin/bin/../../lib/gcc/pic32mx/4.8.3/../../../../pic32mx/lib\libpic32.a(vector44.o)
 .reginfo       0x00000000       0x18 c:/program files (x86)/microchip/xc32/v1.42/bin/bin/../../lib/gcc/pic32mx/4.8.3/../../../../pic32mx/lib\libpic32.a(vector44.o)
 .text          0x00000000        0x0 c:/program files (x86)/microchip/xc32/v1.42/bin/bin/../../lib/gcc/pic32mx/4.8.3/../../../../pic32mx/lib\libpic32.a(vector45.o)
 .data          0x00000000        0x0 c:/program files (x86)/microchip/xc32/v1.42/bin/bin/../../lib/gcc/pic32mx/4.8.3/../../../../pic32mx/lib\libpic32.a(vector45.o)
 .bss           0x00000000        0x0 c:/program files (x86)/microchip/xc32/v1.42/bin/bin/../../lib/gcc/pic32mx/4.8.3/../../../../pic32mx/lib\libpic32.a(vector45.o)
 .reginfo       0x00000000       0x18 c:/program files (x86)/microchip/xc32/v1.42/bin/bin/../../lib/gcc/pic32mx/4.8.3/../../../../pic32mx/lib\libpic32.a(vector45.o)
 .text          0x00000000        0x0 c:/program files (x86)/microchip/xc32/v1.42/bin/bin/../../lib/gcc/pic32mx/4.8.3/../../../../pic32mx/lib\libpic32.a(vector46.o)
 .data          0x00000000        0x0 c:/program files (x86)/microchip/xc32/v1.42/bin/bin/../../lib/gcc/pic32mx/4.8.3/../../../../pic32mx/lib\libpic32.a(vector46.o)
 .bss           0x00000000        0x0 c:/program files (x86)/microchip/xc32/v1.42/bin/bin/../../lib/gcc/pic32mx/4.8.3/../../../../pic32mx/lib\libpic32.a(vector46.o)
 .reginfo       0x00000000       0x18 c:/program files (x86)/microchip/xc32/v1.42/bin/bin/../../lib/gcc/pic32mx/4.8.3/../../../../pic32mx/lib\libpic32.a(vector46.o)
 .text          0x00000000        0x0 c:/program files (x86)/microchip/xc32/v1.42/bin/bin/../../lib/gcc/pic32mx/4.8.3/../../../../pic32mx/lib\libpic32.a(vector47.o)
 .data          0x00000000        0x0 c:/program files (x86)/microchip/xc32/v1.42/bin/bin/../../lib/gcc/pic32mx/4.8.3/../../../../pic32mx/lib\libpic32.a(vector47.o)
 .bss           0x00000000        0x0 c:/program files (x86)/microchip/xc32/v1.42/bin/bin/../../lib/gcc/pic32mx/4.8.3/../../../../pic32mx/lib\libpic32.a(vector47.o)
 .reginfo       0x00000000       0x18 c:/program files (x86)/microchip/xc32/v1.42/bin/bin/../../lib/gcc/pic32mx/4.8.3/../../../../pic32mx/lib\libpic32.a(vector47.o)
 .text          0x00000000        0x0 c:/program files (x86)/microchip/xc32/v1.42/bin/bin/../../lib/gcc/pic32mx/4.8.3/../../../../pic32mx/lib\libpic32.a(vector49.o)
 .data          0x00000000        0x0 c:/program files (x86)/microchip/xc32/v1.42/bin/bin/../../lib/gcc/pic32mx/4.8.3/../../../../pic32mx/lib\libpic32.a(vector49.o)
 .bss           0x00000000        0x0 c:/program files (x86)/microchip/xc32/v1.42/bin/bin/../../lib/gcc/pic32mx/4.8.3/../../../../pic32mx/lib\libpic32.a(vector49.o)
 .reginfo       0x00000000       0x18 c:/program files (x86)/microchip/xc32/v1.42/bin/bin/../../lib/gcc/pic32mx/4.8.3/../../../../pic32mx/lib\libpic32.a(vector49.o)
 .text          0x00000000        0x0 c:/program files (x86)/microchip/xc32/v1.42/bin/bin/../../lib/gcc/pic32mx/4.8.3/../../../../pic32mx/lib\libpic32.a(vector50.o)
 .data          0x00000000        0x0 c:/program files (x86)/microchip/xc32/v1.42/bin/bin/../../lib/gcc/pic32mx/4.8.3/../../../../pic32mx/lib\libpic32.a(vector50.o)
 .bss           0x00000000        0x0 c:/program files (x86)/microchip/xc32/v1.42/bin/bin/../../lib/gcc/pic32mx/4.8.3/../../../../pic32mx/lib\libpic32.a(vector50.o)
 .reginfo       0x00000000       0x18 c:/program files (x86)/microchip/xc32/v1.42/bin/bin/../../lib/gcc/pic32mx/4.8.3/../../../../pic32mx/lib\libpic32.a(vector50.o)
 .text          0x00000000        0x0 c:/program files (x86)/microchip/xc32/v1.42/bin/bin/../../lib/gcc/pic32mx/4.8.3/../../../../pic32mx/lib\libpic32.a(vector51.o)
 .data          0x00000000        0x0 c:/program files (x86)/microchip/xc32/v1.42/bin/bin/../../lib/gcc/pic32mx/4.8.3/../../../../pic32mx/lib\libpic32.a(vector51.o)
 .bss           0x00000000        0x0 c:/program files (x86)/microchip/xc32/v1.42/bin/bin/../../lib/gcc/pic32mx/4.8.3/../../../../pic32mx/lib\libpic32.a(vector51.o)
 .reginfo       0x00000000       0x18 c:/program files (x86)/microchip/xc32/v1.42/bin/bin/../../lib/gcc/pic32mx/4.8.3/../../../../pic32mx/lib\libpic32.a(vector51.o)
 .text          0x00000000        0x0 c:/program files (x86)/microchip/xc32/v1.42/bin/bin/../../lib/gcc/pic32mx/4.8.3/../../../../pic32mx/lib\libpic32.a(defaultinterrupt.o)
 .data          0x00000000        0x0 c:/program files (x86)/microchip/xc32/v1.42/bin/bin/../../lib/gcc/pic32mx/4.8.3/../../../../pic32mx/lib\libpic32.a(defaultinterrupt.o)
 .bss           0x00000000        0x0 c:/program files (x86)/microchip/xc32/v1.42/bin/bin/../../lib/gcc/pic32mx/4.8.3/../../../../pic32mx/lib\libpic32.a(defaultinterrupt.o)
 .reginfo       0x00000000       0x18 c:/program files (x86)/microchip/xc32/v1.42/bin/bin/../../lib/gcc/pic32mx/4.8.3/../../../../pic32mx/lib\libpic32.a(defaultinterrupt.o)
 .text          0x00000000        0x0 c:/program files (x86)/microchip/xc32/v1.42/bin/bin/../../lib/gcc/pic32mx/4.8.3/../../../../pic32mx/lib\libm.a(fp32div.o)
 .data          0x00000000        0x0 c:/program files (x86)/microchip/xc32/v1.42/bin/bin/../../lib/gcc/pic32mx/4.8.3/../../../../pic32mx/lib\libm.a(fp32div.o)
 .bss           0x00000000        0x0 c:/program files (x86)/microchip/xc32/v1.42/bin/bin/../../lib/gcc/pic32mx/4.8.3/../../../../pic32mx/lib\libm.a(fp32div.o)
 .reginfo       0x00000000       0x18 c:/program files (x86)/microchip/xc32/v1.42/bin/bin/../../lib/gcc/pic32mx/4.8.3/../../../../pic32mx/lib\libm.a(fp32div.o)
 .text          0x00000000        0x0 c:/program files (x86)/microchip/xc32/v1.42/bin/bin/../../lib/gcc/pic32mx/4.8.3/../../../../pic32mx/lib\libm.a(fp32mul.o)
 .data          0x00000000        0x0 c:/program files (x86)/microchip/xc32/v1.42/bin/bin/../../lib/gcc/pic32mx/4.8.3/../../../../pic32mx/lib\libm.a(fp32mul.o)
 .bss           0x00000000        0x0 c:/program files (x86)/microchip/xc32/v1.42/bin/bin/../../lib/gcc/pic32mx/4.8.3/../../../../pic32mx/lib\libm.a(fp32mul.o)
 .reginfo       0x00000000       0x18 c:/program files (x86)/microchip/xc32/v1.42/bin/bin/../../lib/gcc/pic32mx/4.8.3/../../../../pic32mx/lib\libm.a(fp32mul.o)
 .text          0x00000000        0x0 c:/program files (x86)/microchip/xc32/v1.42/bin/bin/../../lib/gcc/pic32mx/4.8.3/../../../../pic32mx/lib\libm.a(fp32subadd.o)
 .data          0x00000000        0x0 c:/program files (x86)/microchip/xc32/v1.42/bin/bin/../../lib/gcc/pic32mx/4.8.3/../../../../pic32mx/lib\libm.a(fp32subadd.o)
 .bss           0x00000000        0x0 c:/program files (x86)/microchip/xc32/v1.42/bin/bin/../../lib/gcc/pic32mx/4.8.3/../../../../pic32mx/lib\libm.a(fp32subadd.o)
 .reginfo       0x00000000       0x18 c:/program files (x86)/microchip/xc32/v1.42/bin/bin/../../lib/gcc/pic32mx/4.8.3/../../../../pic32mx/lib\libm.a(fp32subadd.o)
 .text          0x00000000        0x0 c:/program files (x86)/microchip/xc32/v1.42/bin/bin/../../lib/gcc/pic32mx/4.8.3/../../../../pic32mx/lib\libm.a(fptoul.o)
 .data          0x00000000        0x0 c:/program files (x86)/microchip/xc32/v1.42/bin/bin/../../lib/gcc/pic32mx/4.8.3/../../../../pic32mx/lib\libm.a(fptoul.o)
 .bss           0x00000000        0x0 c:/program files (x86)/microchip/xc32/v1.42/bin/bin/../../lib/gcc/pic32mx/4.8.3/../../../../pic32mx/lib\libm.a(fptoul.o)
 .reginfo       0x00000000       0x18 c:/program files (x86)/microchip/xc32/v1.42/bin/bin/../../lib/gcc/pic32mx/4.8.3/../../../../pic32mx/lib\libm.a(fptoul.o)
 .text          0x00000000        0x0 c:/program files (x86)/microchip/xc32/v1.42/bin/bin/../../lib/gcc/pic32mx/4.8.3/../../../../pic32mx/lib\libm.a(sitofp.o)
 .data          0x00000000        0x0 c:/program files (x86)/microchip/xc32/v1.42/bin/bin/../../lib/gcc/pic32mx/4.8.3/../../../../pic32mx/lib\libm.a(sitofp.o)
 .bss           0x00000000        0x0 c:/program files (x86)/microchip/xc32/v1.42/bin/bin/../../lib/gcc/pic32mx/4.8.3/../../../../pic32mx/lib\libm.a(sitofp.o)
 .reginfo       0x00000000       0x18 c:/program files (x86)/microchip/xc32/v1.42/bin/bin/../../lib/gcc/pic32mx/4.8.3/../../../../pic32mx/lib\libm.a(sitofp.o)
 .text          0x00000000        0x0 c:/program files (x86)/microchip/xc32/v1.42/bin/bin/../../lib/gcc/pic32mx/4.8.3/../../../../pic32mx/lib\libc.a(calloc.o)
 .data          0x00000000        0x0 c:/program files (x86)/microchip/xc32/v1.42/bin/bin/../../lib/gcc/pic32mx/4.8.3/../../../../pic32mx/lib\libc.a(calloc.o)
 .bss           0x00000000        0x0 c:/program files (x86)/microchip/xc32/v1.42/bin/bin/../../lib/gcc/pic32mx/4.8.3/../../../../pic32mx/lib\libc.a(calloc.o)
 .reginfo       0x00000000       0x18 c:/program files (x86)/microchip/xc32/v1.42/bin/bin/../../lib/gcc/pic32mx/4.8.3/../../../../pic32mx/lib\libc.a(calloc.o)
 .text          0x00000000        0x0 c:/program files (x86)/microchip/xc32/v1.42/bin/bin/../../lib/gcc/pic32mx/4.8.3/../../../../pic32mx/lib\libc.a(ctime.o)
 .data          0x00000000        0x0 c:/program files (x86)/microchip/xc32/v1.42/bin/bin/../../lib/gcc/pic32mx/4.8.3/../../../../pic32mx/lib\libc.a(ctime.o)
 .bss           0x00000000       0x48 c:/program files (x86)/microchip/xc32/v1.42/bin/bin/../../lib/gcc/pic32mx/4.8.3/../../../../pic32mx/lib\libc.a(ctime.o)
 .reginfo       0x00000000       0x18 c:/program files (x86)/microchip/xc32/v1.42/bin/bin/../../lib/gcc/pic32mx/4.8.3/../../../../pic32mx/lib\libc.a(ctime.o)
 .text.dylen.part.0
                0x00000000       0x68 c:/program files (x86)/microchip/xc32/v1.42/bin/bin/../../lib/gcc/pic32mx/4.8.3/../../../../pic32mx/lib\libc.a(ctime.o)
 .text.gmtime   0x00000000      0x1a4 c:/program files (x86)/microchip/xc32/v1.42/bin/bin/../../lib/gcc/pic32mx/4.8.3/../../../../pic32mx/lib\libc.a(ctime.o)
 .text.localtime
                0x00000000       0x3c c:/program files (x86)/microchip/xc32/v1.42/bin/bin/../../lib/gcc/pic32mx/4.8.3/../../../../pic32mx/lib\libc.a(ctime.o)
 .rodata        0x00000000       0x4c c:/program files (x86)/microchip/xc32/v1.42/bin/bin/../../lib/gcc/pic32mx/4.8.3/../../../../pic32mx/lib\libc.a(ctime.o)
 .text.asctime  0x00000000      0x2e4 c:/program files (x86)/microchip/xc32/v1.42/bin/bin/../../lib/gcc/pic32mx/4.8.3/../../../../pic32mx/lib\libc.a(ctime.o)
 .text.ctime    0x00000000       0x44 c:/program files (x86)/microchip/xc32/v1.42/bin/bin/../../lib/gcc/pic32mx/4.8.3/../../../../pic32mx/lib\libc.a(ctime.o)
 .text          0x00000000        0x0 c:/program files (x86)/microchip/xc32/v1.42/bin/bin/../../lib/gcc/pic32mx/4.8.3/../../../../pic32mx/lib\libc.a(ctype.o)
 .data          0x00000000        0x0 c:/program files (x86)/microchip/xc32/v1.42/bin/bin/../../lib/gcc/pic32mx/4.8.3/../../../../pic32mx/lib\libc.a(ctype.o)
 .bss           0x00000000        0x0 c:/program files (x86)/microchip/xc32/v1.42/bin/bin/../../lib/gcc/pic32mx/4.8.3/../../../../pic32mx/lib\libc.a(ctype.o)
 .reginfo       0x00000000       0x18 c:/program files (x86)/microchip/xc32/v1.42/bin/bin/../../lib/gcc/pic32mx/4.8.3/../../../../pic32mx/lib\libc.a(ctype.o)
 .text          0x00000000        0x0 c:/program files (x86)/microchip/xc32/v1.42/bin/bin/../../lib/gcc/pic32mx/4.8.3/../../../../pic32mx/lib\libc.a(ctypef.o)
 .data          0x00000000        0x0 c:/program files (x86)/microchip/xc32/v1.42/bin/bin/../../lib/gcc/pic32mx/4.8.3/../../../../pic32mx/lib\libc.a(ctypef.o)
 .bss           0x00000000        0x0 c:/program files (x86)/microchip/xc32/v1.42/bin/bin/../../lib/gcc/pic32mx/4.8.3/../../../../pic32mx/lib\libc.a(ctypef.o)
 .reginfo       0x00000000       0x18 c:/program files (x86)/microchip/xc32/v1.42/bin/bin/../../lib/gcc/pic32mx/4.8.3/../../../../pic32mx/lib\libc.a(ctypef.o)
 .text.tolower  0x00000000       0x24 c:/program files (x86)/microchip/xc32/v1.42/bin/bin/../../lib/gcc/pic32mx/4.8.3/../../../../pic32mx/lib\libc.a(ctypef.o)
 .text.isalnum  0x00000000       0x18 c:/program files (x86)/microchip/xc32/v1.42/bin/bin/../../lib/gcc/pic32mx/4.8.3/../../../../pic32mx/lib\libc.a(ctypef.o)
 .text.isalpha  0x00000000       0x18 c:/program files (x86)/microchip/xc32/v1.42/bin/bin/../../lib/gcc/pic32mx/4.8.3/../../../../pic32mx/lib\libc.a(ctypef.o)
 .text.isascii  0x00000000        0x8 c:/program files (x86)/microchip/xc32/v1.42/bin/bin/../../lib/gcc/pic32mx/4.8.3/../../../../pic32mx/lib\libc.a(ctypef.o)
 .text.iscntrl  0x00000000       0x18 c:/program files (x86)/microchip/xc32/v1.42/bin/bin/../../lib/gcc/pic32mx/4.8.3/../../../../pic32mx/lib\libc.a(ctypef.o)
 .text.isdigit  0x00000000       0x18 c:/program files (x86)/microchip/xc32/v1.42/bin/bin/../../lib/gcc/pic32mx/4.8.3/../../../../pic32mx/lib\libc.a(ctypef.o)
 .text.isgraph  0x00000000       0x18 c:/program files (x86)/microchip/xc32/v1.42/bin/bin/../../lib/gcc/pic32mx/4.8.3/../../../../pic32mx/lib\libc.a(ctypef.o)
 .text.islower  0x00000000       0x18 c:/program files (x86)/microchip/xc32/v1.42/bin/bin/../../lib/gcc/pic32mx/4.8.3/../../../../pic32mx/lib\libc.a(ctypef.o)
 .text.isprint  0x00000000       0x18 c:/program files (x86)/microchip/xc32/v1.42/bin/bin/../../lib/gcc/pic32mx/4.8.3/../../../../pic32mx/lib\libc.a(ctypef.o)
 .text.ispunct  0x00000000       0x18 c:/program files (x86)/microchip/xc32/v1.42/bin/bin/../../lib/gcc/pic32mx/4.8.3/../../../../pic32mx/lib\libc.a(ctypef.o)
 .text.isspace  0x00000000       0x18 c:/program files (x86)/microchip/xc32/v1.42/bin/bin/../../lib/gcc/pic32mx/4.8.3/../../../../pic32mx/lib\libc.a(ctypef.o)
 .text.isupper  0x00000000       0x18 c:/program files (x86)/microchip/xc32/v1.42/bin/bin/../../lib/gcc/pic32mx/4.8.3/../../../../pic32mx/lib\libc.a(ctypef.o)
 .text.isxdigit
                0x00000000       0x18 c:/program files (x86)/microchip/xc32/v1.42/bin/bin/../../lib/gcc/pic32mx/4.8.3/../../../../pic32mx/lib\libc.a(ctypef.o)
 .text.toascii  0x00000000        0x8 c:/program files (x86)/microchip/xc32/v1.42/bin/bin/../../lib/gcc/pic32mx/4.8.3/../../../../pic32mx/lib\libc.a(ctypef.o)
 .text._tolower
                0x00000000        0x8 c:/program files (x86)/microchip/xc32/v1.42/bin/bin/../../lib/gcc/pic32mx/4.8.3/../../../../pic32mx/lib\libc.a(ctypef.o)
 .text._toupper
                0x00000000        0x8 c:/program files (x86)/microchip/xc32/v1.42/bin/bin/../../lib/gcc/pic32mx/4.8.3/../../../../pic32mx/lib\libc.a(ctypef.o)
 .text          0x00000000        0x0 c:/program files (x86)/microchip/xc32/v1.42/bin/bin/../../lib/gcc/pic32mx/4.8.3/../../../../pic32mx/lib\libc.a(malloc.o)
 .data          0x00000000        0x0 c:/program files (x86)/microchip/xc32/v1.42/bin/bin/../../lib/gcc/pic32mx/4.8.3/../../../../pic32mx/lib\libc.a(malloc.o)
 .reginfo       0x00000000       0x18 c:/program files (x86)/microchip/xc32/v1.42/bin/bin/../../lib/gcc/pic32mx/4.8.3/../../../../pic32mx/lib\libc.a(malloc.o)
 .text.realloc  0x00000000      0x14c c:/program files (x86)/microchip/xc32/v1.42/bin/bin/../../lib/gcc/pic32mx/4.8.3/../../../../pic32mx/lib\libc.a(malloc.o)
 .text          0x00000000        0x0 c:/program files (x86)/microchip/xc32/v1.42/bin/bin/../../lib/gcc/pic32mx/4.8.3/../../../../pic32mx/lib\libc.a(memmove.o)
 .data          0x00000000        0x0 c:/program files (x86)/microchip/xc32/v1.42/bin/bin/../../lib/gcc/pic32mx/4.8.3/../../../../pic32mx/lib\libc.a(memmove.o)
 .bss           0x00000000        0x0 c:/program files (x86)/microchip/xc32/v1.42/bin/bin/../../lib/gcc/pic32mx/4.8.3/../../../../pic32mx/lib\libc.a(memmove.o)
 .reginfo       0x00000000       0x18 c:/program files (x86)/microchip/xc32/v1.42/bin/bin/../../lib/gcc/pic32mx/4.8.3/../../../../pic32mx/lib\libc.a(memmove.o)
 .text.memmove  0x00000000       0x64 c:/program files (x86)/microchip/xc32/v1.42/bin/bin/../../lib/gcc/pic32mx/4.8.3/../../../../pic32mx/lib\libc.a(memmove.o)
 .text          0x00000000        0x0 c:/program files (x86)/microchip/xc32/v1.42/bin/bin/../../lib/gcc/pic32mx/4.8.3/../../../../pic32mx/lib\libc.a(rand.o)
 .data          0x00000000        0x0 c:/program files (x86)/microchip/xc32/v1.42/bin/bin/../../lib/gcc/pic32mx/4.8.3/../../../../pic32mx/lib\libc.a(rand.o)
 .reginfo       0x00000000       0x18 c:/program files (x86)/microchip/xc32/v1.42/bin/bin/../../lib/gcc/pic32mx/4.8.3/../../../../pic32mx/lib\libc.a(rand.o)
 .text          0x00000000        0x0 c:/program files (x86)/microchip/xc32/v1.42/bin/bin/../../lib/gcc/pic32mx/4.8.3/../../../../pic32mx/lib\libc.a(strcat.o)
 .data          0x00000000        0x0 c:/program files (x86)/microchip/xc32/v1.42/bin/bin/../../lib/gcc/pic32mx/4.8.3/../../../../pic32mx/lib\libc.a(strcat.o)
 .bss           0x00000000        0x0 c:/program files (x86)/microchip/xc32/v1.42/bin/bin/../../lib/gcc/pic32mx/4.8.3/../../../../pic32mx/lib\libc.a(strcat.o)
 .reginfo       0x00000000       0x18 c:/program files (x86)/microchip/xc32/v1.42/bin/bin/../../lib/gcc/pic32mx/4.8.3/../../../../pic32mx/lib\libc.a(strcat.o)
 .text          0x00000000        0x0 c:/program files (x86)/microchip/xc32/v1.42/bin/bin/../../lib/gcc/pic32mx/4.8.3/../../../../pic32mx/lib\libc.a(strncpy.o)
 .data          0x00000000        0x0 c:/program files (x86)/microchip/xc32/v1.42/bin/bin/../../lib/gcc/pic32mx/4.8.3/../../../../pic32mx/lib\libc.a(strncpy.o)
 .bss           0x00000000        0x0 c:/program files (x86)/microchip/xc32/v1.42/bin/bin/../../lib/gcc/pic32mx/4.8.3/../../../../pic32mx/lib\libc.a(strncpy.o)
 .reginfo       0x00000000       0x18 c:/program files (x86)/microchip/xc32/v1.42/bin/bin/../../lib/gcc/pic32mx/4.8.3/../../../../pic32mx/lib\libc.a(strncpy.o)
 .text          0x00000000        0x0 c:/program files (x86)/microchip/xc32/v1.42/bin/bin/../../lib/gcc/pic32mx/4.8.3/../../../../pic32mx/lib\libc.a(strstr.o)
 .data          0x00000000        0x0 c:/program files (x86)/microchip/xc32/v1.42/bin/bin/../../lib/gcc/pic32mx/4.8.3/../../../../pic32mx/lib\libc.a(strstr.o)
 .bss           0x00000000        0x0 c:/program files (x86)/microchip/xc32/v1.42/bin/bin/../../lib/gcc/pic32mx/4.8.3/../../../../pic32mx/lib\libc.a(strstr.o)
 .reginfo       0x00000000       0x18 c:/program files (x86)/microchip/xc32/v1.42/bin/bin/../../lib/gcc/pic32mx/4.8.3/../../../../pic32mx/lib\libc.a(strstr.o)
 .text          0x00000000        0x0 c:/program files (x86)/microchip/xc32/v1.42/bin/bin/../../lib/gcc/pic32mx/4.8.3/../../../../pic32mx/lib\libc.a(strtol.o)
 .data          0x00000000        0x0 c:/program files (x86)/microchip/xc32/v1.42/bin/bin/../../lib/gcc/pic32mx/4.8.3/../../../../pic32mx/lib\libc.a(strtol.o)
 .bss           0x00000000        0x0 c:/program files (x86)/microchip/xc32/v1.42/bin/bin/../../lib/gcc/pic32mx/4.8.3/../../../../pic32mx/lib\libc.a(strtol.o)
 .reginfo       0x00000000       0x18 c:/program files (x86)/microchip/xc32/v1.42/bin/bin/../../lib/gcc/pic32mx/4.8.3/../../../../pic32mx/lib\libc.a(strtol.o)
 .text          0x00000000        0x0 c:/program files (x86)/microchip/xc32/v1.42/bin/bin/../../lib/gcc/pic32mx/4.8.3/../../../../pic32mx/lib\libc.a(time.o)
 .data          0x00000000        0x0 c:/program files (x86)/microchip/xc32/v1.42/bin/bin/../../lib/gcc/pic32mx/4.8.3/../../../../pic32mx/lib\libc.a(time.o)
 .bss           0x00000000        0x0 c:/program files (x86)/microchip/xc32/v1.42/bin/bin/../../lib/gcc/pic32mx/4.8.3/../../../../pic32mx/lib\libc.a(time.o)
 .reginfo       0x00000000       0x18 c:/program files (x86)/microchip/xc32/v1.42/bin/bin/../../lib/gcc/pic32mx/4.8.3/../../../../pic32mx/lib\libc.a(time.o)
 .text.time     0x00000000        0x8 c:/program files (x86)/microchip/xc32/v1.42/bin/bin/../../lib/gcc/pic32mx/4.8.3/../../../../pic32mx/lib\libc.a(time.o)
 .gnu.warning.time
                0x00000000        0x0 c:/program files (x86)/microchip/xc32/v1.42/bin/bin/../../lib/gcc/pic32mx/4.8.3/../../../../pic32mx/lib\libc.a(time.o)
 .text          0x00000000        0x0 c:/program files (x86)/microchip/xc32/v1.42/bin/bin/../../lib/gcc/pic32mx/4.8.3/../../../../pic32mx/lib\libc.a(sprintf_cdnopuxX.eo)
 .data          0x00000000        0x0 c:/program files (x86)/microchip/xc32/v1.42/bin/bin/../../lib/gcc/pic32mx/4.8.3/../../../../pic32mx/lib\libc.a(sprintf_cdnopuxX.eo)
 .bss           0x00000000        0x0 c:/program files (x86)/microchip/xc32/v1.42/bin/bin/../../lib/gcc/pic32mx/4.8.3/../../../../pic32mx/lib\libc.a(sprintf_cdnopuxX.eo)
 .reginfo       0x00000000       0x18 c:/program files (x86)/microchip/xc32/v1.42/bin/bin/../../lib/gcc/pic32mx/4.8.3/../../../../pic32mx/lib\libc.a(sprintf_cdnopuxX.eo)
 .text          0x00000000        0x0 c:/program files (x86)/microchip/xc32/v1.42/bin/bin/../../lib/gcc/pic32mx/4.8.3/../../../../pic32mx/lib\libc.a(errno.o)
 .data          0x00000000        0x0 c:/program files (x86)/microchip/xc32/v1.42/bin/bin/../../lib/gcc/pic32mx/4.8.3/../../../../pic32mx/lib\libc.a(errno.o)
 .bss           0x00000000        0x0 c:/program files (x86)/microchip/xc32/v1.42/bin/bin/../../lib/gcc/pic32mx/4.8.3/../../../../pic32mx/lib\libc.a(errno.o)
 .reginfo       0x00000000       0x18 c:/program files (x86)/microchip/xc32/v1.42/bin/bin/../../lib/gcc/pic32mx/4.8.3/../../../../pic32mx/lib\libc.a(errno.o)
 .text          0x00000000        0x0 c:/program files (x86)/microchip/xc32/v1.42/bin/bin/../../lib/gcc/pic32mx/4.8.3/../../../../pic32mx/lib\libc.a(strchr.o)
 .data          0x00000000        0x0 c:/program files (x86)/microchip/xc32/v1.42/bin/bin/../../lib/gcc/pic32mx/4.8.3/../../../../pic32mx/lib\libc.a(strchr.o)
 .bss           0x00000000        0x0 c:/program files (x86)/microchip/xc32/v1.42/bin/bin/../../lib/gcc/pic32mx/4.8.3/../../../../pic32mx/lib\libc.a(strchr.o)
 .reginfo       0x00000000       0x18 c:/program files (x86)/microchip/xc32/v1.42/bin/bin/../../lib/gcc/pic32mx/4.8.3/../../../../pic32mx/lib\libc.a(strchr.o)
 .text          0x00000000        0x0 c:/program files (x86)/microchip/xc32/v1.42/bin/bin/../../lib/gcc/pic32mx/4.8.3/../../../../pic32mx/lib\libc.a(strncmp.o)
 .data          0x00000000        0x0 c:/program files (x86)/microchip/xc32/v1.42/bin/bin/../../lib/gcc/pic32mx/4.8.3/../../../../pic32mx/lib\libc.a(strncmp.o)
 .bss           0x00000000        0x0 c:/program files (x86)/microchip/xc32/v1.42/bin/bin/../../lib/gcc/pic32mx/4.8.3/../../../../pic32mx/lib\libc.a(strncmp.o)
 .reginfo       0x00000000       0x18 c:/program files (x86)/microchip/xc32/v1.42/bin/bin/../../lib/gcc/pic32mx/4.8.3/../../../../pic32mx/lib\libc.a(strncmp.o)
 .text          0x00000000        0x0 c:/program files (x86)/microchip/xc32/v1.42/bin/bin/../../lib/gcc/pic32mx/4.8.3/../../../../pic32mx/lib\libc.a(doprnt_cdnopuxX.eo)
 .data          0x00000000        0x0 c:/program files (x86)/microchip/xc32/v1.42/bin/bin/../../lib/gcc/pic32mx/4.8.3/../../../../pic32mx/lib\libc.a(doprnt_cdnopuxX.eo)
 .bss           0x00000000        0x0 c:/program files (x86)/microchip/xc32/v1.42/bin/bin/../../lib/gcc/pic32mx/4.8.3/../../../../pic32mx/lib\libc.a(doprnt_cdnopuxX.eo)
 .reginfo       0x00000000       0x18 c:/program files (x86)/microchip/xc32/v1.42/bin/bin/../../lib/gcc/pic32mx/4.8.3/../../../../pic32mx/lib\libc.a(doprnt_cdnopuxX.eo)
 .text          0x00000000        0x0 c:/program files (x86)/microchip/xc32/v1.42/bin/bin/../../lib/gcc/pic32mx/4.8.3/../../../../pic32mx/lib\libc.a(_fputc_simple.o)
 .data          0x00000000        0x0 c:/program files (x86)/microchip/xc32/v1.42/bin/bin/../../lib/gcc/pic32mx/4.8.3/../../../../pic32mx/lib\libc.a(_fputc_simple.o)
 .bss           0x00000000        0x0 c:/program files (x86)/microchip/xc32/v1.42/bin/bin/../../lib/gcc/pic32mx/4.8.3/../../../../pic32mx/lib\libc.a(_fputc_simple.o)
 .reginfo       0x00000000       0x18 c:/program files (x86)/microchip/xc32/v1.42/bin/bin/../../lib/gcc/pic32mx/4.8.3/../../../../pic32mx/lib\libc.a(_fputc_simple.o)
 .text          0x00000000        0x0 c:/program files (x86)/microchip/xc32/v1.42/bin/bin/../../lib/gcc/pic32mx/4.8.3/../../../../pic32mx/lib\libc.a(_iob.o)
 .data          0x00000000       0xa4 c:/program files (x86)/microchip/xc32/v1.42/bin/bin/../../lib/gcc/pic32mx/4.8.3/../../../../pic32mx/lib\libc.a(_iob.o)
 .reginfo       0x00000000       0x18 c:/program files (x86)/microchip/xc32/v1.42/bin/bin/../../lib/gcc/pic32mx/4.8.3/../../../../pic32mx/lib\libc.a(_iob.o)
 .text          0x00000000        0x0 c:/program files (x86)/microchip/xc32/v1.42/bin/bin/../../lib/gcc/pic32mx/4.8.3/../../../../pic32mx/lib\libc.a(_flsbuf_simple.o)
 .data          0x00000000        0x0 c:/program files (x86)/microchip/xc32/v1.42/bin/bin/../../lib/gcc/pic32mx/4.8.3/../../../../pic32mx/lib\libc.a(_flsbuf_simple.o)
 .bss           0x00000000        0x0 c:/program files (x86)/microchip/xc32/v1.42/bin/bin/../../lib/gcc/pic32mx/4.8.3/../../../../pic32mx/lib\libc.a(_flsbuf_simple.o)
 .reginfo       0x00000000       0x18 c:/program files (x86)/microchip/xc32/v1.42/bin/bin/../../lib/gcc/pic32mx/4.8.3/../../../../pic32mx/lib\libc.a(_flsbuf_simple.o)
 .text          0x00000000        0x0 c:/program files (x86)/microchip/xc32/v1.42/bin/bin/../../lib/gcc/pic32mx/4.8.3/../../../../pic32mx/lib\libpic32.a(sbrk.o)
 .data          0x00000000        0x0 c:/program files (x86)/microchip/xc32/v1.42/bin/bin/../../lib/gcc/pic32mx/4.8.3/../../../../pic32mx/lib\libpic32.a(sbrk.o)
 .reginfo       0x00000000       0x18 c:/program files (x86)/microchip/xc32/v1.42/bin/bin/../../lib/gcc/pic32mx/4.8.3/../../../../pic32mx/lib\libpic32.a(sbrk.o)
 .text.getpagesize
                0x00000000        0x8 c:/program files (x86)/microchip/xc32/v1.42/bin/bin/../../lib/gcc/pic32mx/4.8.3/../../../../pic32mx/lib\libpic32.a(sbrk.o)
 .text          0x00000000        0x0 c:/program files (x86)/microchip/xc32/v1.42/bin/bin/../../lib/gcc/pic32mx/4.8.3/../../../../pic32mx/lib\libpic32.a(write.o)
 .data          0x00000000        0x0 c:/program files (x86)/microchip/xc32/v1.42/bin/bin/../../lib/gcc/pic32mx/4.8.3/../../../../pic32mx/lib\libpic32.a(write.o)
 .bss           0x00000000        0x0 c:/program files (x86)/microchip/xc32/v1.42/bin/bin/../../lib/gcc/pic32mx/4.8.3/../../../../pic32mx/lib\libpic32.a(write.o)
 .reginfo       0x00000000       0x18 c:/program files (x86)/microchip/xc32/v1.42/bin/bin/../../lib/gcc/pic32mx/4.8.3/../../../../pic32mx/lib\libpic32.a(write.o)
 .text          0x00000000        0x0 c:/program files (x86)/microchip/xc32/v1.42/bin/bin/../../lib/gcc/pic32mx/4.8.3/../../../../pic32mx/lib\libpic32.a(_mon_putc.o)
 .data          0x00000000        0x0 c:/program files (x86)/microchip/xc32/v1.42/bin/bin/../../lib/gcc/pic32mx/4.8.3/../../../../pic32mx/lib\libpic32.a(_mon_putc.o)
 .bss           0x00000000        0x0 c:/program files (x86)/microchip/xc32/v1.42/bin/bin/../../lib/gcc/pic32mx/4.8.3/../../../../pic32mx/lib\libpic32.a(_mon_putc.o)
 .reginfo       0x00000000       0x18 c:/program files (x86)/microchip/xc32/v1.42/bin/bin/../../lib/gcc/pic32mx/4.8.3/../../../../pic32mx/lib\libpic32.a(_mon_putc.o)
 .text          0x00000000        0x0 c:/program files (x86)/microchip/xc32/v1.42/bin/bin/../../lib/gcc/pic32mx/4.8.3/../../../../pic32mx/lib\libpic32.a(xc32_uart.o)
 .data          0x00000000        0x0 c:/program files (x86)/microchip/xc32/v1.42/bin/bin/../../lib/gcc/pic32mx/4.8.3/../../../../pic32mx/lib\libpic32.a(xc32_uart.o)
 .bss           0x00000000        0x0 c:/program files (x86)/microchip/xc32/v1.42/bin/bin/../../lib/gcc/pic32mx/4.8.3/../../../../pic32mx/lib\libpic32.a(xc32_uart.o)
 .reginfo       0x00000000       0x18 c:/program files (x86)/microchip/xc32/v1.42/bin/bin/../../lib/gcc/pic32mx/4.8.3/../../../../pic32mx/lib\libpic32.a(xc32_uart.o)
 .data          0x00000000        0x0 c:/program files (x86)/microchip/xc32/v1.42/bin/bin/../../lib/gcc/pic32mx/4.8.3\libgcc.a(_umoddi3.o)
 .bss           0x00000000        0x0 c:/program files (x86)/microchip/xc32/v1.42/bin/bin/../../lib/gcc/pic32mx/4.8.3\libgcc.a(_umoddi3.o)
 .reginfo       0x00000000       0x18 c:/program files (x86)/microchip/xc32/v1.42/bin/bin/../../lib/gcc/pic32mx/4.8.3\libgcc.a(_umoddi3.o)

Memory Configuration

Name             Origin             Length             Attributes
kseg0_program_mem 0x9d000000         0x00080000         xr
kseg0_boot_mem   0x9fc00490         0x00000970
exception_mem    0x9fc01000         0x00001000
kseg1_boot_mem   0xbfc00000         0x00000490
debug_exec_mem   0xbfc02000         0x00000ff0
config3          0xbfc02ff0         0x00000004
config2          0xbfc02ff4         0x00000004
config1          0xbfc02ff8         0x00000004
config0          0xbfc02ffc         0x00000004
kseg1_data_mem   0xa0000000         0x00020000         w !x
sfrs             0xbf800000         0x00100000
configsfrs       0xbfc02ff0         0x00000010
*default*        0x00000000         0xffffffff

Linker script and memory map

LOAD c:/program files (x86)/microchip/xc32/v1.42/bin/bin/../../lib/gcc/pic32mx/4.8.3/../../../../pic32mx/lib/./proc/32MX795F512L/crt0_mips32r2.o
LOAD c:/program files (x86)/microchip/xc32/v1.42/bin/bin/../../lib/gcc/pic32mx/4.8.3/../../../../pic32mx/lib\debug-exception-return.o
LOAD build/Diplomamunka/production/_ext/1774832663/drv_i2c_static_buffer_model.o
LOAD build/Diplomamunka/production/_ext/1774832663/drv_i2c_mapping.o
LOAD build/Diplomamunka/production/_ext/793758023/drv_ic_static.o
LOAD build/Diplomamunka/production/_ext/965532929/drv_oc_static.o
LOAD build/Diplomamunka/production/_ext/1892475994/sys_clk_static.o
LOAD build/Diplomamunka/production/_ext/904121046/sys_ports_static.o
LOAD build/Diplomamunka/production/_ext/1720293489/system_init.o
LOAD build/Diplomamunka/production/_ext/1720293489/system_interrupt.o
LOAD build/Diplomamunka/production/_ext/1720293489/system_exceptions.o
LOAD build/Diplomamunka/production/_ext/1720293489/system_tasks.o
LOAD build/Diplomamunka/production/_ext/1360937237/app.o
LOAD build/Diplomamunka/production/_ext/1360937237/main.o
LOAD build/Diplomamunka/production/_ext/1360937237/TCPServer.o
LOAD build/Diplomamunka/production/_ext/1360937237/fan.o
LOAD build/Diplomamunka/production/_ext/1360937237/led.o
LOAD build/Diplomamunka/production/_ext/1837361561/bsp_sys_init.o
LOAD build/Diplomamunka/production/_ext/1606841020/adler32.o
LOAD build/Diplomamunka/production/_ext/1606841020/compress.o
LOAD build/Diplomamunka/production/_ext/1606841020/crc32.o
LOAD build/Diplomamunka/production/_ext/1606841020/deflate.o
LOAD build/Diplomamunka/production/_ext/1606841020/infback.o
LOAD build/Diplomamunka/production/_ext/1606841020/inffast.o
LOAD build/Diplomamunka/production/_ext/1606841020/inflate.o
LOAD build/Diplomamunka/production/_ext/1606841020/inftrees.o
LOAD build/Diplomamunka/production/_ext/1606841020/trees.o
LOAD build/Diplomamunka/production/_ext/1606841020/uncompr.o
LOAD build/Diplomamunka/production/_ext/1606841020/zutil.o
LOAD build/Diplomamunka/production/_ext/1886890887/ecc.o
LOAD build/Diplomamunka/production/_ext/1886890887/ssl-dummy.o
LOAD build/Diplomamunka/production/_ext/1886890887/arc4.o
LOAD build/Diplomamunka/production/_ext/1886890887/pwdbased.o
LOAD build/Diplomamunka/production/_ext/1886890887/tfm.o
LOAD build/Diplomamunka/production/_ext/1886890887/asn.o
LOAD build/Diplomamunka/production/_ext/1886890887/des3.o
LOAD build/Diplomamunka/production/_ext/1886890887/rsa.o
LOAD build/Diplomamunka/production/_ext/1886890887/aes.o
LOAD build/Diplomamunka/production/_ext/1886890887/md5.o
LOAD build/Diplomamunka/production/_ext/1886890887/sha.o
LOAD build/Diplomamunka/production/_ext/1886890887/sha256.o
LOAD build/Diplomamunka/production/_ext/1886890887/sha512.o
LOAD build/Diplomamunka/production/_ext/1886890887/hmac.o
LOAD build/Diplomamunka/production/_ext/1886890887/hash.o
LOAD build/Diplomamunka/production/_ext/1886890887/compress.o
LOAD build/Diplomamunka/production/_ext/1886890887/random.o
LOAD build/Diplomamunka/production/_ext/1886890887/crypto.o
LOAD build/Diplomamunka/production/_ext/1886890887/coding.o
LOAD build/Diplomamunka/production/_ext/1886890887/error.o
LOAD build/Diplomamunka/production/_ext/1886890887/integer.o
LOAD build/Diplomamunka/production/_ext/1886890887/logging.o
LOAD build/Diplomamunka/production/_ext/1886890887/memory.o
LOAD build/Diplomamunka/production/_ext/1886890887/misc.o
LOAD build/Diplomamunka/production/_ext/1886890887/port.o
LOAD build/Diplomamunka/production/_ext/1908841681/drv_ethmac.o
LOAD build/Diplomamunka/production/_ext/1908841681/drv_ethmac_lib.o
LOAD build/Diplomamunka/production/_ext/732687875/drv_ethphy.o
LOAD build/Diplomamunka/production/_ext/732687875/drv_extphy_dp83848.o
LOAD build/Diplomamunka/production/_ext/185269848/drv_tmr.o
LOAD build/Diplomamunka/production/_ext/1271179505/sys_devcon.o
LOAD build/Diplomamunka/production/_ext/1271179505/sys_devcon_pic32mx.o
LOAD build/Diplomamunka/production/_ext/122796885/sys_int_pic32.o
LOAD build/Diplomamunka/production/_ext/77319752/sys_ports.o
LOAD build/Diplomamunka/production/_ext/1283840359/sys_random.o
LOAD build/Diplomamunka/production/_ext/1264926591/sys_tmr.o
LOAD build/Diplomamunka/production/_ext/1136935090/helpers.o
LOAD build/Diplomamunka/production/_ext/1136935090/lfsr.o
LOAD build/Diplomamunka/production/_ext/1408260596/tcp.o
LOAD build/Diplomamunka/production/_ext/1408260596/udp.o
LOAD build/Diplomamunka/production/_ext/1408260596/tcpip_heap_alloc.o
LOAD build/Diplomamunka/production/_ext/1408260596/tcpip_heap_internal.o
LOAD build/Diplomamunka/production/_ext/1408260596/arp.o
LOAD build/Diplomamunka/production/_ext/1408260596/dhcp.o
LOAD build/Diplomamunka/production/_ext/1408260596/dns.o
LOAD build/Diplomamunka/production/_ext/1408260596/icmp.o
LOAD build/Diplomamunka/production/_ext/1408260596/tcpip_announce.o
LOAD build/Diplomamunka/production/_ext/1408260596/hash_fnv.o
LOAD build/Diplomamunka/production/_ext/1408260596/oahash.o
LOAD build/Diplomamunka/production/_ext/1408260596/tcpip_helpers.o
LOAD build/Diplomamunka/production/_ext/1408260596/tcpip_helper_c32.o
LOAD build/Diplomamunka/production/_ext/1408260596/tcpip_manager.o
LOAD build/Diplomamunka/production/_ext/1408260596/tcpip_notify.o
LOAD build/Diplomamunka/production/_ext/1408260596/tcpip_packet.o
LOAD build/Diplomamunka/production/_ext/1408260596/ipv4.o
LOAD ..\..\..\..\bin\framework\peripheral\PIC32MX795F512L_peripherals.a
                0x00000001                __MPLAB_BUILD = 0x1
                0x0000afa0                _min_heap_size = 0xafa0
LOAD c:/program files (x86)/microchip/xc32/v1.42/bin/bin/../../lib/gcc/pic32mx/4.8.3/../../../../pic32mx/lib/./proc/32MX795F512L\default_isr_vectors.o
LOAD c:/program files (x86)/microchip/xc32/v1.42/bin/bin/../../lib/gcc/pic32mx/4.8.3/../../../../pic32mx/lib\pic32_software_reset.o
                0x00000400                PROVIDE (_min_stack_size, 0x400)
LOAD c:/program files (x86)/microchip/xc32/v1.42/bin/bin/../../lib/gcc/pic32mx/4.8.3/../../../../pic32mx/lib/./proc/32MX795F512L\processor.o
START GROUP
LOAD libmchp_peripheral.a
END GROUP
START GROUP
LOAD libmchp_peripheral_32MX795F512L.a
END GROUP
                0x00000001                PROVIDE (_vector_spacing, 0x1)
                0x9fc01000                PROVIDE (_ebase_address, 0x9fc01000)
                0xbfc00000                _RESET_ADDR = 0xbfc00000
                0xbfc00380                _BEV_EXCPT_ADDR = 0xbfc00380
                0xbfc00480                _DBG_EXCPT_ADDR = 0xbfc00480
                0xbfc02000                _DBG_CODE_ADDR = 0xbfc02000
                0x00000ff0                _DBG_CODE_SIZE = 0xff0
                0x9fc01180                _GEN_EXCPT_ADDR = (_ebase_address + 0x180)

.config_BFC02FF0
                0xbfc02ff0        0x4
 *(.config_BFC02FF0)
 .config_BFC02FF0
                0xbfc02ff0        0x4 build/Diplomamunka/production/_ext/1720293489/system_init.o

.config_BFC02FF4
                0xbfc02ff4        0x4
 *(.config_BFC02FF4)
 .config_BFC02FF4
                0xbfc02ff4        0x4 build/Diplomamunka/production/_ext/1720293489/system_init.o

.config_BFC02FF8
                0xbfc02ff8        0x4
 *(.config_BFC02FF8)
 .config_BFC02FF8
                0xbfc02ff8        0x4 build/Diplomamunka/production/_ext/1720293489/system_init.o

.config_BFC02FFC
                0xbfc02ffc        0x4
 *(.config_BFC02FFC)
 .config_BFC02FFC
                0xbfc02ffc        0x4 build/Diplomamunka/production/_ext/1720293489/system_init.o
                0xbfc02000                PROVIDE (_DBG_CODE_ADDR, 0xbfc02000)
                0x00000ff0                PROVIDE (_DBG_CODE_SIZE, 0xff0)

.reset          0xbfc00000      0x208
 *(.reset)
 .reset         0xbfc00000        0x8 c:/program files (x86)/microchip/xc32/v1.42/bin/bin/../../lib/gcc/pic32mx/4.8.3/../../../../pic32mx/lib/./proc/32MX795F512L/crt0_mips32r2.o
                0xbfc00000                _reset
 *(.reset.startup)
 .reset.startup
                0xbfc00008      0x200 c:/program files (x86)/microchip/xc32/v1.42/bin/bin/../../lib/gcc/pic32mx/4.8.3/../../../../pic32mx/lib/./proc/32MX795F512L/crt0_mips32r2.o

.bev_excpt      0xbfc00380       0x10
 *(.bev_handler)
 .bev_handler   0xbfc00380       0x10 c:/program files (x86)/microchip/xc32/v1.42/bin/bin/../../lib/gcc/pic32mx/4.8.3/../../../../pic32mx/lib/./proc/32MX795F512L/crt0_mips32r2.o

.dbg_excpt      0xbfc00480        0x0
                0xbfc00480                . = (. + DEFINED (_DEBUGGER)?0x8:0x0)

.dbg_code       0xbfc02000        0x0
                0xbfc02000                . = (. + DEFINED (_DEBUGGER)?_DBG_CODE_SIZE:0x0)

.app_excpt      0x9fc01180       0x10
 *(.gen_handler)
 .gen_handler   0x9fc01180       0x10 c:/program files (x86)/microchip/xc32/v1.42/bin/bin/../../lib/gcc/pic32mx/4.8.3/../../../../pic32mx/lib/./proc/32MX795F512L/crt0_mips32r2.o

.vector_0       0x9fc01200        0x8
 *(.vector_0)
 .vector_0      0x9fc01200        0x8 c:/program files (x86)/microchip/xc32/v1.42/bin/bin/../../lib/gcc/pic32mx/4.8.3/../../../../pic32mx/lib\libpic32.a(vector0.o)
                0x9fc01200                __vector_dispatch_0
                0x00000001                ASSERT (((_vector_spacing == 0x0) || (SIZEOF (.vector_0) <= (_vector_spacing << 0x5))), function at exception vector 0 too large)

.vector_1       0x9fc01220        0x8
 *(.vector_1)
 .vector_1      0x9fc01220        0x8 c:/program files (x86)/microchip/xc32/v1.42/bin/bin/../../lib/gcc/pic32mx/4.8.3/../../../../pic32mx/lib\libpic32.a(vector1.o)
                0x9fc01220                __vector_dispatch_1
                0x00000001                ASSERT (((_vector_spacing == 0x0) || (SIZEOF (.vector_1) <= (_vector_spacing << 0x5))), function at exception vector 1 too large)

.vector_2       0x9fc01240        0x8
 *(.vector_2)
 .vector_2      0x9fc01240        0x8 c:/program files (x86)/microchip/xc32/v1.42/bin/bin/../../lib/gcc/pic32mx/4.8.3/../../../../pic32mx/lib\libpic32.a(vector2.o)
                0x9fc01240                __vector_dispatch_2
                0x00000001                ASSERT (((_vector_spacing == 0x0) || (SIZEOF (.vector_2) <= (_vector_spacing << 0x5))), function at exception vector 2 too large)

.vector_3       0x9fc01260        0x8
 *(.vector_3)
 .vector_3      0x9fc01260        0x8 c:/program files (x86)/microchip/xc32/v1.42/bin/bin/../../lib/gcc/pic32mx/4.8.3/../../../../pic32mx/lib\libpic32.a(vector3.o)
                0x9fc01260                __vector_dispatch_3
                0x00000001                ASSERT (((_vector_spacing == 0x0) || (SIZEOF (.vector_3) <= (_vector_spacing << 0x5))), function at exception vector 3 too large)

.vector_4       0x9fc01280        0x8
 *(.vector_4)
 .vector_4      0x9fc01280        0x8 build/Diplomamunka/production/_ext/1720293489/system_interrupt.o
                0x9fc01280                __vector_dispatch_4
                0x00000001                ASSERT (((_vector_spacing == 0x0) || (SIZEOF (.vector_4) <= (_vector_spacing << 0x5))), function at exception vector 4 too large)

.vector_5       0x9fc012a0        0x8
 *(.vector_5)
 .vector_5      0x9fc012a0        0x8 c:/program files (x86)/microchip/xc32/v1.42/bin/bin/../../lib/gcc/pic32mx/4.8.3/../../../../pic32mx/lib\libpic32.a(vector5.o)
                0x9fc012a0                __vector_dispatch_5
                0x00000001                ASSERT (((_vector_spacing == 0x0) || (SIZEOF (.vector_5) <= (_vector_spacing << 0x5))), function at exception vector 5 too large)

.vector_6       0x9fc012c0        0x8
 *(.vector_6)
 .vector_6      0x9fc012c0        0x8 c:/program files (x86)/microchip/xc32/v1.42/bin/bin/../../lib/gcc/pic32mx/4.8.3/../../../../pic32mx/lib\libpic32.a(vector6.o)
                0x9fc012c0                __vector_dispatch_6
                0x00000001                ASSERT (((_vector_spacing == 0x0) || (SIZEOF (.vector_6) <= (_vector_spacing << 0x5))), function at exception vector 6 too large)

.vector_7       0x9fc012e0        0x8
 *(.vector_7)
 .vector_7      0x9fc012e0        0x8 c:/program files (x86)/microchip/xc32/v1.42/bin/bin/../../lib/gcc/pic32mx/4.8.3/../../../../pic32mx/lib\libpic32.a(vector7.o)
                0x9fc012e0                __vector_dispatch_7
                0x00000001                ASSERT (((_vector_spacing == 0x0) || (SIZEOF (.vector_7) <= (_vector_spacing << 0x5))), function at exception vector 7 too large)

.vector_8       0x9fc01300        0x8
 *(.vector_8)
 .vector_8      0x9fc01300        0x8 build/Diplomamunka/production/_ext/1720293489/system_interrupt.o
                0x9fc01300                __vector_dispatch_8
                0x00000001                ASSERT (((_vector_spacing == 0x0) || (SIZEOF (.vector_8) <= (_vector_spacing << 0x5))), function at exception vector 8 too large)

.vector_9       0x9fc01320        0x8
 *(.vector_9)
 .vector_9      0x9fc01320        0x8 c:/program files (x86)/microchip/xc32/v1.42/bin/bin/../../lib/gcc/pic32mx/4.8.3/../../../../pic32mx/lib\libpic32.a(vector9.o)
                0x9fc01320                __vector_dispatch_9
                0x00000001                ASSERT (((_vector_spacing == 0x0) || (SIZEOF (.vector_9) <= (_vector_spacing << 0x5))), function at exception vector 9 too large)

.vector_10      0x9fc01340        0x8
 *(.vector_10)
 .vector_10     0x9fc01340        0x8 c:/program files (x86)/microchip/xc32/v1.42/bin/bin/../../lib/gcc/pic32mx/4.8.3/../../../../pic32mx/lib\libpic32.a(vector10.o)
                0x9fc01340                __vector_dispatch_10
                0x00000001                ASSERT (((_vector_spacing == 0x0) || (SIZEOF (.vector_10) <= (_vector_spacing << 0x5))), function at exception vector 10 too large)

.vector_11      0x9fc01360        0x8
 *(.vector_11)
 .vector_11     0x9fc01360        0x8 c:/program files (x86)/microchip/xc32/v1.42/bin/bin/../../lib/gcc/pic32mx/4.8.3/../../../../pic32mx/lib\libpic32.a(vector11.o)
                0x9fc01360                __vector_dispatch_11
                0x00000001                ASSERT (((_vector_spacing == 0x0) || (SIZEOF (.vector_11) <= (_vector_spacing << 0x5))), function at exception vector 11 too large)

.vector_12      0x9fc01380        0x8
 *(.vector_12)
 .vector_12     0x9fc01380        0x8 build/Diplomamunka/production/_ext/1720293489/system_interrupt.o
                0x9fc01380                __vector_dispatch_12
                0x00000001                ASSERT (((_vector_spacing == 0x0) || (SIZEOF (.vector_12) <= (_vector_spacing << 0x5))), function at exception vector 12 too large)

.vector_13      0x9fc013a0        0x8
 *(.vector_13)
 .vector_13     0x9fc013a0        0x8 build/Diplomamunka/production/_ext/1720293489/system_interrupt.o
                0x9fc013a0                __vector_dispatch_13
                0x00000001                ASSERT (((_vector_spacing == 0x0) || (SIZEOF (.vector_13) <= (_vector_spacing << 0x5))), function at exception vector 13 too large)

.vector_14      0x9fc013c0        0x8
 *(.vector_14)
 .vector_14     0x9fc013c0        0x8 c:/program files (x86)/microchip/xc32/v1.42/bin/bin/../../lib/gcc/pic32mx/4.8.3/../../../../pic32mx/lib\libpic32.a(vector14.o)
                0x9fc013c0                __vector_dispatch_14
                0x00000001                ASSERT (((_vector_spacing == 0x0) || (SIZEOF (.vector_14) <= (_vector_spacing << 0x5))), function at exception vector 14 too large)

.vector_15      0x9fc013e0        0x8
 *(.vector_15)
 .vector_15     0x9fc013e0        0x8 c:/program files (x86)/microchip/xc32/v1.42/bin/bin/../../lib/gcc/pic32mx/4.8.3/../../../../pic32mx/lib\libpic32.a(vector15.o)
                0x9fc013e0                __vector_dispatch_15
                0x00000001                ASSERT (((_vector_spacing == 0x0) || (SIZEOF (.vector_15) <= (_vector_spacing << 0x5))), function at exception vector 15 too large)

.vector_16      0x9fc01400        0x8
 *(.vector_16)
 .vector_16     0x9fc01400        0x8 c:/program files (x86)/microchip/xc32/v1.42/bin/bin/../../lib/gcc/pic32mx/4.8.3/../../../../pic32mx/lib\libpic32.a(vector16.o)
                0x9fc01400                __vector_dispatch_16
                0x00000001                ASSERT (((_vector_spacing == 0x0) || (SIZEOF (.vector_16) <= (_vector_spacing << 0x5))), function at exception vector 16 too large)

.vector_17      0x9fc01420        0x8
 *(.vector_17)
 .vector_17     0x9fc01420        0x8 c:/program files (x86)/microchip/xc32/v1.42/bin/bin/../../lib/gcc/pic32mx/4.8.3/../../../../pic32mx/lib\libpic32.a(vector17.o)
                0x9fc01420                __vector_dispatch_17
                0x00000001                ASSERT (((_vector_spacing == 0x0) || (SIZEOF (.vector_17) <= (_vector_spacing << 0x5))), function at exception vector 17 too large)

.vector_18      0x9fc01440        0x8
 *(.vector_18)
 .vector_18     0x9fc01440        0x8 c:/program files (x86)/microchip/xc32/v1.42/bin/bin/../../lib/gcc/pic32mx/4.8.3/../../../../pic32mx/lib\libpic32.a(vector18.o)
                0x9fc01440                __vector_dispatch_18
                0x00000001                ASSERT (((_vector_spacing == 0x0) || (SIZEOF (.vector_18) <= (_vector_spacing << 0x5))), function at exception vector 18 too large)

.vector_19      0x9fc01460        0x8
 *(.vector_19)
 .vector_19     0x9fc01460        0x8 c:/program files (x86)/microchip/xc32/v1.42/bin/bin/../../lib/gcc/pic32mx/4.8.3/../../../../pic32mx/lib\libpic32.a(vector19.o)
                0x9fc01460                __vector_dispatch_19
                0x00000001                ASSERT (((_vector_spacing == 0x0) || (SIZEOF (.vector_19) <= (_vector_spacing << 0x5))), function at exception vector 19 too large)

.vector_20      0x9fc01480        0x8
 *(.vector_20)
 .vector_20     0x9fc01480        0x8 c:/program files (x86)/microchip/xc32/v1.42/bin/bin/../../lib/gcc/pic32mx/4.8.3/../../../../pic32mx/lib\libpic32.a(vector20.o)
                0x9fc01480                __vector_dispatch_20
                0x00000001                ASSERT (((_vector_spacing == 0x0) || (SIZEOF (.vector_20) <= (_vector_spacing << 0x5))), function at exception vector 20 too large)

.vector_21      0x9fc014a0        0x8
 *(.vector_21)
 .vector_21     0x9fc014a0        0x8 build/Diplomamunka/production/_ext/1720293489/system_interrupt.o
                0x9fc014a0                __vector_dispatch_21
                0x00000001                ASSERT (((_vector_spacing == 0x0) || (SIZEOF (.vector_21) <= (_vector_spacing << 0x5))), function at exception vector 21 too large)

.vector_22      0x9fc014c0        0x8
 *(.vector_22)
 .vector_22     0x9fc014c0        0x8 c:/program files (x86)/microchip/xc32/v1.42/bin/bin/../../lib/gcc/pic32mx/4.8.3/../../../../pic32mx/lib\libpic32.a(vector22.o)
                0x9fc014c0                __vector_dispatch_22
                0x00000001                ASSERT (((_vector_spacing == 0x0) || (SIZEOF (.vector_22) <= (_vector_spacing << 0x5))), function at exception vector 22 too large)

.vector_23      0x9fc014e0        0x8
 *(.vector_23)
 .vector_23     0x9fc014e0        0x8 c:/program files (x86)/microchip/xc32/v1.42/bin/bin/../../lib/gcc/pic32mx/4.8.3/../../../../pic32mx/lib\libpic32.a(vector23.o)
                0x9fc014e0                __vector_dispatch_23
                0x00000001                ASSERT (((_vector_spacing == 0x0) || (SIZEOF (.vector_23) <= (_vector_spacing << 0x5))), function at exception vector 23 too large)

.vector_24      0x9fc01500        0x8
 *(.vector_24)
 .vector_24     0x9fc01500        0x8 c:/program files (x86)/microchip/xc32/v1.42/bin/bin/../../lib/gcc/pic32mx/4.8.3/../../../../pic32mx/lib\libpic32.a(vector24.o)
                0x9fc01500                __vector_dispatch_24
                0x00000001                ASSERT (((_vector_spacing == 0x0) || (SIZEOF (.vector_24) <= (_vector_spacing << 0x5))), function at exception vector 24 too large)

.vector_25      0x9fc01520        0x8
 *(.vector_25)
 .vector_25     0x9fc01520        0x8 c:/program files (x86)/microchip/xc32/v1.42/bin/bin/../../lib/gcc/pic32mx/4.8.3/../../../../pic32mx/lib\libpic32.a(vector25.o)
                0x9fc01520                __vector_dispatch_25
                0x00000001                ASSERT (((_vector_spacing == 0x0) || (SIZEOF (.vector_25) <= (_vector_spacing << 0x5))), function at exception vector 25 too large)

.vector_26      0x9fc01540        0x8
 *(.vector_26)
 .vector_26     0x9fc01540        0x8 c:/program files (x86)/microchip/xc32/v1.42/bin/bin/../../lib/gcc/pic32mx/4.8.3/../../../../pic32mx/lib\libpic32.a(vector26.o)
                0x9fc01540                __vector_dispatch_26
                0x00000001                ASSERT (((_vector_spacing == 0x0) || (SIZEOF (.vector_26) <= (_vector_spacing << 0x5))), function at exception vector 26 too large)

.vector_27      0x9fc01560        0x8
 *(.vector_27)
 .vector_27     0x9fc01560        0x8 c:/program files (x86)/microchip/xc32/v1.42/bin/bin/../../lib/gcc/pic32mx/4.8.3/../../../../pic32mx/lib\libpic32.a(vector27.o)
                0x9fc01560                __vector_dispatch_27
                0x00000001                ASSERT (((_vector_spacing == 0x0) || (SIZEOF (.vector_27) <= (_vector_spacing << 0x5))), function at exception vector 27 too large)

.vector_28      0x9fc01580        0x8
 *(.vector_28)
 .vector_28     0x9fc01580        0x8 c:/program files (x86)/microchip/xc32/v1.42/bin/bin/../../lib/gcc/pic32mx/4.8.3/../../../../pic32mx/lib\libpic32.a(vector28.o)
                0x9fc01580                __vector_dispatch_28
                0x00000001                ASSERT (((_vector_spacing == 0x0) || (SIZEOF (.vector_28) <= (_vector_spacing << 0x5))), function at exception vector 28 too large)

.vector_29      0x9fc015a0        0x8
 *(.vector_29)
 .vector_29     0x9fc015a0        0x8 c:/program files (x86)/microchip/xc32/v1.42/bin/bin/../../lib/gcc/pic32mx/4.8.3/../../../../pic32mx/lib\libpic32.a(vector29.o)
                0x9fc015a0                __vector_dispatch_29
                0x00000001                ASSERT (((_vector_spacing == 0x0) || (SIZEOF (.vector_29) <= (_vector_spacing << 0x5))), function at exception vector 29 too large)

.vector_30      0x9fc015c0        0x8
 *(.vector_30)
 .vector_30     0x9fc015c0        0x8 c:/program files (x86)/microchip/xc32/v1.42/bin/bin/../../lib/gcc/pic32mx/4.8.3/../../../../pic32mx/lib\libpic32.a(vector30.o)
                0x9fc015c0                __vector_dispatch_30
                0x00000001                ASSERT (((_vector_spacing == 0x0) || (SIZEOF (.vector_30) <= (_vector_spacing << 0x5))), function at exception vector 30 too large)

.vector_31      0x9fc015e0        0x8
 *(.vector_31)
 .vector_31     0x9fc015e0        0x8 c:/program files (x86)/microchip/xc32/v1.42/bin/bin/../../lib/gcc/pic32mx/4.8.3/../../../../pic32mx/lib\libpic32.a(vector31.o)
                0x9fc015e0                __vector_dispatch_31
                0x00000001                ASSERT (((_vector_spacing == 0x0) || (SIZEOF (.vector_31) <= (_vector_spacing << 0x5))), function at exception vector 31 too large)

.vector_32      0x9fc01600        0x8
 *(.vector_32)
 .vector_32     0x9fc01600        0x8 c:/program files (x86)/microchip/xc32/v1.42/bin/bin/../../lib/gcc/pic32mx/4.8.3/../../../../pic32mx/lib\libpic32.a(vector32.o)
                0x9fc01600                __vector_dispatch_32
                0x00000001                ASSERT (((_vector_spacing == 0x0) || (SIZEOF (.vector_32) <= (_vector_spacing << 0x5))), function at exception vector 32 too large)

.vector_33      0x9fc01620        0x8
 *(.vector_33)
 .vector_33     0x9fc01620        0x8 build/Diplomamunka/production/_ext/1720293489/system_interrupt.o
                0x9fc01620                __vector_dispatch_33
                0x00000001                ASSERT (((_vector_spacing == 0x0) || (SIZEOF (.vector_33) <= (_vector_spacing << 0x5))), function at exception vector 33 too large)

.vector_34      0x9fc01640        0x8
 *(.vector_34)
 .vector_34     0x9fc01640        0x8 c:/program files (x86)/microchip/xc32/v1.42/bin/bin/../../lib/gcc/pic32mx/4.8.3/../../../../pic32mx/lib\libpic32.a(vector34.o)
                0x9fc01640                __vector_dispatch_34
                0x00000001                ASSERT (((_vector_spacing == 0x0) || (SIZEOF (.vector_34) <= (_vector_spacing << 0x5))), function at exception vector 34 too large)

.vector_35      0x9fc01660        0x8
 *(.vector_35)
 .vector_35     0x9fc01660        0x8 c:/program files (x86)/microchip/xc32/v1.42/bin/bin/../../lib/gcc/pic32mx/4.8.3/../../../../pic32mx/lib\libpic32.a(vector35.o)
                0x9fc01660                __vector_dispatch_35
                0x00000001                ASSERT (((_vector_spacing == 0x0) || (SIZEOF (.vector_35) <= (_vector_spacing << 0x5))), function at exception vector 35 too large)

.vector_36      0x9fc01680        0x8
 *(.vector_36)
 .vector_36     0x9fc01680        0x8 c:/program files (x86)/microchip/xc32/v1.42/bin/bin/../../lib/gcc/pic32mx/4.8.3/../../../../pic32mx/lib\libpic32.a(vector36.o)
                0x9fc01680                __vector_dispatch_36
                0x00000001                ASSERT (((_vector_spacing == 0x0) || (SIZEOF (.vector_36) <= (_vector_spacing << 0x5))), function at exception vector 36 too large)

.vector_37      0x9fc016a0        0x8
 *(.vector_37)
 .vector_37     0x9fc016a0        0x8 c:/program files (x86)/microchip/xc32/v1.42/bin/bin/../../lib/gcc/pic32mx/4.8.3/../../../../pic32mx/lib\libpic32.a(vector37.o)
                0x9fc016a0                __vector_dispatch_37
                0x00000001                ASSERT (((_vector_spacing == 0x0) || (SIZEOF (.vector_37) <= (_vector_spacing << 0x5))), function at exception vector 37 too large)

.vector_38      0x9fc016c0        0x8
 *(.vector_38)
 .vector_38     0x9fc016c0        0x8 c:/program files (x86)/microchip/xc32/v1.42/bin/bin/../../lib/gcc/pic32mx/4.8.3/../../../../pic32mx/lib\libpic32.a(vector38.o)
                0x9fc016c0                __vector_dispatch_38
                0x00000001                ASSERT (((_vector_spacing == 0x0) || (SIZEOF (.vector_38) <= (_vector_spacing << 0x5))), function at exception vector 38 too large)

.vector_39      0x9fc016e0        0x8
 *(.vector_39)
 .vector_39     0x9fc016e0        0x8 c:/program files (x86)/microchip/xc32/v1.42/bin/bin/../../lib/gcc/pic32mx/4.8.3/../../../../pic32mx/lib\libpic32.a(vector39.o)
                0x9fc016e0                __vector_dispatch_39
                0x00000001                ASSERT (((_vector_spacing == 0x0) || (SIZEOF (.vector_39) <= (_vector_spacing << 0x5))), function at exception vector 39 too large)

.vector_40      0x9fc01700        0x8
 *(.vector_40)
 .vector_40     0x9fc01700        0x8 c:/program files (x86)/microchip/xc32/v1.42/bin/bin/../../lib/gcc/pic32mx/4.8.3/../../../../pic32mx/lib\libpic32.a(vector40.o)
                0x9fc01700                __vector_dispatch_40
                0x00000001                ASSERT (((_vector_spacing == 0x0) || (SIZEOF (.vector_40) <= (_vector_spacing << 0x5))), function at exception vector 40 too large)

.vector_41      0x9fc01720        0x8
 *(.vector_41)
 .vector_41     0x9fc01720        0x8 c:/program files (x86)/microchip/xc32/v1.42/bin/bin/../../lib/gcc/pic32mx/4.8.3/../../../../pic32mx/lib\libpic32.a(vector41.o)
                0x9fc01720                __vector_dispatch_41
                0x00000001                ASSERT (((_vector_spacing == 0x0) || (SIZEOF (.vector_41) <= (_vector_spacing << 0x5))), function at exception vector 41 too large)

.vector_42      0x9fc01740        0x8
 *(.vector_42)
 .vector_42     0x9fc01740        0x8 c:/program files (x86)/microchip/xc32/v1.42/bin/bin/../../lib/gcc/pic32mx/4.8.3/../../../../pic32mx/lib\libpic32.a(vector42.o)
                0x9fc01740                __vector_dispatch_42
                0x00000001                ASSERT (((_vector_spacing == 0x0) || (SIZEOF (.vector_42) <= (_vector_spacing << 0x5))), function at exception vector 42 too large)

.vector_43      0x9fc01760        0x8
 *(.vector_43)
 .vector_43     0x9fc01760        0x8 c:/program files (x86)/microchip/xc32/v1.42/bin/bin/../../lib/gcc/pic32mx/4.8.3/../../../../pic32mx/lib\libpic32.a(vector43.o)
                0x9fc01760                __vector_dispatch_43
                0x00000001                ASSERT (((_vector_spacing == 0x0) || (SIZEOF (.vector_43) <= (_vector_spacing << 0x5))), function at exception vector 43 too large)

.vector_44      0x9fc01780        0x8
 *(.vector_44)
 .vector_44     0x9fc01780        0x8 c:/program files (x86)/microchip/xc32/v1.42/bin/bin/../../lib/gcc/pic32mx/4.8.3/../../../../pic32mx/lib\libpic32.a(vector44.o)
                0x9fc01780                __vector_dispatch_44
                0x00000001                ASSERT (((_vector_spacing == 0x0) || (SIZEOF (.vector_44) <= (_vector_spacing << 0x5))), function at exception vector 44 too large)

.vector_45      0x9fc017a0        0x8
 *(.vector_45)
 .vector_45     0x9fc017a0        0x8 c:/program files (x86)/microchip/xc32/v1.42/bin/bin/../../lib/gcc/pic32mx/4.8.3/../../../../pic32mx/lib\libpic32.a(vector45.o)
                0x9fc017a0                __vector_dispatch_45
                0x00000001                ASSERT (((_vector_spacing == 0x0) || (SIZEOF (.vector_45) <= (_vector_spacing << 0x5))), function at exception vector 45 too large)

.vector_46      0x9fc017c0        0x8
 *(.vector_46)
 .vector_46     0x9fc017c0        0x8 c:/program files (x86)/microchip/xc32/v1.42/bin/bin/../../lib/gcc/pic32mx/4.8.3/../../../../pic32mx/lib\libpic32.a(vector46.o)
                0x9fc017c0                __vector_dispatch_46
                0x00000001                ASSERT (((_vector_spacing == 0x0) || (SIZEOF (.vector_46) <= (_vector_spacing << 0x5))), function at exception vector 46 too large)

.vector_47      0x9fc017e0        0x8
 *(.vector_47)
 .vector_47     0x9fc017e0        0x8 c:/program files (x86)/microchip/xc32/v1.42/bin/bin/../../lib/gcc/pic32mx/4.8.3/../../../../pic32mx/lib\libpic32.a(vector47.o)
                0x9fc017e0                __vector_dispatch_47
                0x00000001                ASSERT (((_vector_spacing == 0x0) || (SIZEOF (.vector_47) <= (_vector_spacing << 0x5))), function at exception vector 47 too large)

.vector_48      0x9fc01800        0x8
 *(.vector_48)
 .vector_48     0x9fc01800        0x8 build/Diplomamunka/production/_ext/1720293489/system_interrupt.o
                0x9fc01800                __vector_dispatch_48
                0x00000001                ASSERT (((_vector_spacing == 0x0) || (SIZEOF (.vector_48) <= (_vector_spacing << 0x5))), function at exception vector 48 too large)

.vector_49      0x9fc01820        0x8
 *(.vector_49)
 .vector_49     0x9fc01820        0x8 c:/program files (x86)/microchip/xc32/v1.42/bin/bin/../../lib/gcc/pic32mx/4.8.3/../../../../pic32mx/lib\libpic32.a(vector49.o)
                0x9fc01820                __vector_dispatch_49
                0x00000001                ASSERT (((_vector_spacing == 0x0) || (SIZEOF (.vector_49) <= (_vector_spacing << 0x5))), function at exception vector 49 too large)

.vector_50      0x9fc01840        0x8
 *(.vector_50)
 .vector_50     0x9fc01840        0x8 c:/program files (x86)/microchip/xc32/v1.42/bin/bin/../../lib/gcc/pic32mx/4.8.3/../../../../pic32mx/lib\libpic32.a(vector50.o)
                0x9fc01840                __vector_dispatch_50
                0x00000001                ASSERT (((_vector_spacing == 0x0) || (SIZEOF (.vector_50) <= (_vector_spacing << 0x5))), function at exception vector 50 too large)

.vector_51      0x9fc01860        0x8
 *(.vector_51)
 .vector_51     0x9fc01860        0x8 c:/program files (x86)/microchip/xc32/v1.42/bin/bin/../../lib/gcc/pic32mx/4.8.3/../../../../pic32mx/lib\libpic32.a(vector51.o)
                0x9fc01860                __vector_dispatch_51
                0x00000001                ASSERT (((_vector_spacing == 0x0) || (SIZEOF (.vector_51) <= (_vector_spacing << 0x5))), function at exception vector 51 too large)

.vector_52      0x9fc01880        0x0
 *(.vector_52)
                0x00000001                ASSERT (((_vector_spacing == 0x0) || (SIZEOF (.vector_52) <= (_vector_spacing << 0x5))), function at exception vector 52 too large)

.vector_53      0x9fc018a0        0x0
 *(.vector_53)
                0x00000001                ASSERT (((_vector_spacing == 0x0) || (SIZEOF (.vector_53) <= (_vector_spacing << 0x5))), function at exception vector 53 too large)

.vector_54      0x9fc018c0        0x0
 *(.vector_54)
                0x00000001                ASSERT (((_vector_spacing == 0x0) || (SIZEOF (.vector_54) <= (_vector_spacing << 0x5))), function at exception vector 54 too large)

.vector_55      0x9fc018e0        0x0
 *(.vector_55)
                0x00000001                ASSERT (((_vector_spacing == 0x0) || (SIZEOF (.vector_55) <= (_vector_spacing << 0x5))), function at exception vector 55 too large)

.vector_56      0x9fc01900        0x0
 *(.vector_56)
                0x00000001                ASSERT (((_vector_spacing == 0x0) || (SIZEOF (.vector_56) <= (_vector_spacing << 0x5))), function at exception vector 56 too large)

.vector_57      0x9fc01920        0x0
 *(.vector_57)
                0x00000001                ASSERT (((_vector_spacing == 0x0) || (SIZEOF (.vector_57) <= (_vector_spacing << 0x5))), function at exception vector 57 too large)

.vector_58      0x9fc01940        0x0
 *(.vector_58)
                0x00000001                ASSERT (((_vector_spacing == 0x0) || (SIZEOF (.vector_58) <= (_vector_spacing << 0x5))), function at exception vector 58 too large)

.vector_59      0x9fc01960        0x0
 *(.vector_59)
                0x00000001                ASSERT (((_vector_spacing == 0x0) || (SIZEOF (.vector_59) <= (_vector_spacing << 0x5))), function at exception vector 59 too large)

.vector_60      0x9fc01980        0x0
 *(.vector_60)
                0x00000001                ASSERT (((_vector_spacing == 0x0) || (SIZEOF (.vector_60) <= (_vector_spacing << 0x5))), function at exception vector 60 too large)

.vector_61      0x9fc019a0        0x0
 *(.vector_61)
                0x00000001                ASSERT (((_vector_spacing == 0x0) || (SIZEOF (.vector_61) <= (_vector_spacing << 0x5))), function at exception vector 61 too large)

.vector_62      0x9fc019c0        0x0
 *(.vector_62)
                0x00000001                ASSERT (((_vector_spacing == 0x0) || (SIZEOF (.vector_62) <= (_vector_spacing << 0x5))), function at exception vector 62 too large)

.vector_63      0x9fc019e0        0x0
 *(.vector_63)
                0x00000001                ASSERT (((_vector_spacing == 0x0) || (SIZEOF (.vector_63) <= (_vector_spacing << 0x5))), function at exception vector 63 too large)

.startup
 *(.startup)

.text           0x9d000000        0x0
 *(.stub .gnu.linkonce.t.*)
 *(.text.*personality*)
 *(.mips16.fn.*)
 *(.mips16.call.*)
 *(.gnu.warning)
                0x9d000000                . = ALIGN (0x4)

.init           0x9d000000        0x0
 *crti.o(.init)
 *crtbegin.o(.init)
 *(EXCLUDE_FILE(*crtn.o *crtend?.o *crtend.o) .init)
 *crtend.o(.init)
 *crtn.o(.init)
                0x9d000000                . = ALIGN (0x4)

.fini           0x9d000000        0x0
 *(.fini)
                0x9d000000                . = ALIGN (0x4)

.preinit_array  0x9d000000        0x0
                0x9d000000                PROVIDE (__preinit_array_start, .)
 *(.preinit_array)
                0x9d000000                PROVIDE (__preinit_array_end, .)
                0x9d000000                . = ALIGN (0x4)

.init_array     0x9d000000        0x0
                0x9d000000                PROVIDE (__init_array_start, .)
 *(SORT(.init_array.*))
 *(.init_array)
                0x9d000000                PROVIDE (__init_array_end, .)
                0x9d000000                . = ALIGN (0x4)

.fini_array     0x9d000000        0x0
                0x9d000000                PROVIDE (__fini_array_start, .)
 *(SORT(.fini_array.*))
 *(.fini_array)
                0x9d000000                PROVIDE (__fini_array_end, .)
                0x9d000000                . = ALIGN (0x4)

.ctors          0x9d000000        0x0
 *crtbegin.o(.ctors)
 *crtbegin?.o(.ctors)
 *(EXCLUDE_FILE(*crtend?.o *crtend.o) .ctors)
 *(SORT(.ctors.*))
 *(.ctors)
                0x9d000000                . = ALIGN (0x4)

.dtors          0x9d000000        0x0
 *crtbegin.o(.dtors)
 *crtbegin?.o(.dtors)
 *(EXCLUDE_FILE(*crtend?.o *crtend.o) .dtors)
 *(SORT(.dtors.*))
 *(.dtors)
                0x9d000000                . = ALIGN (0x4)

.rodata         0x9d000000        0x0
 *(.gnu.linkonce.r.*)
 *(.rodata1)
                0x9d000000                . = ALIGN (0x4)

.sdata2         0x9fc00490        0x0
 *(.sdata2 .sdata2.* .gnu.linkonce.s2.*)
                0x9fc00490                . = ALIGN (0x4)

.sbss2          0x9fc00490        0x0
 *(.sbss2 .sbss2.* .gnu.linkonce.sb2.*)
                0x9fc00490                . = ALIGN (0x4)

.eh_frame_hdr
 *(.eh_frame_hdr)
                0x9fc00490                . = ALIGN (0x4)

.eh_frame
 *(.eh_frame)
                0x9fc00490                . = ALIGN (0x4)

.gcc_except_table
 *(.gcc_except_table .gcc_except_table.*)
                0x9fc00490                . = ALIGN (0x4)

.dbg_data       0xa0000000        0x0
                0xa0000000                . = (. + DEFINED (_DEBUGGER)?0x200:0x0)

.jcr            0xa0000000        0x0
 *(.jcr)
                0xa0000000                . = ALIGN (0x4)

.eh_frame
 *(.eh_frame)
                0xa0000000                . = ALIGN (0x4)

.gcc_except_table
 *(.gcc_except_table .gcc_except_table.*)
                0xa0000000                . = ALIGN (0x4)

.persist        0xa0000000        0x0
                0xa0000000                _persist_begin = .
 *(.persist .persist.*)
 *(.pbss .pbss.*)
                0xa0000000                . = ALIGN (0x4)
                0xa0000000                _persist_end = .

.data           0xa0000000        0x0
 *(.gnu.linkonce.d.*)
 *(.data1)
                0xa0000000                . = ALIGN (0x4)
                0xa0000000                . = .
                0xa0007ff0                _gp = (ALIGN (0x10) + 0x7ff0)

.got            0xa0000000        0x0
 *(.got.plt)
 *(.got)
                0xa0000000                . = ALIGN (0x4)

.sdata          0xa0000000       0x6c
                0xa0000000                _sdata_begin = .
 *(.sdata .sdata.* .gnu.linkonce.s.*)
 .sdata         0xa0000000        0x8 build/Diplomamunka/production/_ext/1360937237/TCPServer.o
 .sdata         0xa0000008       0x50 build/Diplomamunka/production/_ext/1886890887/asn.o
                0xa0000008                END_PUB_KEY
                0xa000000c                BEGIN_PUB_KEY
                0xa0000010                END_DSA_PRIV
                0xa0000014                BEGIN_DSA_PRIV
                0xa0000018                END_EC_PRIV
                0xa000001c                BEGIN_EC_PRIV
                0xa0000020                END_ENC_PRIV_KEY
                0xa0000024                BEGIN_ENC_PRIV_KEY
                0xa0000028                END_PRIV_KEY
                0xa000002c                BEGIN_PRIV_KEY
                0xa0000030                END_RSA_PRIV
                0xa0000034                BEGIN_RSA_PRIV
                0xa0000038                END_X509_CRL
                0xa000003c                BEGIN_X509_CRL
                0xa0000040                END_DH_PARAM
                0xa0000044                BEGIN_DH_PARAM
                0xa0000048                END_CERT_REQ
                0xa000004c                BEGIN_CERT_REQ
                0xa0000050                END_CERT
                0xa0000054                BEGIN_CERT
 .sdata         0xa0000058        0x4 build/Diplomamunka/production/_ext/1136935090/lfsr.o
 .sdata         0xa000005c        0x8 build/Diplomamunka/production/_ext/1408260596/arp.o
 .sdata         0xa0000064        0x4 build/Diplomamunka/production/_ext/1408260596/tcpip_manager.o
 .sdata         0xa0000068        0x4 c:/program files (x86)/microchip/xc32/v1.42/bin/bin/../../lib/gcc/pic32mx/4.8.3/../../../../pic32mx/lib\libpic32.a(xc32_uart.o)
                0xa0000068                __XC_UART
                0xa000006c                . = ALIGN (0x4)
                0xa000006c                _sdata_end = .

.lit8
 *(.lit8)

.lit4
 *(.lit4)
                0xa000006c                . = ALIGN (0x4)
                0xa000006c                _data_end = .
                0xa000006c                _bss_begin = .

.sbss           0xa000006c      0x148
                0xa000006c                _sbss_begin = .
 *(.dynsbss)
 *(.sbss .sbss.* .gnu.linkonce.sb.*)
 .sbss          0xa000006c        0x6 build/Diplomamunka/production/_ext/1774832663/drv_i2c_static_buffer_model.o
                0xa000006c                QueueDelta_0
                0xa000006e                QueueOut_0
                0xa0000070                QueueIn_0
 *fill*         0xa0000072        0x2 
 .sbss          0xa0000074        0xc build/Diplomamunka/production/_ext/1720293489/system_exceptions.o
 .sbss          0xa0000080        0x8 build/Diplomamunka/production/_ext/1360937237/TCPServer.o
 .sbss          0xa0000088        0xc build/Diplomamunka/production/_ext/1360937237/led.o
 .sbss          0xa0000094        0xc build/Diplomamunka/production/_ext/1886890887/memory.o
 .sbss          0xa00000a0        0x4 build/Diplomamunka/production/_ext/1908841681/drv_ethmac.o
 .sbss          0xa00000a4        0x4 build/Diplomamunka/production/_ext/185269848/drv_tmr.o
 .sbss          0xa00000a8       0x20 build/Diplomamunka/production/_ext/1408260596/tcp.o
 .sbss          0xa00000c8       0x1c build/Diplomamunka/production/_ext/1408260596/udp.o
 .sbss          0xa00000e4       0x20 build/Diplomamunka/production/_ext/1408260596/dhcp.o
 .sbss          0xa0000104       0x10 build/Diplomamunka/production/_ext/1408260596/dns.o
                0xa0000104                _DNSStayCondLoop
                0xa0000108                _DNSStayAssertLoop
 .sbss          0xa0000114        0xc build/Diplomamunka/production/_ext/1408260596/icmp.o
 .sbss          0xa0000120       0x20 build/Diplomamunka/production/_ext/1408260596/tcpip_announce.o
 .sbss          0xa0000140       0x24 build/Diplomamunka/production/_ext/1408260596/tcpip_manager.o
 .sbss          0xa0000164        0x8 build/Diplomamunka/production/_ext/1408260596/tcpip_packet.o
 .sbss          0xa000016c       0x14 build/Diplomamunka/production/_ext/1408260596/ipv4.o
 *(.scommon)
 .scommon       0xa0000180       0x10 build/Diplomamunka/production/_ext/1774832663/drv_i2c_static_buffer_model.o
                0xa0000180                lBufferObj0
                0xa0000184                i2c0State
                0xa0000188                i2c0ClientObj
 .scommon       0xa0000190        0xe build/Diplomamunka/production/_ext/1892475994/sys_clk_static.o
                0xa0000190                icWatchCounter
                0xa0000198                speedMeasParam
 .scommon       0xa000019e        0x0 build/Diplomamunka/production/_ext/1720293489/system_init.o
 .scommon       0xa000019e        0x0 build/Diplomamunka/production/_ext/1720293489/system_interrupt.o
 .scommon       0xa000019e        0x0 build/Diplomamunka/production/_ext/1720293489/system_exceptions.o
 .scommon       0xa000019e        0x0 build/Diplomamunka/production/_ext/1720293489/system_tasks.o
 *fill*         0xa000019e        0x2 
 .scommon       0xa00001a0        0x4 build/Diplomamunka/production/_ext/1360937237/app.o
                0xa00001a0                appData
 .scommon       0xa00001a4        0x8 build/Diplomamunka/production/_ext/1360937237/fan.o
                0xa00001a4                ICTimerHandleT3
                0xa00001a8                pwmTimerHandleT2
 .scommon       0xa00001ac        0x0 build/Diplomamunka/production/_ext/1360937237/led.o
 .scommon       0xa00001ac        0x0 build/Diplomamunka/production/_ext/1908841681/drv_ethmac.o
 .scommon       0xa00001ac        0x0 build/Diplomamunka/production/_ext/1908841681/drv_ethmac_lib.o
 .scommon       0xa00001ac        0x0 build/Diplomamunka/production/_ext/732687875/drv_ethphy.o
 .scommon       0xa00001ac        0x0 build/Diplomamunka/production/_ext/185269848/drv_tmr.o
 .scommon       0xa00001ac        0x8 build/Diplomamunka/production/_ext/1271179505/sys_devcon.o
                0xa00001ac                sysDevconObj
 .scommon       0xa00001b4        0x0 build/Diplomamunka/production/_ext/1408260596/tcp.o
 .scommon       0xa00001b4        0x0 build/Diplomamunka/production/_ext/1408260596/udp.o
 .scommon       0xa00001b4        0x0 build/Diplomamunka/production/_ext/1408260596/tcpip_heap_alloc.o
 .scommon       0xa00001b4        0x0 build/Diplomamunka/production/_ext/1408260596/tcpip_heap_internal.o
 .scommon       0xa00001b4        0x0 build/Diplomamunka/production/_ext/1408260596/arp.o
 .scommon       0xa00001b4        0x0 build/Diplomamunka/production/_ext/1408260596/dhcp.o
 .scommon       0xa00001b4        0x0 build/Diplomamunka/production/_ext/1408260596/dns.o
 .scommon       0xa00001b4        0x0 build/Diplomamunka/production/_ext/1408260596/icmp.o
 .scommon       0xa00001b4        0x0 build/Diplomamunka/production/_ext/1408260596/tcpip_announce.o
 .scommon       0xa00001b4        0x0 build/Diplomamunka/production/_ext/1408260596/tcpip_helpers.o
 .scommon       0xa00001b4        0x0 build/Diplomamunka/production/_ext/1408260596/tcpip_manager.o
 .scommon       0xa00001b4        0x0 build/Diplomamunka/production/_ext/1408260596/tcpip_notify.o
 .scommon       0xa00001b4        0x0 build/Diplomamunka/production/_ext/1408260596/tcpip_packet.o
 .scommon       0xa00001b4        0x0 build/Diplomamunka/production/_ext/1408260596/ipv4.o
                0xa00001b4                _sbss_end = .
                0xa00001b4                . = ALIGN (0x4)

.bss            0xa00001b4      0x1b8
 *(.dynbss)
 *(COMMON)
 COMMON         0xa00001b4       0x2c build/Diplomamunka/production/_ext/1774832663/drv_i2c_static_buffer_model.o
                0xa00001b4                i2c0Obj
 COMMON         0xa00001e0      0x116 build/Diplomamunka/production/_ext/1892475994/sys_clk_static.o
                0xa00001e0                currentParam
                0xa000020c                OBuffer
                0xa00002cc                currentReceivedOnTcpParam
 *fill*         0xa00002f6        0x2 
 COMMON         0xa00002f8       0x18 build/Diplomamunka/production/_ext/1720293489/system_init.o
                0xa00002f8                sysObj
 COMMON         0xa0000310       0x5c build/Diplomamunka/production/_ext/732687875/drv_ethphy.o
                0xa0000310                gDrvETHPHYClientObj
                0xa0000344                gDrvETHPHYObj
                0xa000036c                . = ALIGN ((. != 0x0)?0x4:0x1)
                0xa000036c                . = ALIGN (0x4)
                0xa000036c                _end = .
                0xa000036c                _bss_end = .
                0x00020000                _bmxdudba_address = 0x20000
                0x00020000                _bmxdupba_address = 0x20000

/DISCARD/
 *(.pdr)
 *(.rel.dyn)
 *(.note.GNU-stack)
 *(.note.GNU-stack)
 *(.gnu_debuglink)
 *(.gnu.lto_*)
 *(.discard)

.gptab.sdata
 *(.gptab.data)
 *(.gptab.sdata)

.gptab.sbss
 *(.gptab.bss)
 *(.gptab.sbss)

.mdebug.abi32   0xa000036c        0x0
 *(.mdebug.abi32)
 .mdebug.abi32  0xa000036c        0x0 build/Diplomamunka/production/_ext/1774832663/drv_i2c_static_buffer_model.o
 .mdebug.abi32  0xa000036c        0x0 build/Diplomamunka/production/_ext/1774832663/drv_i2c_mapping.o
 .mdebug.abi32  0xa000036c        0x0 build/Diplomamunka/production/_ext/793758023/drv_ic_static.o
 .mdebug.abi32  0xa000036c        0x0 build/Diplomamunka/production/_ext/965532929/drv_oc_static.o
 .mdebug.abi32  0xa000036c        0x0 build/Diplomamunka/production/_ext/1892475994/sys_clk_static.o
 .mdebug.abi32  0xa000036c        0x0 build/Diplomamunka/production/_ext/904121046/sys_ports_static.o
 .mdebug.abi32  0xa000036c        0x0 build/Diplomamunka/production/_ext/1720293489/system_init.o
 .mdebug.abi32  0xa000036c        0x0 build/Diplomamunka/production/_ext/1720293489/system_interrupt.o
 .mdebug.abi32  0xa000036c        0x0 build/Diplomamunka/production/_ext/1720293489/system_exceptions.o
 .mdebug.abi32  0xa000036c        0x0 build/Diplomamunka/production/_ext/1720293489/system_tasks.o
 .mdebug.abi32  0xa000036c        0x0 build/Diplomamunka/production/_ext/1360937237/app.o
 .mdebug.abi32  0xa000036c        0x0 build/Diplomamunka/production/_ext/1360937237/main.o
 .mdebug.abi32  0xa000036c        0x0 build/Diplomamunka/production/_ext/1360937237/TCPServer.o
 .mdebug.abi32  0xa000036c        0x0 build/Diplomamunka/production/_ext/1360937237/fan.o
 .mdebug.abi32  0xa000036c        0x0 build/Diplomamunka/production/_ext/1360937237/led.o
 .mdebug.abi32  0xa000036c        0x0 build/Diplomamunka/production/_ext/1837361561/bsp_sys_init.o
 .mdebug.abi32  0xa000036c        0x0 build/Diplomamunka/production/_ext/1606841020/adler32.o
 .mdebug.abi32  0xa000036c        0x0 build/Diplomamunka/production/_ext/1606841020/compress.o
 .mdebug.abi32  0xa000036c        0x0 build/Diplomamunka/production/_ext/1606841020/crc32.o
 .mdebug.abi32  0xa000036c        0x0 build/Diplomamunka/production/_ext/1606841020/deflate.o
 .mdebug.abi32  0xa000036c        0x0 build/Diplomamunka/production/_ext/1606841020/infback.o
 .mdebug.abi32  0xa000036c        0x0 build/Diplomamunka/production/_ext/1606841020/inffast.o
 .mdebug.abi32  0xa000036c        0x0 build/Diplomamunka/production/_ext/1606841020/inflate.o
 .mdebug.abi32  0xa000036c        0x0 build/Diplomamunka/production/_ext/1606841020/inftrees.o
 .mdebug.abi32  0xa000036c        0x0 build/Diplomamunka/production/_ext/1606841020/trees.o
 .mdebug.abi32  0xa000036c        0x0 build/Diplomamunka/production/_ext/1606841020/uncompr.o
 .mdebug.abi32  0xa000036c        0x0 build/Diplomamunka/production/_ext/1606841020/zutil.o
 .mdebug.abi32  0xa000036c        0x0 build/Diplomamunka/production/_ext/1886890887/ecc.o
 .mdebug.abi32  0xa000036c        0x0 build/Diplomamunka/production/_ext/1886890887/ssl-dummy.o
 .mdebug.abi32  0xa000036c        0x0 build/Diplomamunka/production/_ext/1886890887/arc4.o
 .mdebug.abi32  0xa000036c        0x0 build/Diplomamunka/production/_ext/1886890887/pwdbased.o
 .mdebug.abi32  0xa000036c        0x0 build/Diplomamunka/production/_ext/1886890887/tfm.o
 .mdebug.abi32  0xa000036c        0x0 build/Diplomamunka/production/_ext/1886890887/asn.o
 .mdebug.abi32  0xa000036c        0x0 build/Diplomamunka/production/_ext/1886890887/des3.o
 .mdebug.abi32  0xa000036c        0x0 build/Diplomamunka/production/_ext/1886890887/rsa.o
 .mdebug.abi32  0xa000036c        0x0 build/Diplomamunka/production/_ext/1886890887/aes.o
 .mdebug.abi32  0xa000036c        0x0 build/Diplomamunka/production/_ext/1886890887/md5.o
 .mdebug.abi32  0xa000036c        0x0 build/Diplomamunka/production/_ext/1886890887/sha.o
 .mdebug.abi32  0xa000036c        0x0 build/Diplomamunka/production/_ext/1886890887/sha256.o
 .mdebug.abi32  0xa000036c        0x0 build/Diplomamunka/production/_ext/1886890887/sha512.o
 .mdebug.abi32  0xa000036c        0x0 build/Diplomamunka/production/_ext/1886890887/hmac.o
 .mdebug.abi32  0xa000036c        0x0 build/Diplomamunka/production/_ext/1886890887/hash.o
 .mdebug.abi32  0xa000036c        0x0 build/Diplomamunka/production/_ext/1886890887/compress.o
 .mdebug.abi32  0xa000036c        0x0 build/Diplomamunka/production/_ext/1886890887/random.o
 .mdebug.abi32  0xa000036c        0x0 build/Diplomamunka/production/_ext/1886890887/crypto.o
 .mdebug.abi32  0xa000036c        0x0 build/Diplomamunka/production/_ext/1886890887/coding.o
 .mdebug.abi32  0xa000036c        0x0 build/Diplomamunka/production/_ext/1886890887/error.o
 .mdebug.abi32  0xa000036c        0x0 build/Diplomamunka/production/_ext/1886890887/integer.o
 .mdebug.abi32  0xa000036c        0x0 build/Diplomamunka/production/_ext/1886890887/logging.o
 .mdebug.abi32  0xa000036c        0x0 build/Diplomamunka/production/_ext/1886890887/memory.o
 .mdebug.abi32  0xa000036c        0x0 build/Diplomamunka/production/_ext/1886890887/misc.o
 .mdebug.abi32  0xa000036c        0x0 build/Diplomamunka/production/_ext/1886890887/port.o
 .mdebug.abi32  0xa000036c        0x0 build/Diplomamunka/production/_ext/1908841681/drv_ethmac.o
 .mdebug.abi32  0xa000036c        0x0 build/Diplomamunka/production/_ext/1908841681/drv_ethmac_lib.o
 .mdebug.abi32  0xa000036c        0x0 build/Diplomamunka/production/_ext/732687875/drv_ethphy.o
 .mdebug.abi32  0xa000036c        0x0 build/Diplomamunka/production/_ext/732687875/drv_extphy_dp83848.o
 .mdebug.abi32  0xa000036c        0x0 build/Diplomamunka/production/_ext/185269848/drv_tmr.o
 .mdebug.abi32  0xa000036c        0x0 build/Diplomamunka/production/_ext/1271179505/sys_devcon.o
 .mdebug.abi32  0xa000036c        0x0 build/Diplomamunka/production/_ext/1271179505/sys_devcon_pic32mx.o
 .mdebug.abi32  0xa000036c        0x0 build/Diplomamunka/production/_ext/122796885/sys_int_pic32.o
 .mdebug.abi32  0xa000036c        0x0 build/Diplomamunka/production/_ext/77319752/sys_ports.o
 .mdebug.abi32  0xa000036c        0x0 build/Diplomamunka/production/_ext/1283840359/sys_random.o
 .mdebug.abi32  0xa000036c        0x0 build/Diplomamunka/production/_ext/1264926591/sys_tmr.o
 .mdebug.abi32  0xa000036c        0x0 build/Diplomamunka/production/_ext/1136935090/helpers.o
 .mdebug.abi32  0xa000036c        0x0 build/Diplomamunka/production/_ext/1136935090/lfsr.o
 .mdebug.abi32  0xa000036c        0x0 build/Diplomamunka/production/_ext/1408260596/tcp.o
 .mdebug.abi32  0xa000036c        0x0 build/Diplomamunka/production/_ext/1408260596/udp.o
 .mdebug.abi32  0xa000036c        0x0 build/Diplomamunka/production/_ext/1408260596/tcpip_heap_alloc.o
 .mdebug.abi32  0xa000036c        0x0 build/Diplomamunka/production/_ext/1408260596/tcpip_heap_internal.o
 .mdebug.abi32  0xa000036c        0x0 build/Diplomamunka/production/_ext/1408260596/arp.o
 .mdebug.abi32  0xa000036c        0x0 build/Diplomamunka/production/_ext/1408260596/dhcp.o
 .mdebug.abi32  0xa000036c        0x0 build/Diplomamunka/production/_ext/1408260596/dns.o
 .mdebug.abi32  0xa000036c        0x0 build/Diplomamunka/production/_ext/1408260596/icmp.o
 .mdebug.abi32  0xa000036c        0x0 build/Diplomamunka/production/_ext/1408260596/tcpip_announce.o
 .mdebug.abi32  0xa000036c        0x0 build/Diplomamunka/production/_ext/1408260596/hash_fnv.o
 .mdebug.abi32  0xa000036c        0x0 build/Diplomamunka/production/_ext/1408260596/oahash.o
 .mdebug.abi32  0xa000036c        0x0 build/Diplomamunka/production/_ext/1408260596/tcpip_helpers.o
 .mdebug.abi32  0xa000036c        0x0 build/Diplomamunka/production/_ext/1408260596/tcpip_manager.o
 .mdebug.abi32  0xa000036c        0x0 build/Diplomamunka/production/_ext/1408260596/tcpip_notify.o
 .mdebug.abi32  0xa000036c        0x0 build/Diplomamunka/production/_ext/1408260596/tcpip_packet.o
 .mdebug.abi32  0xa000036c        0x0 build/Diplomamunka/production/_ext/1408260596/ipv4.o
 .mdebug.abi32  0xa000036c        0x0 ..\..\..\..\bin\framework\peripheral\PIC32MX795F512L_peripherals.a(plib_eth_lib.o)
 .mdebug.abi32  0xa000036c        0x0 c:/program files (x86)/microchip/xc32/v1.42/bin/bin/../../lib/gcc/pic32mx/4.8.3\libgcc.a(_udivdi3.o)
 .mdebug.abi32  0xa000036c        0x0 c:/program files (x86)/microchip/xc32/v1.42/bin/bin/../../lib/gcc/pic32mx/4.8.3\libgcc.a(floatunsisf.o)
 .mdebug.abi32  0xa000036c        0x0 c:/program files (x86)/microchip/xc32/v1.42/bin/bin/../../lib/gcc/pic32mx/4.8.3/../../../../pic32mx/lib\libpic32.a(default-bootstrap-exception-handler.o)
 .mdebug.abi32  0xa000036c        0x0 c:/program files (x86)/microchip/xc32/v1.42/bin/bin/../../lib/gcc/pic32mx/4.8.3/../../../../pic32mx/lib\libpic32.a(default-on-reset.o)
 .mdebug.abi32  0xa000036c        0x0 c:/program files (x86)/microchip/xc32/v1.42/bin/bin/../../lib/gcc/pic32mx/4.8.3/../../../../pic32mx/lib\libpic32.a(default-on-bootstrap.o)
 .mdebug.abi32  0xa000036c        0x0 c:/program files (x86)/microchip/xc32/v1.42/bin/bin/../../lib/gcc/pic32mx/4.8.3/../../../../pic32mx/lib\libpic32.a(defaultinterrupt.o)
 .mdebug.abi32  0xa000036c        0x0 c:/program files (x86)/microchip/xc32/v1.42/bin/bin/../../lib/gcc/pic32mx/4.8.3/../../../../pic32mx/lib\libc.a(calloc.o)
 .mdebug.abi32  0xa000036c        0x0 c:/program files (x86)/microchip/xc32/v1.42/bin/bin/../../lib/gcc/pic32mx/4.8.3/../../../../pic32mx/lib\libc.a(ctime.o)
 .mdebug.abi32  0xa000036c        0x0 c:/program files (x86)/microchip/xc32/v1.42/bin/bin/../../lib/gcc/pic32mx/4.8.3/../../../../pic32mx/lib\libc.a(ctype.o)
 .mdebug.abi32  0xa000036c        0x0 c:/program files (x86)/microchip/xc32/v1.42/bin/bin/../../lib/gcc/pic32mx/4.8.3/../../../../pic32mx/lib\libc.a(ctypef.o)
 .mdebug.abi32  0xa000036c        0x0 c:/program files (x86)/microchip/xc32/v1.42/bin/bin/../../lib/gcc/pic32mx/4.8.3/../../../../pic32mx/lib\libc.a(malloc.o)
 .mdebug.abi32  0xa000036c        0x0 c:/program files (x86)/microchip/xc32/v1.42/bin/bin/../../lib/gcc/pic32mx/4.8.3/../../../../pic32mx/lib\libc.a(memmove.o)
 .mdebug.abi32  0xa000036c        0x0 c:/program files (x86)/microchip/xc32/v1.42/bin/bin/../../lib/gcc/pic32mx/4.8.3/../../../../pic32mx/lib\libc.a(rand.o)
 .mdebug.abi32  0xa000036c        0x0 c:/program files (x86)/microchip/xc32/v1.42/bin/bin/../../lib/gcc/pic32mx/4.8.3/../../../../pic32mx/lib\libc.a(strcat.o)
 .mdebug.abi32  0xa000036c        0x0 c:/program files (x86)/microchip/xc32/v1.42/bin/bin/../../lib/gcc/pic32mx/4.8.3/../../../../pic32mx/lib\libc.a(strncpy.o)
 .mdebug.abi32  0xa000036c        0x0 c:/program files (x86)/microchip/xc32/v1.42/bin/bin/../../lib/gcc/pic32mx/4.8.3/../../../../pic32mx/lib\libc.a(strstr.o)
 .mdebug.abi32  0xa000036c        0x0 c:/program files (x86)/microchip/xc32/v1.42/bin/bin/../../lib/gcc/pic32mx/4.8.3/../../../../pic32mx/lib\libc.a(strtol.o)
 .mdebug.abi32  0xa000036c        0x0 c:/program files (x86)/microchip/xc32/v1.42/bin/bin/../../lib/gcc/pic32mx/4.8.3/../../../../pic32mx/lib\libc.a(time.o)
 .mdebug.abi32  0xa000036c        0x0 c:/program files (x86)/microchip/xc32/v1.42/bin/bin/../../lib/gcc/pic32mx/4.8.3/../../../../pic32mx/lib\libc.a(sprintf_cdnopuxX.eo)
 .mdebug.abi32  0xa000036c        0x0 c:/program files (x86)/microchip/xc32/v1.42/bin/bin/../../lib/gcc/pic32mx/4.8.3/../../../../pic32mx/lib\libc.a(errno.o)
 .mdebug.abi32  0xa000036c        0x0 c:/program files (x86)/microchip/xc32/v1.42/bin/bin/../../lib/gcc/pic32mx/4.8.3/../../../../pic32mx/lib\libc.a(strchr.o)
 .mdebug.abi32  0xa000036c        0x0 c:/program files (x86)/microchip/xc32/v1.42/bin/bin/../../lib/gcc/pic32mx/4.8.3/../../../../pic32mx/lib\libc.a(strncmp.o)
 .mdebug.abi32  0xa000036c        0x0 c:/program files (x86)/microchip/xc32/v1.42/bin/bin/../../lib/gcc/pic32mx/4.8.3/../../../../pic32mx/lib\libc.a(doprnt_cdnopuxX.eo)
 .mdebug.abi32  0xa000036c        0x0 c:/program files (x86)/microchip/xc32/v1.42/bin/bin/../../lib/gcc/pic32mx/4.8.3/../../../../pic32mx/lib\libc.a(_fputc_simple.o)
 .mdebug.abi32  0xa000036c        0x0 c:/program files (x86)/microchip/xc32/v1.42/bin/bin/../../lib/gcc/pic32mx/4.8.3/../../../../pic32mx/lib\libc.a(_iob.o)
 .mdebug.abi32  0xa000036c        0x0 c:/program files (x86)/microchip/xc32/v1.42/bin/bin/../../lib/gcc/pic32mx/4.8.3/../../../../pic32mx/lib\libc.a(_flsbuf_simple.o)
 .mdebug.abi32  0xa000036c        0x0 c:/program files (x86)/microchip/xc32/v1.42/bin/bin/../../lib/gcc/pic32mx/4.8.3/../../../../pic32mx/lib\libpic32.a(sbrk.o)
 .mdebug.abi32  0xa000036c        0x0 c:/program files (x86)/microchip/xc32/v1.42/bin/bin/../../lib/gcc/pic32mx/4.8.3/../../../../pic32mx/lib\libpic32.a(write.o)
 .mdebug.abi32  0xa000036c        0x0 c:/program files (x86)/microchip/xc32/v1.42/bin/bin/../../lib/gcc/pic32mx/4.8.3/../../../../pic32mx/lib\libpic32.a(_mon_putc.o)
 .mdebug.abi32  0xa000036c        0x0 c:/program files (x86)/microchip/xc32/v1.42/bin/bin/../../lib/gcc/pic32mx/4.8.3/../../../../pic32mx/lib\libpic32.a(xc32_uart.o)
 .mdebug.abi32  0xa000036c        0x0 c:/program files (x86)/microchip/xc32/v1.42/bin/bin/../../lib/gcc/pic32mx/4.8.3\libgcc.a(_umoddi3.o)

.mdebug.abiN32
 *(.mdebug.abiN32)

.mdebug.abi64
 *(.mdebug.abi64)

.mdebug.abiO64
 *(.mdebug.abiO64)

.mdebug.eabi32
 *(.mdebug.eabi32)

.mdebug.eabi64
 *(.mdebug.eabi64)

.gcc_compiled_long32
 *(.gcc_compiled_long32)

.gcc_compiled_long64
 *(.gcc_compiled_long64)

.stab
 *(.stab)

.stabstr
 *(.stabstr)

.stab.excl
 *(.stab.excl)

.stab.exclstr
 *(.stab.exclstr)

.stab.index
 *(.stab.index)

.stab.indexstr
 *(.stab.indexstr)

.comment        0x00000000      0x1c2
 *(.comment)
 .comment       0x00000000       0x3c build/Diplomamunka/production/_ext/1774832663/drv_i2c_static_buffer_model.o
                                 0x3d (size before relaxing)
 .comment       0x00000000       0x3d build/Diplomamunka/production/_ext/1774832663/drv_i2c_mapping.o
 .comment       0x00000000       0x3d build/Diplomamunka/production/_ext/793758023/drv_ic_static.o
 .comment       0x00000000       0x3d build/Diplomamunka/production/_ext/965532929/drv_oc_static.o
 .comment       0x00000000       0x3d build/Diplomamunka/production/_ext/1892475994/sys_clk_static.o
 .comment       0x00000000       0x3d build/Diplomamunka/production/_ext/904121046/sys_ports_static.o
 .comment       0x00000000       0x3d build/Diplomamunka/production/_ext/1720293489/system_init.o
 .comment       0x00000000       0x3d build/Diplomamunka/production/_ext/1720293489/system_interrupt.o
 .comment       0x00000000       0x3d build/Diplomamunka/production/_ext/1720293489/system_exceptions.o
 .comment       0x00000000       0x3d build/Diplomamunka/production/_ext/1720293489/system_tasks.o
 .comment       0x00000000       0x3d build/Diplomamunka/production/_ext/1360937237/app.o
 .comment       0x00000000       0x3d build/Diplomamunka/production/_ext/1360937237/main.o
 .comment       0x00000000       0x3d build/Diplomamunka/production/_ext/1360937237/TCPServer.o
 .comment       0x00000000       0x3d build/Diplomamunka/production/_ext/1360937237/fan.o
 .comment       0x00000000       0x3d build/Diplomamunka/production/_ext/1360937237/led.o
 .comment       0x00000000       0x3d build/Diplomamunka/production/_ext/1837361561/bsp_sys_init.o
 .comment       0x00000000       0x3d build/Diplomamunka/production/_ext/1606841020/adler32.o
 .comment       0x00000000       0x3d build/Diplomamunka/production/_ext/1606841020/compress.o
 .comment       0x00000000       0x3d build/Diplomamunka/production/_ext/1606841020/crc32.o
 .comment       0x00000000       0x3d build/Diplomamunka/production/_ext/1606841020/deflate.o
 .comment       0x00000000       0x3d build/Diplomamunka/production/_ext/1606841020/infback.o
 .comment       0x00000000       0x3d build/Diplomamunka/production/_ext/1606841020/inffast.o
 .comment       0x00000000       0x3d build/Diplomamunka/production/_ext/1606841020/inflate.o
 .comment       0x00000000       0x3d build/Diplomamunka/production/_ext/1606841020/inftrees.o
 .comment       0x00000000       0x3d build/Diplomamunka/production/_ext/1606841020/trees.o
 .comment       0x00000000       0x3d build/Diplomamunka/production/_ext/1606841020/uncompr.o
 .comment       0x00000000       0x3d build/Diplomamunka/production/_ext/1606841020/zutil.o
 .comment       0x00000000       0x3d build/Diplomamunka/production/_ext/1886890887/ecc.o
 .comment       0x00000000       0x3d build/Diplomamunka/production/_ext/1886890887/ssl-dummy.o
 .comment       0x00000000       0x3d build/Diplomamunka/production/_ext/1886890887/arc4.o
 .comment       0x00000000       0x3d build/Diplomamunka/production/_ext/1886890887/pwdbased.o
 .comment       0x00000000       0x3d build/Diplomamunka/production/_ext/1886890887/tfm.o
 .comment       0x00000000       0x3d build/Diplomamunka/production/_ext/1886890887/asn.o
 .comment       0x00000000       0x3d build/Diplomamunka/production/_ext/1886890887/des3.o
 .comment       0x00000000       0x3d build/Diplomamunka/production/_ext/1886890887/rsa.o
 .comment       0x00000000       0x3d build/Diplomamunka/production/_ext/1886890887/aes.o
 .comment       0x00000000       0x3d build/Diplomamunka/production/_ext/1886890887/md5.o
 .comment       0x00000000       0x3d build/Diplomamunka/production/_ext/1886890887/sha.o
 .comment       0x00000000       0x3d build/Diplomamunka/production/_ext/1886890887/sha256.o
 .comment       0x00000000       0x3d build/Diplomamunka/production/_ext/1886890887/sha512.o
 .comment       0x00000000       0x3d build/Diplomamunka/production/_ext/1886890887/hmac.o
 .comment       0x00000000       0x3d build/Diplomamunka/production/_ext/1886890887/hash.o
 .comment       0x00000000       0x3d build/Diplomamunka/production/_ext/1886890887/compress.o
 .comment       0x00000000       0x3d build/Diplomamunka/production/_ext/1886890887/random.o
 .comment       0x00000000       0x3d build/Diplomamunka/production/_ext/1886890887/crypto.o
 .comment       0x00000000       0x3d build/Diplomamunka/production/_ext/1886890887/coding.o
 .comment       0x00000000       0x3d build/Diplomamunka/production/_ext/1886890887/error.o
 .comment       0x00000000       0x3d build/Diplomamunka/production/_ext/1886890887/integer.o
 .comment       0x00000000       0x3d build/Diplomamunka/production/_ext/1886890887/logging.o
 .comment       0x00000000       0x3d build/Diplomamunka/production/_ext/1886890887/memory.o
 .comment       0x00000000       0x3d build/Diplomamunka/production/_ext/1886890887/misc.o
 .comment       0x00000000       0x3d build/Diplomamunka/production/_ext/1886890887/port.o
 .comment       0x00000000       0x3d build/Diplomamunka/production/_ext/1908841681/drv_ethmac.o
 .comment       0x00000000       0x3d build/Diplomamunka/production/_ext/1908841681/drv_ethmac_lib.o
 .comment       0x00000000       0x3d build/Diplomamunka/production/_ext/732687875/drv_ethphy.o
 .comment       0x00000000       0x3d build/Diplomamunka/production/_ext/732687875/drv_extphy_dp83848.o
 .comment       0x00000000       0x3d build/Diplomamunka/production/_ext/185269848/drv_tmr.o
 .comment       0x00000000       0x3d build/Diplomamunka/production/_ext/1271179505/sys_devcon.o
 .comment       0x00000000       0x3d build/Diplomamunka/production/_ext/1271179505/sys_devcon_pic32mx.o
 .comment       0x00000000       0x3d build/Diplomamunka/production/_ext/122796885/sys_int_pic32.o
 .comment       0x00000000       0x3d build/Diplomamunka/production/_ext/77319752/sys_ports.o
 .comment       0x00000000       0x3d build/Diplomamunka/production/_ext/1283840359/sys_random.o
 .comment       0x00000000       0x3d build/Diplomamunka/production/_ext/1264926591/sys_tmr.o
 .comment       0x00000000       0x3d build/Diplomamunka/production/_ext/1136935090/helpers.o
 .comment       0x00000000       0x3d build/Diplomamunka/production/_ext/1136935090/lfsr.o
 .comment       0x00000000       0x3d build/Diplomamunka/production/_ext/1408260596/tcp.o
 .comment       0x00000000       0x3d build/Diplomamunka/production/_ext/1408260596/udp.o
 .comment       0x00000000       0x3d build/Diplomamunka/production/_ext/1408260596/tcpip_heap_alloc.o
 .comment       0x00000000       0x3d build/Diplomamunka/production/_ext/1408260596/tcpip_heap_internal.o
 .comment       0x00000000       0x3d build/Diplomamunka/production/_ext/1408260596/arp.o
 .comment       0x00000000       0x3d build/Diplomamunka/production/_ext/1408260596/dhcp.o
 .comment       0x00000000       0x3d build/Diplomamunka/production/_ext/1408260596/dns.o
 .comment       0x00000000       0x3d build/Diplomamunka/production/_ext/1408260596/icmp.o
 .comment       0x00000000       0x3d build/Diplomamunka/production/_ext/1408260596/tcpip_announce.o
 .comment       0x00000000       0x3d build/Diplomamunka/production/_ext/1408260596/hash_fnv.o
 .comment       0x00000000       0x3d build/Diplomamunka/production/_ext/1408260596/oahash.o
 .comment       0x00000000       0x3d build/Diplomamunka/production/_ext/1408260596/tcpip_helpers.o
 .comment       0x00000000       0x3d build/Diplomamunka/production/_ext/1408260596/tcpip_manager.o
 .comment       0x00000000       0x3d build/Diplomamunka/production/_ext/1408260596/tcpip_notify.o
 .comment       0x00000000       0x3d build/Diplomamunka/production/_ext/1408260596/tcpip_packet.o
 .comment       0x00000000       0x3d build/Diplomamunka/production/_ext/1408260596/ipv4.o
 .comment       0x0000003c       0x3c ..\..\..\..\bin\framework\peripheral\PIC32MX795F512L_peripherals.a(plib_eth_lib.o)
                                 0x3d (size before relaxing)
 .comment       0x00000000       0x3d c:/program files (x86)/microchip/xc32/v1.42/bin/bin/../../lib/gcc/pic32mx/4.8.3\libgcc.a(_udivdi3.o)
 .comment       0x00000000       0x3d c:/program files (x86)/microchip/xc32/v1.42/bin/bin/../../lib/gcc/pic32mx/4.8.3\libgcc.a(floatunsisf.o)
 .comment       0x00000078       0x18 c:/program files (x86)/microchip/xc32/v1.42/bin/bin/../../lib/gcc/pic32mx/4.8.3/../../../../pic32mx/lib\libpic32.a(memcmp.o)
                                 0x19 (size before relaxing)
 .comment       0x00000090       0x18 c:/program files (x86)/microchip/xc32/v1.42/bin/bin/../../lib/gcc/pic32mx/4.8.3/../../../../pic32mx/lib\libpic32.a(memset.o)
                                 0x19 (size before relaxing)
 .comment       0x000000a8       0x19 c:/program files (x86)/microchip/xc32/v1.42/bin/bin/../../lib/gcc/pic32mx/4.8.3/../../../../pic32mx/lib\libpic32.a(strcmp.o)
                                 0x1a (size before relaxing)
 .comment       0x000000c1       0x19 c:/program files (x86)/microchip/xc32/v1.42/bin/bin/../../lib/gcc/pic32mx/4.8.3/../../../../pic32mx/lib\libpic32.a(strlen.o)
                                 0x1a (size before relaxing)
 .comment       0x00000000       0x3d c:/program files (x86)/microchip/xc32/v1.42/bin/bin/../../lib/gcc/pic32mx/4.8.3/../../../../pic32mx/lib\libpic32.a(default-bootstrap-exception-handler.o)
 .comment       0x00000000       0x3d c:/program files (x86)/microchip/xc32/v1.42/bin/bin/../../lib/gcc/pic32mx/4.8.3/../../../../pic32mx/lib\libpic32.a(default-on-reset.o)
 .comment       0x00000000       0x3d c:/program files (x86)/microchip/xc32/v1.42/bin/bin/../../lib/gcc/pic32mx/4.8.3/../../../../pic32mx/lib\libpic32.a(default-on-bootstrap.o)
 .comment       0x00000000       0x3d c:/program files (x86)/microchip/xc32/v1.42/bin/bin/../../lib/gcc/pic32mx/4.8.3/../../../../pic32mx/lib\libpic32.a(defaultinterrupt.o)
 .comment       0x00000000       0x3d c:/program files (x86)/microchip/xc32/v1.42/bin/bin/../../lib/gcc/pic32mx/4.8.3/../../../../pic32mx/lib\libc.a(calloc.o)
 .comment       0x00000000       0x3d c:/program files (x86)/microchip/xc32/v1.42/bin/bin/../../lib/gcc/pic32mx/4.8.3/../../../../pic32mx/lib\libc.a(ctime.o)
 .comment       0x000000da       0x4e c:/program files (x86)/microchip/xc32/v1.42/bin/bin/../../lib/gcc/pic32mx/4.8.3/../../../../pic32mx/lib\libc.a(ctype.o)
                                 0x8b (size before relaxing)
 .comment       0x00000128       0x4f c:/program files (x86)/microchip/xc32/v1.42/bin/bin/../../lib/gcc/pic32mx/4.8.3/../../../../pic32mx/lib\libc.a(ctypef.o)
                                 0x8c (size before relaxing)
 .comment       0x00000000       0x3d c:/program files (x86)/microchip/xc32/v1.42/bin/bin/../../lib/gcc/pic32mx/4.8.3/../../../../pic32mx/lib\libc.a(malloc.o)
 .comment       0x00000000       0x3d c:/program files (x86)/microchip/xc32/v1.42/bin/bin/../../lib/gcc/pic32mx/4.8.3/../../../../pic32mx/lib\libc.a(memmove.o)
 .comment       0x00000000       0x3d c:/program files (x86)/microchip/xc32/v1.42/bin/bin/../../lib/gcc/pic32mx/4.8.3/../../../../pic32mx/lib\libc.a(rand.o)
 .comment       0x00000000       0x3d c:/program files (x86)/microchip/xc32/v1.42/bin/bin/../../lib/gcc/pic32mx/4.8.3/../../../../pic32mx/lib\libc.a(strcat.o)
 .comment       0x00000000       0x3d c:/program files (x86)/microchip/xc32/v1.42/bin/bin/../../lib/gcc/pic32mx/4.8.3/../../../../pic32mx/lib\libc.a(strncpy.o)
 .comment       0x00000000       0x3d c:/program files (x86)/microchip/xc32/v1.42/bin/bin/../../lib/gcc/pic32mx/4.8.3/../../../../pic32mx/lib\libc.a(strstr.o)
 .comment       0x00000000       0x3d c:/program files (x86)/microchip/xc32/v1.42/bin/bin/../../lib/gcc/pic32mx/4.8.3/../../../../pic32mx/lib\libc.a(strtol.o)
 .comment       0x00000000       0x3d c:/program files (x86)/microchip/xc32/v1.42/bin/bin/../../lib/gcc/pic32mx/4.8.3/../../../../pic32mx/lib\libc.a(time.o)
 .comment       0x00000000       0x3d c:/program files (x86)/microchip/xc32/v1.42/bin/bin/../../lib/gcc/pic32mx/4.8.3/../../../../pic32mx/lib\libc.a(sprintf_cdnopuxX.eo)
 .comment       0x00000000       0x3d c:/program files (x86)/microchip/xc32/v1.42/bin/bin/../../lib/gcc/pic32mx/4.8.3/../../../../pic32mx/lib\libc.a(errno.o)
 .comment       0x00000000       0x3d c:/program files (x86)/microchip/xc32/v1.42/bin/bin/../../lib/gcc/pic32mx/4.8.3/../../../../pic32mx/lib\libc.a(strchr.o)
 .comment       0x00000000       0x3d c:/program files (x86)/microchip/xc32/v1.42/bin/bin/../../lib/gcc/pic32mx/4.8.3/../../../../pic32mx/lib\libc.a(strncmp.o)
 .comment       0x00000000       0x3d c:/program files (x86)/microchip/xc32/v1.42/bin/bin/../../lib/gcc/pic32mx/4.8.3/../../../../pic32mx/lib\libc.a(doprnt_cdnopuxX.eo)
 .comment       0x00000000       0x3d c:/program files (x86)/microchip/xc32/v1.42/bin/bin/../../lib/gcc/pic32mx/4.8.3/../../../../pic32mx/lib\libc.a(_fputc_simple.o)
 .comment       0x00000000       0x3d c:/program files (x86)/microchip/xc32/v1.42/bin/bin/../../lib/gcc/pic32mx/4.8.3/../../../../pic32mx/lib\libc.a(_iob.o)
 .comment       0x00000000       0x3d c:/program files (x86)/microchip/xc32/v1.42/bin/bin/../../lib/gcc/pic32mx/4.8.3/../../../../pic32mx/lib\libc.a(_flsbuf_simple.o)
 .comment       0x00000177       0x4b c:/program files (x86)/microchip/xc32/v1.42/bin/bin/../../lib/gcc/pic32mx/4.8.3/../../../../pic32mx/lib\libpic32.a(sbrk.o)
                                 0x88 (size before relaxing)
 .comment       0x00000000       0x3d c:/program files (x86)/microchip/xc32/v1.42/bin/bin/../../lib/gcc/pic32mx/4.8.3/../../../../pic32mx/lib\libpic32.a(write.o)
 .comment       0x00000000       0x3d c:/program files (x86)/microchip/xc32/v1.42/bin/bin/../../lib/gcc/pic32mx/4.8.3/../../../../pic32mx/lib\libpic32.a(_mon_putc.o)
 .comment       0x00000000       0x3d c:/program files (x86)/microchip/xc32/v1.42/bin/bin/../../lib/gcc/pic32mx/4.8.3/../../../../pic32mx/lib\libpic32.a(xc32_uart.o)
 .comment       0x00000000       0x3d c:/program files (x86)/microchip/xc32/v1.42/bin/bin/../../lib/gcc/pic32mx/4.8.3\libgcc.a(_umoddi3.o)

.debug
 *(.debug)

.line
 *(.line)

.debug_srcinfo
 *(.debug_srcinfo)

.debug_sfnames
 *(.debug_sfnames)

.debug_aranges  0x00000000     0x3120
 *(.debug_aranges)
 .debug_aranges
                0x00000000       0x90 build/Diplomamunka/production/_ext/1774832663/drv_i2c_static_buffer_model.o
 .debug_aranges
                0x00000090       0x60 build/Diplomamunka/production/_ext/1774832663/drv_i2c_mapping.o
 .debug_aranges
                0x000000f0       0x78 build/Diplomamunka/production/_ext/793758023/drv_ic_static.o
 .debug_aranges
                0x00000168      0x108 build/Diplomamunka/production/_ext/965532929/drv_oc_static.o
 .debug_aranges
                0x00000270       0x50 build/Diplomamunka/production/_ext/1892475994/sys_clk_static.o
 .debug_aranges
                0x000002c0       0x20 build/Diplomamunka/production/_ext/904121046/sys_ports_static.o
 .debug_aranges
                0x000002e0       0x28 build/Diplomamunka/production/_ext/1720293489/system_init.o
 .debug_aranges
                0x00000308       0x58 build/Diplomamunka/production/_ext/1720293489/system_interrupt.o
 .debug_aranges
                0x00000360       0x20 build/Diplomamunka/production/_ext/1720293489/system_exceptions.o
 .debug_aranges
                0x00000380       0x20 build/Diplomamunka/production/_ext/1720293489/system_tasks.o
 .debug_aranges
                0x000003a0       0x58 build/Diplomamunka/production/_ext/1360937237/app.o
 .debug_aranges
                0x000003f8       0x20 build/Diplomamunka/production/_ext/1360937237/main.o
 .debug_aranges
                0x00000418       0x28 build/Diplomamunka/production/_ext/1360937237/TCPServer.o
 .debug_aranges
                0x00000440       0x40 build/Diplomamunka/production/_ext/1360937237/fan.o
 .debug_aranges
                0x00000480       0x28 build/Diplomamunka/production/_ext/1360937237/led.o
 .debug_aranges
                0x000004a8       0x60 build/Diplomamunka/production/_ext/1837361561/bsp_sys_init.o
 .debug_aranges
                0x00000508       0x38 build/Diplomamunka/production/_ext/1606841020/adler32.o
 .debug_aranges
                0x00000540       0x30 build/Diplomamunka/production/_ext/1606841020/compress.o
 .debug_aranges
                0x00000570       0x50 build/Diplomamunka/production/_ext/1606841020/crc32.o
 .debug_aranges
                0x000005c0       0xc0 build/Diplomamunka/production/_ext/1606841020/deflate.o
 .debug_aranges
                0x00000680       0x30 build/Diplomamunka/production/_ext/1606841020/infback.o
 .debug_aranges
                0x000006b0       0x20 build/Diplomamunka/production/_ext/1606841020/inffast.o
 .debug_aranges
                0x000006d0       0xa0 build/Diplomamunka/production/_ext/1606841020/inflate.o
 .debug_aranges
                0x00000770       0x20 build/Diplomamunka/production/_ext/1606841020/inftrees.o
 .debug_aranges
                0x00000790       0x88 build/Diplomamunka/production/_ext/1606841020/trees.o
 .debug_aranges
                0x00000818       0x20 build/Diplomamunka/production/_ext/1606841020/uncompr.o
 .debug_aranges
                0x00000838       0x40 build/Diplomamunka/production/_ext/1606841020/zutil.o
 .debug_aranges
                0x00000878       0x18 build/Diplomamunka/production/_ext/1886890887/ecc.o
 .debug_aranges
                0x00000890       0x38 build/Diplomamunka/production/_ext/1886890887/ssl-dummy.o
 .debug_aranges
                0x000008c8       0x28 build/Diplomamunka/production/_ext/1886890887/arc4.o
 .debug_aranges
                0x000008f0       0x48 build/Diplomamunka/production/_ext/1886890887/pwdbased.o
 .debug_aranges
                0x00000938      0x250 build/Diplomamunka/production/_ext/1886890887/tfm.o
 .debug_aranges
                0x00000b88      0x190 build/Diplomamunka/production/_ext/1886890887/asn.o
 .debug_aranges
                0x00000d18       0x78 build/Diplomamunka/production/_ext/1886890887/des3.o
 .debug_aranges
                0x00000d90       0x78 build/Diplomamunka/production/_ext/1886890887/rsa.o
 .debug_aranges
                0x00000e08       0x38 build/Diplomamunka/production/_ext/1886890887/aes.o
 .debug_aranges
                0x00000e40       0x40 build/Diplomamunka/production/_ext/1886890887/md5.o
 .debug_aranges
                0x00000e80       0x38 build/Diplomamunka/production/_ext/1886890887/sha.o
 .debug_aranges
                0x00000eb8       0x38 build/Diplomamunka/production/_ext/1886890887/sha256.o
 .debug_aranges
                0x00000ef0       0x18 build/Diplomamunka/production/_ext/1886890887/sha512.o
 .debug_aranges
                0x00000f08       0x40 build/Diplomamunka/production/_ext/1886890887/hmac.o
 .debug_aranges
                0x00000f48       0x68 build/Diplomamunka/production/_ext/1886890887/hash.o
 .debug_aranges
                0x00000fb0       0x18 build/Diplomamunka/production/_ext/1886890887/compress.o
 .debug_aranges
                0x00000fc8       0x78 build/Diplomamunka/production/_ext/1886890887/random.o
 .debug_aranges
                0x00001040      0x128 build/Diplomamunka/production/_ext/1886890887/crypto.o
 .debug_aranges
                0x00001168       0x48 build/Diplomamunka/production/_ext/1886890887/coding.o
 .debug_aranges
                0x000011b0       0x28 build/Diplomamunka/production/_ext/1886890887/error.o
 .debug_aranges
                0x000011d8       0x18 build/Diplomamunka/production/_ext/1886890887/integer.o
 .debug_aranges
                0x000011f0       0x30 build/Diplomamunka/production/_ext/1886890887/logging.o
 .debug_aranges
                0x00001220       0x38 build/Diplomamunka/production/_ext/1886890887/memory.o
 .debug_aranges
                0x00001258       0x18 build/Diplomamunka/production/_ext/1886890887/misc.o
 .debug_aranges
                0x00001270       0x40 build/Diplomamunka/production/_ext/1886890887/port.o
 .debug_aranges
                0x000012b0      0x180 build/Diplomamunka/production/_ext/1908841681/drv_ethmac.o
 .debug_aranges
                0x00001430       0xf0 build/Diplomamunka/production/_ext/1908841681/drv_ethmac_lib.o
 .debug_aranges
                0x00001520      0x280 build/Diplomamunka/production/_ext/732687875/drv_ethphy.o
 .debug_aranges
                0x000017a0       0x30 build/Diplomamunka/production/_ext/732687875/drv_extphy_dp83848.o
 .debug_aranges
                0x000017d0      0x178 build/Diplomamunka/production/_ext/185269848/drv_tmr.o
 .debug_aranges
                0x00001948       0x78 build/Diplomamunka/production/_ext/1271179505/sys_devcon.o
 .debug_aranges
                0x000019c0       0x20 build/Diplomamunka/production/_ext/1271179505/sys_devcon_pic32mx.o
 .debug_aranges
                0x000019e0       0x48 build/Diplomamunka/production/_ext/122796885/sys_int_pic32.o
 .debug_aranges
                0x00001a28      0x100 build/Diplomamunka/production/_ext/77319752/sys_ports.o
 .debug_aranges
                0x00001b28       0x68 build/Diplomamunka/production/_ext/1283840359/sys_random.o
 .debug_aranges
                0x00001b90       0xd0 build/Diplomamunka/production/_ext/1264926591/sys_tmr.o
 .debug_aranges
                0x00001c60       0x58 build/Diplomamunka/production/_ext/1136935090/helpers.o
 .debug_aranges
                0x00001cb8       0x28 build/Diplomamunka/production/_ext/1136935090/lfsr.o
 .debug_aranges
                0x00001ce0      0x210 build/Diplomamunka/production/_ext/1408260596/tcp.o
 .debug_aranges
                0x00001ef0      0x1b0 build/Diplomamunka/production/_ext/1408260596/udp.o
 .debug_aranges
                0x000020a0       0x48 build/Diplomamunka/production/_ext/1408260596/tcpip_heap_alloc.o
 .debug_aranges
                0x000020e8       0x60 build/Diplomamunka/production/_ext/1408260596/tcpip_heap_internal.o
 .debug_aranges
                0x00002148      0x110 build/Diplomamunka/production/_ext/1408260596/arp.o
 .debug_aranges
                0x00002258      0x180 build/Diplomamunka/production/_ext/1408260596/dhcp.o
 .debug_aranges
                0x000023d8      0x140 build/Diplomamunka/production/_ext/1408260596/dns.o
 .debug_aranges
                0x00002518       0x60 build/Diplomamunka/production/_ext/1408260596/icmp.o
 .debug_aranges
                0x00002578       0x48 build/Diplomamunka/production/_ext/1408260596/tcpip_announce.o
 .debug_aranges
                0x000025c0       0x28 build/Diplomamunka/production/_ext/1408260596/hash_fnv.o
 .debug_aranges
                0x000025e8       0x50 build/Diplomamunka/production/_ext/1408260596/oahash.o
 .debug_aranges
                0x00002638      0x200 build/Diplomamunka/production/_ext/1408260596/tcpip_helpers.o
 .debug_aranges
                0x00002838       0x20 build/Diplomamunka/production/_ext/1408260596/tcpip_helper_c32.o
 .debug_aranges
                0x00002858      0x368 build/Diplomamunka/production/_ext/1408260596/tcpip_manager.o
 .debug_aranges
                0x00002bc0       0x40 build/Diplomamunka/production/_ext/1408260596/tcpip_notify.o
 .debug_aranges
                0x00002c00       0x78 build/Diplomamunka/production/_ext/1408260596/tcpip_packet.o
 .debug_aranges
                0x00002c78       0x68 build/Diplomamunka/production/_ext/1408260596/ipv4.o
 .debug_aranges
                0x00002ce0       0x20 c:/program files (x86)/microchip/xc32/v1.42/bin/bin/../../lib/gcc/pic32mx/4.8.3\libgcc.a(_udivdi3.o)
 .debug_aranges
                0x00002d00       0x20 c:/program files (x86)/microchip/xc32/v1.42/bin/bin/../../lib/gcc/pic32mx/4.8.3\libgcc.a(floatunsisf.o)
 .debug_aranges
                0x00002d20       0x20 c:/program files (x86)/microchip/xc32/v1.42/bin/bin/../../lib/gcc/pic32mx/4.8.3/../../../../pic32mx/lib\libpic32.a(default-bootstrap-exception-handler.o)
 .debug_aranges
                0x00002d40       0x20 c:/program files (x86)/microchip/xc32/v1.42/bin/bin/../../lib/gcc/pic32mx/4.8.3/../../../../pic32mx/lib\libpic32.a(default-on-reset.o)
 .debug_aranges
                0x00002d60       0x20 c:/program files (x86)/microchip/xc32/v1.42/bin/bin/../../lib/gcc/pic32mx/4.8.3/../../../../pic32mx/lib\libpic32.a(default-on-bootstrap.o)
 .debug_aranges
                0x00002d80       0x20 c:/program files (x86)/microchip/xc32/v1.42/bin/bin/../../lib/gcc/pic32mx/4.8.3/../../../../pic32mx/lib\libpic32.a(defaultinterrupt.o)
 .debug_aranges
                0x00002da0       0x20 c:/program files (x86)/microchip/xc32/v1.42/bin/bin/../../lib/gcc/pic32mx/4.8.3/../../../../pic32mx/lib\libc.a(calloc.o)
 .debug_aranges
                0x00002dc0       0x40 c:/program files (x86)/microchip/xc32/v1.42/bin/bin/../../lib/gcc/pic32mx/4.8.3/../../../../pic32mx/lib\libc.a(ctime.o)
 .debug_aranges
                0x00002e00       0xa0 c:/program files (x86)/microchip/xc32/v1.42/bin/bin/../../lib/gcc/pic32mx/4.8.3/../../../../pic32mx/lib\libc.a(ctypef.o)
 .debug_aranges
                0x00002ea0       0x30 c:/program files (x86)/microchip/xc32/v1.42/bin/bin/../../lib/gcc/pic32mx/4.8.3/../../../../pic32mx/lib\libc.a(malloc.o)
 .debug_aranges
                0x00002ed0       0x20 c:/program files (x86)/microchip/xc32/v1.42/bin/bin/../../lib/gcc/pic32mx/4.8.3/../../../../pic32mx/lib\libc.a(memmove.o)
 .debug_aranges
                0x00002ef0       0x28 c:/program files (x86)/microchip/xc32/v1.42/bin/bin/../../lib/gcc/pic32mx/4.8.3/../../../../pic32mx/lib\libc.a(rand.o)
 .debug_aranges
                0x00002f18       0x20 c:/program files (x86)/microchip/xc32/v1.42/bin/bin/../../lib/gcc/pic32mx/4.8.3/../../../../pic32mx/lib\libc.a(strcat.o)
 .debug_aranges
                0x00002f38       0x20 c:/program files (x86)/microchip/xc32/v1.42/bin/bin/../../lib/gcc/pic32mx/4.8.3/../../../../pic32mx/lib\libc.a(strncpy.o)
 .debug_aranges
                0x00002f58       0x20 c:/program files (x86)/microchip/xc32/v1.42/bin/bin/../../lib/gcc/pic32mx/4.8.3/../../../../pic32mx/lib\libc.a(strstr.o)
 .debug_aranges
                0x00002f78       0x28 c:/program files (x86)/microchip/xc32/v1.42/bin/bin/../../lib/gcc/pic32mx/4.8.3/../../../../pic32mx/lib\libc.a(strtol.o)
 .debug_aranges
                0x00002fa0       0x20 c:/program files (x86)/microchip/xc32/v1.42/bin/bin/../../lib/gcc/pic32mx/4.8.3/../../../../pic32mx/lib\libc.a(time.o)
 .debug_aranges
                0x00002fc0       0x20 c:/program files (x86)/microchip/xc32/v1.42/bin/bin/../../lib/gcc/pic32mx/4.8.3/../../../../pic32mx/lib\libc.a(sprintf_cdnopuxX.eo)
 .debug_aranges
                0x00002fe0       0x20 c:/program files (x86)/microchip/xc32/v1.42/bin/bin/../../lib/gcc/pic32mx/4.8.3/../../../../pic32mx/lib\libc.a(strchr.o)
 .debug_aranges
                0x00003000       0x20 c:/program files (x86)/microchip/xc32/v1.42/bin/bin/../../lib/gcc/pic32mx/4.8.3/../../../../pic32mx/lib\libc.a(strncmp.o)
 .debug_aranges
                0x00003020       0x20 c:/program files (x86)/microchip/xc32/v1.42/bin/bin/../../lib/gcc/pic32mx/4.8.3/../../../../pic32mx/lib\libc.a(doprnt_cdnopuxX.eo)
 .debug_aranges
                0x00003040       0x20 c:/program files (x86)/microchip/xc32/v1.42/bin/bin/../../lib/gcc/pic32mx/4.8.3/../../../../pic32mx/lib\libc.a(_fputc_simple.o)
 .debug_aranges
                0x00003060       0x20 c:/program files (x86)/microchip/xc32/v1.42/bin/bin/../../lib/gcc/pic32mx/4.8.3/../../../../pic32mx/lib\libc.a(_flsbuf_simple.o)
 .debug_aranges
                0x00003080       0x40 c:/program files (x86)/microchip/xc32/v1.42/bin/bin/../../lib/gcc/pic32mx/4.8.3/../../../../pic32mx/lib\libpic32.a(sbrk.o)
 .debug_aranges
                0x000030c0       0x20 c:/program files (x86)/microchip/xc32/v1.42/bin/bin/../../lib/gcc/pic32mx/4.8.3/../../../../pic32mx/lib\libpic32.a(write.o)
 .debug_aranges
                0x000030e0       0x20 c:/program files (x86)/microchip/xc32/v1.42/bin/bin/../../lib/gcc/pic32mx/4.8.3/../../../../pic32mx/lib\libpic32.a(_mon_putc.o)
 .debug_aranges
                0x00003100       0x20 c:/program files (x86)/microchip/xc32/v1.42/bin/bin/../../lib/gcc/pic32mx/4.8.3\libgcc.a(_umoddi3.o)

.debug_pubnames
 *(.debug_pubnames)

.debug_info     0x00000000    0xd0a9e
 *(.debug_info .gnu.linkonce.wi.*)
 .debug_info    0x00000000     0x526c build/Diplomamunka/production/_ext/1774832663/drv_i2c_static_buffer_model.o
 .debug_info    0x0000526c     0x10e8 build/Diplomamunka/production/_ext/1774832663/drv_i2c_mapping.o
 .debug_info    0x00006354     0x2837 build/Diplomamunka/production/_ext/793758023/drv_ic_static.o
 .debug_info    0x00008b8b     0x19b8 build/Diplomamunka/production/_ext/965532929/drv_oc_static.o
 .debug_info    0x0000a543     0x1b7a build/Diplomamunka/production/_ext/1892475994/sys_clk_static.o
 .debug_info    0x0000c0bd     0x1199 build/Diplomamunka/production/_ext/904121046/sys_ports_static.o
 .debug_info    0x0000d256     0x66b2 build/Diplomamunka/production/_ext/1720293489/system_init.o
 .debug_info    0x00013908     0x1d9d build/Diplomamunka/production/_ext/1720293489/system_interrupt.o
 .debug_info    0x000156a5      0xef3 build/Diplomamunka/production/_ext/1720293489/system_exceptions.o
 .debug_info    0x00016598      0xfc4 build/Diplomamunka/production/_ext/1720293489/system_tasks.o
 .debug_info    0x0001755c     0x1fff build/Diplomamunka/production/_ext/1360937237/app.o
 .debug_info    0x0001955b      0x1ad build/Diplomamunka/production/_ext/1360937237/main.o
 .debug_info    0x00019708     0x184e build/Diplomamunka/production/_ext/1360937237/TCPServer.o
 .debug_info    0x0001af56     0x27ef build/Diplomamunka/production/_ext/1360937237/fan.o
 .debug_info    0x0001d745     0x134e build/Diplomamunka/production/_ext/1360937237/led.o
 .debug_info    0x0001ea93      0xfec build/Diplomamunka/production/_ext/1837361561/bsp_sys_init.o
 .debug_info    0x0001fa7f      0x39a build/Diplomamunka/production/_ext/1606841020/adler32.o
 .debug_info    0x0001fe19      0x5f1 build/Diplomamunka/production/_ext/1606841020/compress.o
 .debug_info    0x0002040a      0x624 build/Diplomamunka/production/_ext/1606841020/crc32.o
 .debug_info    0x00020a2e     0x243e build/Diplomamunka/production/_ext/1606841020/deflate.o
 .debug_info    0x00022e6c     0x17b8 build/Diplomamunka/production/_ext/1606841020/infback.o
 .debug_info    0x00024624      0xa0f build/Diplomamunka/production/_ext/1606841020/inffast.o
 .debug_info    0x00025033     0x1f00 build/Diplomamunka/production/_ext/1606841020/inflate.o
 .debug_info    0x00026f33      0x4a3 build/Diplomamunka/production/_ext/1606841020/inftrees.o
 .debug_info    0x000273d6     0x1f29 build/Diplomamunka/production/_ext/1606841020/trees.o
 .debug_info    0x000292ff      0x511 build/Diplomamunka/production/_ext/1606841020/uncompr.o
 .debug_info    0x00029810      0x34f build/Diplomamunka/production/_ext/1606841020/zutil.o
 .debug_info    0x00029b5f      0x359 build/Diplomamunka/production/_ext/1886890887/ecc.o
 .debug_info    0x00029eb8     0x2896 build/Diplomamunka/production/_ext/1886890887/ssl-dummy.o
 .debug_info    0x0002c74e      0x5c1 build/Diplomamunka/production/_ext/1886890887/arc4.o
 .debug_info    0x0002cd0f     0x2674 build/Diplomamunka/production/_ext/1886890887/pwdbased.o
 .debug_info    0x0002f383     0x35c4 build/Diplomamunka/production/_ext/1886890887/tfm.o
 .debug_info    0x00032947     0x8a55 build/Diplomamunka/production/_ext/1886890887/asn.o
 .debug_info    0x0003b39c     0x187e build/Diplomamunka/production/_ext/1886890887/des3.o
 .debug_info    0x0003cc1a     0x23ac build/Diplomamunka/production/_ext/1886890887/rsa.o
 .debug_info    0x0003efc6     0x19a8 build/Diplomamunka/production/_ext/1886890887/aes.o
 .debug_info    0x0004096e     0x10dd build/Diplomamunka/production/_ext/1886890887/md5.o
 .debug_info    0x00041a4b     0x28b8 build/Diplomamunka/production/_ext/1886890887/sha.o
 .debug_info    0x00044303     0x12e1 build/Diplomamunka/production/_ext/1886890887/sha256.o
 .debug_info    0x000455e4      0x35c build/Diplomamunka/production/_ext/1886890887/sha512.o
 .debug_info    0x00045940     0x15af build/Diplomamunka/production/_ext/1886890887/hmac.o
 .debug_info    0x00046eef     0x1398 build/Diplomamunka/production/_ext/1886890887/hash.o
 .debug_info    0x00048287      0x35e build/Diplomamunka/production/_ext/1886890887/compress.o
 .debug_info    0x000485e5     0x26ff build/Diplomamunka/production/_ext/1886890887/random.o
 .debug_info    0x0004ace4     0x2ba3 build/Diplomamunka/production/_ext/1886890887/crypto.o
 .debug_info    0x0004d887     0x1493 build/Diplomamunka/production/_ext/1886890887/coding.o
 .debug_info    0x0004ed1a      0xb93 build/Diplomamunka/production/_ext/1886890887/error.o
 .debug_info    0x0004f8ad      0x35d build/Diplomamunka/production/_ext/1886890887/integer.o
 .debug_info    0x0004fc0a      0xb4f build/Diplomamunka/production/_ext/1886890887/logging.o
 .debug_info    0x00050759      0xe75 build/Diplomamunka/production/_ext/1886890887/memory.o
 .debug_info    0x000515ce      0x35a build/Diplomamunka/production/_ext/1886890887/misc.o
 .debug_info    0x00051928      0x46e build/Diplomamunka/production/_ext/1886890887/port.o
 .debug_info    0x00051d96     0x995f build/Diplomamunka/production/_ext/1908841681/drv_ethmac.o
 .debug_info    0x0005b6f5     0x8ead build/Diplomamunka/production/_ext/1908841681/drv_ethmac_lib.o
 .debug_info    0x000645a2     0x77cc build/Diplomamunka/production/_ext/732687875/drv_ethphy.o
 .debug_info    0x0006bd6e     0x1cc3 build/Diplomamunka/production/_ext/732687875/drv_extphy_dp83848.o
 .debug_info    0x0006da31     0x697a build/Diplomamunka/production/_ext/185269848/drv_tmr.o
 .debug_info    0x000743ab     0x1487 build/Diplomamunka/production/_ext/1271179505/sys_devcon.o
 .debug_info    0x00075832      0xf49 build/Diplomamunka/production/_ext/1271179505/sys_devcon_pic32mx.o
 .debug_info    0x0007677b     0x17b0 build/Diplomamunka/production/_ext/122796885/sys_int_pic32.o
 .debug_info    0x00077f2b     0x33e1 build/Diplomamunka/production/_ext/77319752/sys_ports.o
 .debug_info    0x0007b30c      0xb55 build/Diplomamunka/production/_ext/1283840359/sys_random.o
 .debug_info    0x0007be61     0x260d build/Diplomamunka/production/_ext/1264926591/sys_tmr.o
 .debug_info    0x0007e46e      0x5a5 build/Diplomamunka/production/_ext/1136935090/helpers.o
 .debug_info    0x0007ea13      0x222 build/Diplomamunka/production/_ext/1136935090/lfsr.o
 .debug_info    0x0007ec35     0xa064 build/Diplomamunka/production/_ext/1408260596/tcp.o
 .debug_info    0x00088c99     0x8305 build/Diplomamunka/production/_ext/1408260596/udp.o
 .debug_info    0x00090f9e     0x17b8 build/Diplomamunka/production/_ext/1408260596/tcpip_heap_alloc.o
 .debug_info    0x00092756     0x24d7 build/Diplomamunka/production/_ext/1408260596/tcpip_heap_internal.o
 .debug_info    0x00094c2d     0x6baf build/Diplomamunka/production/_ext/1408260596/arp.o
 .debug_info    0x0009b7dc     0x9199 build/Diplomamunka/production/_ext/1408260596/dhcp.o
 .debug_info    0x000a4975     0x7674 build/Diplomamunka/production/_ext/1408260596/dns.o
 .debug_info    0x000abfe9     0x499e build/Diplomamunka/production/_ext/1408260596/icmp.o
 .debug_info    0x000b0987     0x459c build/Diplomamunka/production/_ext/1408260596/tcpip_announce.o
 .debug_info    0x000b4f23      0x275 build/Diplomamunka/production/_ext/1408260596/hash_fnv.o
 .debug_info    0x000b5198      0x88f build/Diplomamunka/production/_ext/1408260596/oahash.o
 .debug_info    0x000b5a27     0x543d build/Diplomamunka/production/_ext/1408260596/tcpip_helpers.o
 .debug_info    0x000bae64       0xa4 build/Diplomamunka/production/_ext/1408260596/tcpip_helper_c32.o
 .debug_info    0x000baf08     0xaaed build/Diplomamunka/production/_ext/1408260596/tcpip_manager.o
 .debug_info    0x000c59f5     0x1705 build/Diplomamunka/production/_ext/1408260596/tcpip_notify.o
 .debug_info    0x000c70fa     0x215b build/Diplomamunka/production/_ext/1408260596/tcpip_packet.o
 .debug_info    0x000c9255     0x521a build/Diplomamunka/production/_ext/1408260596/ipv4.o
 .debug_info    0x000ce46f      0x773 c:/program files (x86)/microchip/xc32/v1.42/bin/bin/../../lib/gcc/pic32mx/4.8.3\libgcc.a(_udivdi3.o)
 .debug_info    0x000cebe2      0x131 c:/program files (x86)/microchip/xc32/v1.42/bin/bin/../../lib/gcc/pic32mx/4.8.3\libgcc.a(floatunsisf.o)
 .debug_info    0x000ced13       0xf5 c:/program files (x86)/microchip/xc32/v1.42/bin/bin/../../lib/gcc/pic32mx/4.8.3/../../../../pic32mx/lib\libpic32.a(default-bootstrap-exception-handler.o)
 .debug_info    0x000cee08       0xcf c:/program files (x86)/microchip/xc32/v1.42/bin/bin/../../lib/gcc/pic32mx/4.8.3/../../../../pic32mx/lib\libpic32.a(default-on-reset.o)
 .debug_info    0x000ceed7       0xd7 c:/program files (x86)/microchip/xc32/v1.42/bin/bin/../../lib/gcc/pic32mx/4.8.3/../../../../pic32mx/lib\libpic32.a(default-on-bootstrap.o)
 .debug_info    0x000cefae       0xe9 c:/program files (x86)/microchip/xc32/v1.42/bin/bin/../../lib/gcc/pic32mx/4.8.3/../../../../pic32mx/lib\libpic32.a(defaultinterrupt.o)
 .debug_info    0x000cf097       0xc8 c:/program files (x86)/microchip/xc32/v1.42/bin/bin/../../lib/gcc/pic32mx/4.8.3/../../../../pic32mx/lib\libc.a(calloc.o)
 .debug_info    0x000cf15f      0x136 c:/program files (x86)/microchip/xc32/v1.42/bin/bin/../../lib/gcc/pic32mx/4.8.3/../../../../pic32mx/lib\libc.a(ctime.o)
 .debug_info    0x000cf295      0x23c c:/program files (x86)/microchip/xc32/v1.42/bin/bin/../../lib/gcc/pic32mx/4.8.3/../../../../pic32mx/lib\libc.a(ctypef.o)
 .debug_info    0x000cf4d1       0xf9 c:/program files (x86)/microchip/xc32/v1.42/bin/bin/../../lib/gcc/pic32mx/4.8.3/../../../../pic32mx/lib\libc.a(malloc.o)
 .debug_info    0x000cf5ca       0xca c:/program files (x86)/microchip/xc32/v1.42/bin/bin/../../lib/gcc/pic32mx/4.8.3/../../../../pic32mx/lib\libc.a(memmove.o)
 .debug_info    0x000cf694       0xdf c:/program files (x86)/microchip/xc32/v1.42/bin/bin/../../lib/gcc/pic32mx/4.8.3/../../../../pic32mx/lib\libc.a(rand.o)
 .debug_info    0x000cf773       0xc8 c:/program files (x86)/microchip/xc32/v1.42/bin/bin/../../lib/gcc/pic32mx/4.8.3/../../../../pic32mx/lib\libc.a(strcat.o)
 .debug_info    0x000cf83b       0xca c:/program files (x86)/microchip/xc32/v1.42/bin/bin/../../lib/gcc/pic32mx/4.8.3/../../../../pic32mx/lib\libc.a(strncpy.o)
 .debug_info    0x000cf905       0xc8 c:/program files (x86)/microchip/xc32/v1.42/bin/bin/../../lib/gcc/pic32mx/4.8.3/../../../../pic32mx/lib\libc.a(strstr.o)
 .debug_info    0x000cf9cd       0xdf c:/program files (x86)/microchip/xc32/v1.42/bin/bin/../../lib/gcc/pic32mx/4.8.3/../../../../pic32mx/lib\libc.a(strtol.o)
 .debug_info    0x000cfaac       0xc4 c:/program files (x86)/microchip/xc32/v1.42/bin/bin/../../lib/gcc/pic32mx/4.8.3/../../../../pic32mx/lib\libc.a(time.o)
 .debug_info    0x000cfb70       0xd4 c:/program files (x86)/microchip/xc32/v1.42/bin/bin/../../lib/gcc/pic32mx/4.8.3/../../../../pic32mx/lib\libc.a(sprintf_cdnopuxX.eo)
 .debug_info    0x000cfc44       0xc8 c:/program files (x86)/microchip/xc32/v1.42/bin/bin/../../lib/gcc/pic32mx/4.8.3/../../../../pic32mx/lib\libc.a(strchr.o)
 .debug_info    0x000cfd0c       0xca c:/program files (x86)/microchip/xc32/v1.42/bin/bin/../../lib/gcc/pic32mx/4.8.3/../../../../pic32mx/lib\libc.a(strncmp.o)
 .debug_info    0x000cfdd6       0xd5 c:/program files (x86)/microchip/xc32/v1.42/bin/bin/../../lib/gcc/pic32mx/4.8.3/../../../../pic32mx/lib\libc.a(doprnt_cdnopuxX.eo)
 .debug_info    0x000cfeab       0xc6 c:/program files (x86)/microchip/xc32/v1.42/bin/bin/../../lib/gcc/pic32mx/4.8.3/../../../../pic32mx/lib\libc.a(_fputc_simple.o)
 .debug_info    0x000cff71       0xc9 c:/program files (x86)/microchip/xc32/v1.42/bin/bin/../../lib/gcc/pic32mx/4.8.3/../../../../pic32mx/lib\libc.a(_flsbuf_simple.o)
 .debug_info    0x000d003a      0x12c c:/program files (x86)/microchip/xc32/v1.42/bin/bin/../../lib/gcc/pic32mx/4.8.3/../../../../pic32mx/lib\libpic32.a(sbrk.o)
 .debug_info    0x000d0166       0xc0 c:/program files (x86)/microchip/xc32/v1.42/bin/bin/../../lib/gcc/pic32mx/4.8.3/../../../../pic32mx/lib\libpic32.a(write.o)
 .debug_info    0x000d0226       0xc8 c:/program files (x86)/microchip/xc32/v1.42/bin/bin/../../lib/gcc/pic32mx/4.8.3/../../../../pic32mx/lib\libpic32.a(_mon_putc.o)
 .debug_info    0x000d02ee      0x7b0 c:/program files (x86)/microchip/xc32/v1.42/bin/bin/../../lib/gcc/pic32mx/4.8.3\libgcc.a(_umoddi3.o)

.debug_abbrev   0x00000000     0xd4b4
 *(.debug_abbrev)
 .debug_abbrev  0x00000000      0x351 build/Diplomamunka/production/_ext/1774832663/drv_i2c_static_buffer_model.o
 .debug_abbrev  0x00000351      0x159 build/Diplomamunka/production/_ext/1774832663/drv_i2c_mapping.o
 .debug_abbrev  0x000004aa      0x193 build/Diplomamunka/production/_ext/793758023/drv_ic_static.o
 .debug_abbrev  0x0000063d      0x157 build/Diplomamunka/production/_ext/965532929/drv_oc_static.o
 .debug_abbrev  0x00000794      0x2ba build/Diplomamunka/production/_ext/1892475994/sys_clk_static.o
 .debug_abbrev  0x00000a4e      0x138 build/Diplomamunka/production/_ext/904121046/sys_ports_static.o
 .debug_abbrev  0x00000b86      0x38c build/Diplomamunka/production/_ext/1720293489/system_init.o
 .debug_abbrev  0x00000f12      0x20a build/Diplomamunka/production/_ext/1720293489/system_interrupt.o
 .debug_abbrev  0x0000111c       0xe3 build/Diplomamunka/production/_ext/1720293489/system_exceptions.o
 .debug_abbrev  0x000011ff       0xfc build/Diplomamunka/production/_ext/1720293489/system_tasks.o
 .debug_abbrev  0x000012fb      0x2c9 build/Diplomamunka/production/_ext/1360937237/app.o
 .debug_abbrev  0x000015c4       0x93 build/Diplomamunka/production/_ext/1360937237/main.o
 .debug_abbrev  0x00001657      0x1a5 build/Diplomamunka/production/_ext/1360937237/TCPServer.o
 .debug_abbrev  0x000017fc      0x2cb build/Diplomamunka/production/_ext/1360937237/fan.o
 .debug_abbrev  0x00001ac7      0x1f8 build/Diplomamunka/production/_ext/1360937237/led.o
 .debug_abbrev  0x00001cbf      0x187 build/Diplomamunka/production/_ext/1837361561/bsp_sys_init.o
 .debug_abbrev  0x00001e46       0xd2 build/Diplomamunka/production/_ext/1606841020/adler32.o
 .debug_abbrev  0x00001f18      0x162 build/Diplomamunka/production/_ext/1606841020/compress.o
 .debug_abbrev  0x0000207a      0x1b6 build/Diplomamunka/production/_ext/1606841020/crc32.o
 .debug_abbrev  0x00002230      0x3b8 build/Diplomamunka/production/_ext/1606841020/deflate.o
 .debug_abbrev  0x000025e8      0x289 build/Diplomamunka/production/_ext/1606841020/infback.o
 .debug_abbrev  0x00002871      0x13b build/Diplomamunka/production/_ext/1606841020/inffast.o
 .debug_abbrev  0x000029ac      0x346 build/Diplomamunka/production/_ext/1606841020/inflate.o
 .debug_abbrev  0x00002cf2       0xeb build/Diplomamunka/production/_ext/1606841020/inftrees.o
 .debug_abbrev  0x00002ddd      0x2e6 build/Diplomamunka/production/_ext/1606841020/trees.o
 .debug_abbrev  0x000030c3      0x13e build/Diplomamunka/production/_ext/1606841020/uncompr.o
 .debug_abbrev  0x00003201      0x152 build/Diplomamunka/production/_ext/1606841020/zutil.o
 .debug_abbrev  0x00003353       0x33 build/Diplomamunka/production/_ext/1886890887/ecc.o
 .debug_abbrev  0x00003386      0x1d2 build/Diplomamunka/production/_ext/1886890887/ssl-dummy.o
 .debug_abbrev  0x00003558      0x149 build/Diplomamunka/production/_ext/1886890887/arc4.o
 .debug_abbrev  0x000036a1      0x350 build/Diplomamunka/production/_ext/1886890887/pwdbased.o
 .debug_abbrev  0x000039f1      0x2c0 build/Diplomamunka/production/_ext/1886890887/tfm.o
 .debug_abbrev  0x00003cb1      0x421 build/Diplomamunka/production/_ext/1886890887/asn.o
 .debug_abbrev  0x000040d2      0x2a9 build/Diplomamunka/production/_ext/1886890887/des3.o
 .debug_abbrev  0x0000437b      0x334 build/Diplomamunka/production/_ext/1886890887/rsa.o
 .debug_abbrev  0x000046af      0x297 build/Diplomamunka/production/_ext/1886890887/aes.o
 .debug_abbrev  0x00004946      0x212 build/Diplomamunka/production/_ext/1886890887/md5.o
 .debug_abbrev  0x00004b58      0x238 build/Diplomamunka/production/_ext/1886890887/sha.o
 .debug_abbrev  0x00004d90      0x26e build/Diplomamunka/production/_ext/1886890887/sha256.o
 .debug_abbrev  0x00004ffe       0x33 build/Diplomamunka/production/_ext/1886890887/sha512.o
 .debug_abbrev  0x00005031      0x261 build/Diplomamunka/production/_ext/1886890887/hmac.o
 .debug_abbrev  0x00005292      0x1a1 build/Diplomamunka/production/_ext/1886890887/hash.o
 .debug_abbrev  0x00005433       0x33 build/Diplomamunka/production/_ext/1886890887/compress.o
 .debug_abbrev  0x00005466      0x3e7 build/Diplomamunka/production/_ext/1886890887/random.o
 .debug_abbrev  0x0000584d      0x2a7 build/Diplomamunka/production/_ext/1886890887/crypto.o
 .debug_abbrev  0x00005af4      0x1e3 build/Diplomamunka/production/_ext/1886890887/coding.o
 .debug_abbrev  0x00005cd7      0x10b build/Diplomamunka/production/_ext/1886890887/error.o
 .debug_abbrev  0x00005de2       0x33 build/Diplomamunka/production/_ext/1886890887/integer.o
 .debug_abbrev  0x00005e15       0xd9 build/Diplomamunka/production/_ext/1886890887/logging.o
 .debug_abbrev  0x00005eee      0x156 build/Diplomamunka/production/_ext/1886890887/memory.o
 .debug_abbrev  0x00006044       0x33 build/Diplomamunka/production/_ext/1886890887/misc.o
 .debug_abbrev  0x00006077       0xa3 build/Diplomamunka/production/_ext/1886890887/port.o
 .debug_abbrev  0x0000611a      0x594 build/Diplomamunka/production/_ext/1908841681/drv_ethmac.o
 .debug_abbrev  0x000066ae      0x572 build/Diplomamunka/production/_ext/1908841681/drv_ethmac_lib.o
 .debug_abbrev  0x00006c20      0x54d build/Diplomamunka/production/_ext/732687875/drv_ethphy.o
 .debug_abbrev  0x0000716d      0x215 build/Diplomamunka/production/_ext/732687875/drv_extphy_dp83848.o
 .debug_abbrev  0x00007382      0x4ff build/Diplomamunka/production/_ext/185269848/drv_tmr.o
 .debug_abbrev  0x00007881      0x26d build/Diplomamunka/production/_ext/1271179505/sys_devcon.o
 .debug_abbrev  0x00007aee      0x16d build/Diplomamunka/production/_ext/1271179505/sys_devcon_pic32mx.o
 .debug_abbrev  0x00007c5b      0x1d0 build/Diplomamunka/production/_ext/122796885/sys_int_pic32.o
 .debug_abbrev  0x00007e2b      0x210 build/Diplomamunka/production/_ext/77319752/sys_ports.o
 .debug_abbrev  0x0000803b      0x252 build/Diplomamunka/production/_ext/1283840359/sys_random.o
 .debug_abbrev  0x0000828d      0x4ea build/Diplomamunka/production/_ext/1264926591/sys_tmr.o
 .debug_abbrev  0x00008777      0x177 build/Diplomamunka/production/_ext/1136935090/helpers.o
 .debug_abbrev  0x000088ee       0x82 build/Diplomamunka/production/_ext/1136935090/lfsr.o
 .debug_abbrev  0x00008970      0x62c build/Diplomamunka/production/_ext/1408260596/tcp.o
 .debug_abbrev  0x00008f9c      0x662 build/Diplomamunka/production/_ext/1408260596/udp.o
 .debug_abbrev  0x000095fe      0x1a6 build/Diplomamunka/production/_ext/1408260596/tcpip_heap_alloc.o
 .debug_abbrev  0x000097a4      0x372 build/Diplomamunka/production/_ext/1408260596/tcpip_heap_internal.o
 .debug_abbrev  0x00009b16      0x551 build/Diplomamunka/production/_ext/1408260596/arp.o
 .debug_abbrev  0x0000a067      0x59b build/Diplomamunka/production/_ext/1408260596/dhcp.o
 .debug_abbrev  0x0000a602      0x5e7 build/Diplomamunka/production/_ext/1408260596/dns.o
 .debug_abbrev  0x0000abe9      0x4c4 build/Diplomamunka/production/_ext/1408260596/icmp.o
 .debug_abbrev  0x0000b0ad      0x3f8 build/Diplomamunka/production/_ext/1408260596/tcpip_announce.o
 .debug_abbrev  0x0000b4a5       0xb5 build/Diplomamunka/production/_ext/1408260596/hash_fnv.o
 .debug_abbrev  0x0000b55a      0x277 build/Diplomamunka/production/_ext/1408260596/oahash.o
 .debug_abbrev  0x0000b7d1      0x497 build/Diplomamunka/production/_ext/1408260596/tcpip_helpers.o
 .debug_abbrev  0x0000bc68       0x14 build/Diplomamunka/production/_ext/1408260596/tcpip_helper_c32.o
 .debug_abbrev  0x0000bc7c      0x671 build/Diplomamunka/production/_ext/1408260596/tcpip_manager.o
 .debug_abbrev  0x0000c2ed      0x233 build/Diplomamunka/production/_ext/1408260596/tcpip_notify.o
 .debug_abbrev  0x0000c520      0x32e build/Diplomamunka/production/_ext/1408260596/tcpip_packet.o
 .debug_abbrev  0x0000c84e      0x509 build/Diplomamunka/production/_ext/1408260596/ipv4.o
 .debug_abbrev  0x0000cd57      0x138 c:/program files (x86)/microchip/xc32/v1.42/bin/bin/../../lib/gcc/pic32mx/4.8.3\libgcc.a(_udivdi3.o)
 .debug_abbrev  0x0000ce8f       0x62 c:/program files (x86)/microchip/xc32/v1.42/bin/bin/../../lib/gcc/pic32mx/4.8.3\libgcc.a(floatunsisf.o)
 .debug_abbrev  0x0000cef1       0x28 c:/program files (x86)/microchip/xc32/v1.42/bin/bin/../../lib/gcc/pic32mx/4.8.3/../../../../pic32mx/lib\libpic32.a(default-bootstrap-exception-handler.o)
 .debug_abbrev  0x0000cf19       0x28 c:/program files (x86)/microchip/xc32/v1.42/bin/bin/../../lib/gcc/pic32mx/4.8.3/../../../../pic32mx/lib\libpic32.a(default-on-reset.o)
 .debug_abbrev  0x0000cf41       0x28 c:/program files (x86)/microchip/xc32/v1.42/bin/bin/../../lib/gcc/pic32mx/4.8.3/../../../../pic32mx/lib\libpic32.a(default-on-bootstrap.o)
 .debug_abbrev  0x0000cf69       0x28 c:/program files (x86)/microchip/xc32/v1.42/bin/bin/../../lib/gcc/pic32mx/4.8.3/../../../../pic32mx/lib\libpic32.a(defaultinterrupt.o)
 .debug_abbrev  0x0000cf91       0x28 c:/program files (x86)/microchip/xc32/v1.42/bin/bin/../../lib/gcc/pic32mx/4.8.3/../../../../pic32mx/lib\libc.a(calloc.o)
 .debug_abbrev  0x0000cfb9       0x7a c:/program files (x86)/microchip/xc32/v1.42/bin/bin/../../lib/gcc/pic32mx/4.8.3/../../../../pic32mx/lib\libc.a(ctime.o)
 .debug_abbrev  0x0000d033       0x28 c:/program files (x86)/microchip/xc32/v1.42/bin/bin/../../lib/gcc/pic32mx/4.8.3/../../../../pic32mx/lib\libc.a(ctypef.o)
 .debug_abbrev  0x0000d05b       0x47 c:/program files (x86)/microchip/xc32/v1.42/bin/bin/../../lib/gcc/pic32mx/4.8.3/../../../../pic32mx/lib\libc.a(malloc.o)
 .debug_abbrev  0x0000d0a2       0x28 c:/program files (x86)/microchip/xc32/v1.42/bin/bin/../../lib/gcc/pic32mx/4.8.3/../../../../pic32mx/lib\libc.a(memmove.o)
 .debug_abbrev  0x0000d0ca       0x47 c:/program files (x86)/microchip/xc32/v1.42/bin/bin/../../lib/gcc/pic32mx/4.8.3/../../../../pic32mx/lib\libc.a(rand.o)
 .debug_abbrev  0x0000d111       0x28 c:/program files (x86)/microchip/xc32/v1.42/bin/bin/../../lib/gcc/pic32mx/4.8.3/../../../../pic32mx/lib\libc.a(strcat.o)
 .debug_abbrev  0x0000d139       0x28 c:/program files (x86)/microchip/xc32/v1.42/bin/bin/../../lib/gcc/pic32mx/4.8.3/../../../../pic32mx/lib\libc.a(strncpy.o)
 .debug_abbrev  0x0000d161       0x28 c:/program files (x86)/microchip/xc32/v1.42/bin/bin/../../lib/gcc/pic32mx/4.8.3/../../../../pic32mx/lib\libc.a(strstr.o)
 .debug_abbrev  0x0000d189       0x28 c:/program files (x86)/microchip/xc32/v1.42/bin/bin/../../lib/gcc/pic32mx/4.8.3/../../../../pic32mx/lib\libc.a(strtol.o)
 .debug_abbrev  0x0000d1b1       0x28 c:/program files (x86)/microchip/xc32/v1.42/bin/bin/../../lib/gcc/pic32mx/4.8.3/../../../../pic32mx/lib\libc.a(time.o)
 .debug_abbrev  0x0000d1d9       0x28 c:/program files (x86)/microchip/xc32/v1.42/bin/bin/../../lib/gcc/pic32mx/4.8.3/../../../../pic32mx/lib\libc.a(sprintf_cdnopuxX.eo)
 .debug_abbrev  0x0000d201       0x28 c:/program files (x86)/microchip/xc32/v1.42/bin/bin/../../lib/gcc/pic32mx/4.8.3/../../../../pic32mx/lib\libc.a(strchr.o)
 .debug_abbrev  0x0000d229       0x28 c:/program files (x86)/microchip/xc32/v1.42/bin/bin/../../lib/gcc/pic32mx/4.8.3/../../../../pic32mx/lib\libc.a(strncmp.o)
 .debug_abbrev  0x0000d251       0x28 c:/program files (x86)/microchip/xc32/v1.42/bin/bin/../../lib/gcc/pic32mx/4.8.3/../../../../pic32mx/lib\libc.a(doprnt_cdnopuxX.eo)
 .debug_abbrev  0x0000d279       0x28 c:/program files (x86)/microchip/xc32/v1.42/bin/bin/../../lib/gcc/pic32mx/4.8.3/../../../../pic32mx/lib\libc.a(_fputc_simple.o)
 .debug_abbrev  0x0000d2a1       0x28 c:/program files (x86)/microchip/xc32/v1.42/bin/bin/../../lib/gcc/pic32mx/4.8.3/../../../../pic32mx/lib\libc.a(_flsbuf_simple.o)
 .debug_abbrev  0x0000d2c9       0x54 c:/program files (x86)/microchip/xc32/v1.42/bin/bin/../../lib/gcc/pic32mx/4.8.3/../../../../pic32mx/lib\libpic32.a(sbrk.o)
 .debug_abbrev  0x0000d31d       0x28 c:/program files (x86)/microchip/xc32/v1.42/bin/bin/../../lib/gcc/pic32mx/4.8.3/../../../../pic32mx/lib\libpic32.a(write.o)
 .debug_abbrev  0x0000d345       0x28 c:/program files (x86)/microchip/xc32/v1.42/bin/bin/../../lib/gcc/pic32mx/4.8.3/../../../../pic32mx/lib\libpic32.a(_mon_putc.o)
 .debug_abbrev  0x0000d36d      0x147 c:/program files (x86)/microchip/xc32/v1.42/bin/bin/../../lib/gcc/pic32mx/4.8.3\libgcc.a(_umoddi3.o)

.debug_line     0x00000000    0x1b9ba
 *(.debug_line)
 .debug_line    0x00000000      0xd6e build/Diplomamunka/production/_ext/1774832663/drv_i2c_static_buffer_model.o
 .debug_line    0x00000d6e      0x3a6 build/Diplomamunka/production/_ext/1774832663/drv_i2c_mapping.o
 .debug_line    0x00001114      0x53f build/Diplomamunka/production/_ext/793758023/drv_ic_static.o
 .debug_line    0x00001653      0x5e8 build/Diplomamunka/production/_ext/965532929/drv_oc_static.o
 .debug_line    0x00001c3b      0x509 build/Diplomamunka/production/_ext/1892475994/sys_clk_static.o
 .debug_line    0x00002144      0x3a8 build/Diplomamunka/production/_ext/904121046/sys_ports_static.o
 .debug_line    0x000024ec      0x9ca build/Diplomamunka/production/_ext/1720293489/system_init.o
 .debug_line    0x00002eb6      0x583 build/Diplomamunka/production/_ext/1720293489/system_interrupt.o
 .debug_line    0x00003439      0x22a build/Diplomamunka/production/_ext/1720293489/system_exceptions.o
 .debug_line    0x00003663      0x34c build/Diplomamunka/production/_ext/1720293489/system_tasks.o
 .debug_line    0x000039af      0x390 build/Diplomamunka/production/_ext/1360937237/app.o
 .debug_line    0x00003d3f       0xbc build/Diplomamunka/production/_ext/1360937237/main.o
 .debug_line    0x00003dfb      0x2b5 build/Diplomamunka/production/_ext/1360937237/TCPServer.o
 .debug_line    0x000040b0      0x559 build/Diplomamunka/production/_ext/1360937237/fan.o
 .debug_line    0x00004609      0x453 build/Diplomamunka/production/_ext/1360937237/led.o
 .debug_line    0x00004a5c      0x326 build/Diplomamunka/production/_ext/1837361561/bsp_sys_init.o
 .debug_line    0x00004d82      0x11c build/Diplomamunka/production/_ext/1606841020/adler32.o
 .debug_line    0x00004e9e       0xc5 build/Diplomamunka/production/_ext/1606841020/compress.o
 .debug_line    0x00004f63      0x187 build/Diplomamunka/production/_ext/1606841020/crc32.o
 .debug_line    0x000050ea      0x661 build/Diplomamunka/production/_ext/1606841020/deflate.o
 .debug_line    0x0000574b      0x2ba build/Diplomamunka/production/_ext/1606841020/infback.o
 .debug_line    0x00005a05      0x180 build/Diplomamunka/production/_ext/1606841020/inffast.o
 .debug_line    0x00005b85      0x64f build/Diplomamunka/production/_ext/1606841020/inflate.o
 .debug_line    0x000061d4      0x138 build/Diplomamunka/production/_ext/1606841020/inftrees.o
 .debug_line    0x0000630c      0x3ab build/Diplomamunka/production/_ext/1606841020/trees.o
 .debug_line    0x000066b7       0xa3 build/Diplomamunka/production/_ext/1606841020/uncompr.o
 .debug_line    0x0000675a      0x11f build/Diplomamunka/production/_ext/1606841020/zutil.o
 .debug_line    0x00006879       0x71 build/Diplomamunka/production/_ext/1886890887/ecc.o
 .debug_line    0x000068ea      0x18f build/Diplomamunka/production/_ext/1886890887/ssl-dummy.o
 .debug_line    0x00006a79      0x106 build/Diplomamunka/production/_ext/1886890887/arc4.o
 .debug_line    0x00006b7f      0x328 build/Diplomamunka/production/_ext/1886890887/pwdbased.o
 .debug_line    0x00006ea7      0x99e build/Diplomamunka/production/_ext/1886890887/tfm.o
 .debug_line    0x00007845      0xf0d build/Diplomamunka/production/_ext/1886890887/asn.o
 .debug_line    0x00008752      0x4e6 build/Diplomamunka/production/_ext/1886890887/des3.o
 .debug_line    0x00008c38      0x315 build/Diplomamunka/production/_ext/1886890887/rsa.o
 .debug_line    0x00008f4d      0x4d7 build/Diplomamunka/production/_ext/1886890887/aes.o
 .debug_line    0x00009424      0x4a7 build/Diplomamunka/production/_ext/1886890887/md5.o
 .debug_line    0x000098cb      0xca5 build/Diplomamunka/production/_ext/1886890887/sha.o
 .debug_line    0x0000a570      0x415 build/Diplomamunka/production/_ext/1886890887/sha256.o
 .debug_line    0x0000a985       0x71 build/Diplomamunka/production/_ext/1886890887/sha512.o
 .debug_line    0x0000a9f6      0x1c7 build/Diplomamunka/production/_ext/1886890887/hmac.o
 .debug_line    0x0000abbd      0x1e0 build/Diplomamunka/production/_ext/1886890887/hash.o
 .debug_line    0x0000ad9d       0x71 build/Diplomamunka/production/_ext/1886890887/compress.o
 .debug_line    0x0000ae0e      0x44f build/Diplomamunka/production/_ext/1886890887/random.o
 .debug_line    0x0000b25d      0x4a5 build/Diplomamunka/production/_ext/1886890887/crypto.o
 .debug_line    0x0000b702      0x2a0 build/Diplomamunka/production/_ext/1886890887/coding.o
 .debug_line    0x0000b9a2      0x1b9 build/Diplomamunka/production/_ext/1886890887/error.o
 .debug_line    0x0000bb5b       0x71 build/Diplomamunka/production/_ext/1886890887/integer.o
 .debug_line    0x0000bbcc      0x103 build/Diplomamunka/production/_ext/1886890887/logging.o
 .debug_line    0x0000bccf      0x1ce build/Diplomamunka/production/_ext/1886890887/memory.o
 .debug_line    0x0000be9d       0x71 build/Diplomamunka/production/_ext/1886890887/misc.o
 .debug_line    0x0000bf0e      0x10f build/Diplomamunka/production/_ext/1886890887/port.o
 .debug_line    0x0000c01d      0xeac build/Diplomamunka/production/_ext/1908841681/drv_ethmac.o
 .debug_line    0x0000cec9      0xeea build/Diplomamunka/production/_ext/1908841681/drv_ethmac_lib.o
 .debug_line    0x0000ddb3     0x1187 build/Diplomamunka/production/_ext/732687875/drv_ethphy.o
 .debug_line    0x0000ef3a      0x2d4 build/Diplomamunka/production/_ext/732687875/drv_extphy_dp83848.o
 .debug_line    0x0000f20e     0x1145 build/Diplomamunka/production/_ext/185269848/drv_tmr.o
 .debug_line    0x00010353      0x643 build/Diplomamunka/production/_ext/1271179505/sys_devcon.o
 .debug_line    0x00010996      0x48f build/Diplomamunka/production/_ext/1271179505/sys_devcon_pic32mx.o
 .debug_line    0x00010e25      0x39e build/Diplomamunka/production/_ext/122796885/sys_int_pic32.o
 .debug_line    0x000111c3      0x719 build/Diplomamunka/production/_ext/77319752/sys_ports.o
 .debug_line    0x000118dc      0x35a build/Diplomamunka/production/_ext/1283840359/sys_random.o
 .debug_line    0x00011c36      0x68d build/Diplomamunka/production/_ext/1264926591/sys_tmr.o
 .debug_line    0x000122c3      0x200 build/Diplomamunka/production/_ext/1136935090/helpers.o
 .debug_line    0x000124c3       0xde build/Diplomamunka/production/_ext/1136935090/lfsr.o
 .debug_line    0x000125a1     0x131e build/Diplomamunka/production/_ext/1408260596/tcp.o
 .debug_line    0x000138bf      0xd4f build/Diplomamunka/production/_ext/1408260596/udp.o
 .debug_line    0x0001460e      0x2fc build/Diplomamunka/production/_ext/1408260596/tcpip_heap_alloc.o
 .debug_line    0x0001490a      0x514 build/Diplomamunka/production/_ext/1408260596/tcpip_heap_internal.o
 .debug_line    0x00014e1e      0x9b1 build/Diplomamunka/production/_ext/1408260596/arp.o
 .debug_line    0x000157cf      0xc54 build/Diplomamunka/production/_ext/1408260596/dhcp.o
 .debug_line    0x00016423      0xa60 build/Diplomamunka/production/_ext/1408260596/dns.o
 .debug_line    0x00016e83      0x524 build/Diplomamunka/production/_ext/1408260596/icmp.o
 .debug_line    0x000173a7      0x474 build/Diplomamunka/production/_ext/1408260596/tcpip_announce.o
 .debug_line    0x0001781b      0x134 build/Diplomamunka/production/_ext/1408260596/hash_fnv.o
 .debug_line    0x0001794f      0x1e3 build/Diplomamunka/production/_ext/1408260596/oahash.o
 .debug_line    0x00017b32      0xd4e build/Diplomamunka/production/_ext/1408260596/tcpip_helpers.o
 .debug_line    0x00018880       0xfa build/Diplomamunka/production/_ext/1408260596/tcpip_helper_c32.o
 .debug_line    0x0001897a     0x12e5 build/Diplomamunka/production/_ext/1408260596/tcpip_manager.o
 .debug_line    0x00019c5f      0x35e build/Diplomamunka/production/_ext/1408260596/tcpip_notify.o
 .debug_line    0x00019fbd      0x433 build/Diplomamunka/production/_ext/1408260596/tcpip_packet.o
 .debug_line    0x0001a3f0      0x659 build/Diplomamunka/production/_ext/1408260596/ipv4.o
 .debug_line    0x0001aa49       0xff c:/program files (x86)/microchip/xc32/v1.42/bin/bin/../../lib/gcc/pic32mx/4.8.3\libgcc.a(_udivdi3.o)
 .debug_line    0x0001ab48       0x9c c:/program files (x86)/microchip/xc32/v1.42/bin/bin/../../lib/gcc/pic32mx/4.8.3\libgcc.a(floatunsisf.o)
 .debug_line    0x0001abe4       0xa9 c:/program files (x86)/microchip/xc32/v1.42/bin/bin/../../lib/gcc/pic32mx/4.8.3/../../../../pic32mx/lib\libpic32.a(default-bootstrap-exception-handler.o)
 .debug_line    0x0001ac8d       0x96 c:/program files (x86)/microchip/xc32/v1.42/bin/bin/../../lib/gcc/pic32mx/4.8.3/../../../../pic32mx/lib\libpic32.a(default-on-reset.o)
 .debug_line    0x0001ad23       0x9a c:/program files (x86)/microchip/xc32/v1.42/bin/bin/../../lib/gcc/pic32mx/4.8.3/../../../../pic32mx/lib\libpic32.a(default-on-bootstrap.o)
 .debug_line    0x0001adbd       0xa8 c:/program files (x86)/microchip/xc32/v1.42/bin/bin/../../lib/gcc/pic32mx/4.8.3/../../../../pic32mx/lib\libpic32.a(defaultinterrupt.o)
 .debug_line    0x0001ae65       0x82 c:/program files (x86)/microchip/xc32/v1.42/bin/bin/../../lib/gcc/pic32mx/4.8.3/../../../../pic32mx/lib\libc.a(calloc.o)
 .debug_line    0x0001aee7       0x81 c:/program files (x86)/microchip/xc32/v1.42/bin/bin/../../lib/gcc/pic32mx/4.8.3/../../../../pic32mx/lib\libc.a(ctime.o)
 .debug_line    0x0001af68        0x0 c:/program files (x86)/microchip/xc32/v1.42/bin/bin/../../lib/gcc/pic32mx/4.8.3/../../../../pic32mx/lib\libc.a(ctype.o)
 .debug_line    0x0001af68       0x82 c:/program files (x86)/microchip/xc32/v1.42/bin/bin/../../lib/gcc/pic32mx/4.8.3/../../../../pic32mx/lib\libc.a(ctypef.o)
 .debug_line    0x0001afea       0x82 c:/program files (x86)/microchip/xc32/v1.42/bin/bin/../../lib/gcc/pic32mx/4.8.3/../../../../pic32mx/lib\libc.a(malloc.o)
 .debug_line    0x0001b06c       0x83 c:/program files (x86)/microchip/xc32/v1.42/bin/bin/../../lib/gcc/pic32mx/4.8.3/../../../../pic32mx/lib\libc.a(memmove.o)
 .debug_line    0x0001b0ef       0x80 c:/program files (x86)/microchip/xc32/v1.42/bin/bin/../../lib/gcc/pic32mx/4.8.3/../../../../pic32mx/lib\libc.a(rand.o)
 .debug_line    0x0001b16f       0x82 c:/program files (x86)/microchip/xc32/v1.42/bin/bin/../../lib/gcc/pic32mx/4.8.3/../../../../pic32mx/lib\libc.a(strcat.o)
 .debug_line    0x0001b1f1       0x83 c:/program files (x86)/microchip/xc32/v1.42/bin/bin/../../lib/gcc/pic32mx/4.8.3/../../../../pic32mx/lib\libc.a(strncpy.o)
 .debug_line    0x0001b274       0x82 c:/program files (x86)/microchip/xc32/v1.42/bin/bin/../../lib/gcc/pic32mx/4.8.3/../../../../pic32mx/lib\libc.a(strstr.o)
 .debug_line    0x0001b2f6       0x82 c:/program files (x86)/microchip/xc32/v1.42/bin/bin/../../lib/gcc/pic32mx/4.8.3/../../../../pic32mx/lib\libc.a(strtol.o)
 .debug_line    0x0001b378       0x80 c:/program files (x86)/microchip/xc32/v1.42/bin/bin/../../lib/gcc/pic32mx/4.8.3/../../../../pic32mx/lib\libc.a(time.o)
 .debug_line    0x0001b3f8       0x83 c:/program files (x86)/microchip/xc32/v1.42/bin/bin/../../lib/gcc/pic32mx/4.8.3/../../../../pic32mx/lib\libc.a(sprintf_cdnopuxX.eo)
 .debug_line    0x0001b47b        0x0 c:/program files (x86)/microchip/xc32/v1.42/bin/bin/../../lib/gcc/pic32mx/4.8.3/../../../../pic32mx/lib\libc.a(errno.o)
 .debug_line    0x0001b47b       0x82 c:/program files (x86)/microchip/xc32/v1.42/bin/bin/../../lib/gcc/pic32mx/4.8.3/../../../../pic32mx/lib\libc.a(strchr.o)
 .debug_line    0x0001b4fd       0x83 c:/program files (x86)/microchip/xc32/v1.42/bin/bin/../../lib/gcc/pic32mx/4.8.3/../../../../pic32mx/lib\libc.a(strncmp.o)
 .debug_line    0x0001b580       0x82 c:/program files (x86)/microchip/xc32/v1.42/bin/bin/../../lib/gcc/pic32mx/4.8.3/../../../../pic32mx/lib\libc.a(doprnt_cdnopuxX.eo)
 .debug_line    0x0001b602       0x81 c:/program files (x86)/microchip/xc32/v1.42/bin/bin/../../lib/gcc/pic32mx/4.8.3/../../../../pic32mx/lib\libc.a(_fputc_simple.o)
 .debug_line    0x0001b683        0x0 c:/program files (x86)/microchip/xc32/v1.42/bin/bin/../../lib/gcc/pic32mx/4.8.3/../../../../pic32mx/lib\libc.a(_iob.o)
 .debug_line    0x0001b683       0x82 c:/program files (x86)/microchip/xc32/v1.42/bin/bin/../../lib/gcc/pic32mx/4.8.3/../../../../pic32mx/lib\libc.a(_flsbuf_simple.o)
 .debug_line    0x0001b705       0x8a c:/program files (x86)/microchip/xc32/v1.42/bin/bin/../../lib/gcc/pic32mx/4.8.3/../../../../pic32mx/lib\libpic32.a(sbrk.o)
 .debug_line    0x0001b78f       0x8b c:/program files (x86)/microchip/xc32/v1.42/bin/bin/../../lib/gcc/pic32mx/4.8.3/../../../../pic32mx/lib\libpic32.a(write.o)
 .debug_line    0x0001b81a       0x8f c:/program files (x86)/microchip/xc32/v1.42/bin/bin/../../lib/gcc/pic32mx/4.8.3/../../../../pic32mx/lib\libpic32.a(_mon_putc.o)
 .debug_line    0x0001b8a9        0x0 c:/program files (x86)/microchip/xc32/v1.42/bin/bin/../../lib/gcc/pic32mx/4.8.3/../../../../pic32mx/lib\libpic32.a(xc32_uart.o)
 .debug_line    0x0001b8a9      0x111 c:/program files (x86)/microchip/xc32/v1.42/bin/bin/../../lib/gcc/pic32mx/4.8.3\libgcc.a(_umoddi3.o)

.debug_frame    0x00000000     0x7f58
 *(.debug_frame)
 .debug_frame   0x00000000      0x154 build/Diplomamunka/production/_ext/1774832663/drv_i2c_static_buffer_model.o
 .debug_frame   0x00000154      0x118 build/Diplomamunka/production/_ext/1774832663/drv_i2c_mapping.o
 .debug_frame   0x0000026c       0xd0 build/Diplomamunka/production/_ext/793758023/drv_ic_static.o
 .debug_frame   0x0000033c      0x1f0 build/Diplomamunka/production/_ext/965532929/drv_oc_static.o
 .debug_frame   0x0000052c       0xa0 build/Diplomamunka/production/_ext/1892475994/sys_clk_static.o
 .debug_frame   0x000005cc       0x20 build/Diplomamunka/production/_ext/904121046/sys_ports_static.o
 .debug_frame   0x000005ec       0x44 build/Diplomamunka/production/_ext/1720293489/system_init.o
 .debug_frame   0x00000630      0x26c build/Diplomamunka/production/_ext/1720293489/system_interrupt.o
 .debug_frame   0x0000089c       0x28 build/Diplomamunka/production/_ext/1720293489/system_exceptions.o
 .debug_frame   0x000008c4       0x28 build/Diplomamunka/production/_ext/1720293489/system_tasks.o
 .debug_frame   0x000008ec       0xf8 build/Diplomamunka/production/_ext/1360937237/app.o
 .debug_frame   0x000009e4       0x28 build/Diplomamunka/production/_ext/1360937237/main.o
 .debug_frame   0x00000a0c       0x40 build/Diplomamunka/production/_ext/1360937237/TCPServer.o
 .debug_frame   0x00000a4c       0x88 build/Diplomamunka/production/_ext/1360937237/fan.o
 .debug_frame   0x00000ad4       0x40 build/Diplomamunka/production/_ext/1360937237/led.o
 .debug_frame   0x00000b14       0xa0 build/Diplomamunka/production/_ext/1837361561/bsp_sys_init.o
 .debug_frame   0x00000bb4       0x70 build/Diplomamunka/production/_ext/1606841020/adler32.o
 .debug_frame   0x00000c24       0x54 build/Diplomamunka/production/_ext/1606841020/compress.o
 .debug_frame   0x00000c78       0xb0 build/Diplomamunka/production/_ext/1606841020/crc32.o
 .debug_frame   0x00000d28      0x294 build/Diplomamunka/production/_ext/1606841020/deflate.o
 .debug_frame   0x00000fbc       0x80 build/Diplomamunka/production/_ext/1606841020/infback.o
 .debug_frame   0x0000103c       0x38 build/Diplomamunka/production/_ext/1606841020/inffast.o
 .debug_frame   0x00001074      0x1cc build/Diplomamunka/production/_ext/1606841020/inflate.o
 .debug_frame   0x00001240       0x38 build/Diplomamunka/production/_ext/1606841020/inftrees.o
 .debug_frame   0x00001278      0x154 build/Diplomamunka/production/_ext/1606841020/trees.o
 .debug_frame   0x000013cc       0x2c build/Diplomamunka/production/_ext/1606841020/uncompr.o
 .debug_frame   0x000013f8       0x70 build/Diplomamunka/production/_ext/1606841020/zutil.o
 .debug_frame   0x00001468       0x50 build/Diplomamunka/production/_ext/1886890887/ssl-dummy.o
 .debug_frame   0x000014b8       0x30 build/Diplomamunka/production/_ext/1886890887/arc4.o
 .debug_frame   0x000014e8       0xd4 build/Diplomamunka/production/_ext/1886890887/pwdbased.o
 .debug_frame   0x000015bc      0x6e0 build/Diplomamunka/production/_ext/1886890887/tfm.o
 .debug_frame   0x00001c9c      0x564 build/Diplomamunka/production/_ext/1886890887/asn.o
 .debug_frame   0x00002200      0x1a4 build/Diplomamunka/production/_ext/1886890887/des3.o
 .debug_frame   0x000023a4      0x168 build/Diplomamunka/production/_ext/1886890887/rsa.o
 .debug_frame   0x0000250c       0xb4 build/Diplomamunka/production/_ext/1886890887/aes.o
 .debug_frame   0x000025c0       0xac build/Diplomamunka/production/_ext/1886890887/md5.o
 .debug_frame   0x0000266c       0x90 build/Diplomamunka/production/_ext/1886890887/sha.o
 .debug_frame   0x000026fc       0x84 build/Diplomamunka/production/_ext/1886890887/sha256.o
 .debug_frame   0x00002780       0x90 build/Diplomamunka/production/_ext/1886890887/hmac.o
 .debug_frame   0x00002810       0xfc build/Diplomamunka/production/_ext/1886890887/hash.o
 .debug_frame   0x0000290c      0x16c build/Diplomamunka/production/_ext/1886890887/random.o
 .debug_frame   0x00002a78      0x3f0 build/Diplomamunka/production/_ext/1886890887/crypto.o
 .debug_frame   0x00002e68       0xdc build/Diplomamunka/production/_ext/1886890887/coding.o
 .debug_frame   0x00002f44       0x38 build/Diplomamunka/production/_ext/1886890887/error.o
 .debug_frame   0x00002f7c       0x40 build/Diplomamunka/production/_ext/1886890887/logging.o
 .debug_frame   0x00002fbc       0x68 build/Diplomamunka/production/_ext/1886890887/memory.o
 .debug_frame   0x00003024       0x60 build/Diplomamunka/production/_ext/1886890887/port.o
 .debug_frame   0x00003084      0x464 build/Diplomamunka/production/_ext/1908841681/drv_ethmac.o
 .debug_frame   0x000034e8      0x288 build/Diplomamunka/production/_ext/1908841681/drv_ethmac_lib.o
 .debug_frame   0x00003770      0x6d4 build/Diplomamunka/production/_ext/732687875/drv_ethphy.o
 .debug_frame   0x00003e44       0x60 build/Diplomamunka/production/_ext/732687875/drv_extphy_dp83848.o
 .debug_frame   0x00003ea4      0x3e4 build/Diplomamunka/production/_ext/185269848/drv_tmr.o
 .debug_frame   0x00004288       0xe8 build/Diplomamunka/production/_ext/1271179505/sys_devcon.o
 .debug_frame   0x00004370       0x28 build/Diplomamunka/production/_ext/1271179505/sys_devcon_pic32mx.o
 .debug_frame   0x00004398       0x90 build/Diplomamunka/production/_ext/122796885/sys_int_pic32.o
 .debug_frame   0x00004428      0x1e0 build/Diplomamunka/production/_ext/77319752/sys_ports.o
 .debug_frame   0x00004608       0xe4 build/Diplomamunka/production/_ext/1283840359/sys_random.o
 .debug_frame   0x000046ec      0x24c build/Diplomamunka/production/_ext/1264926591/sys_tmr.o
 .debug_frame   0x00004938       0xa4 build/Diplomamunka/production/_ext/1136935090/helpers.o
 .debug_frame   0x000049dc       0x3c build/Diplomamunka/production/_ext/1136935090/lfsr.o
 .debug_frame   0x00004a18      0x6a8 build/Diplomamunka/production/_ext/1408260596/tcp.o
 .debug_frame   0x000050c0      0x578 build/Diplomamunka/production/_ext/1408260596/udp.o
 .debug_frame   0x00005638       0x98 build/Diplomamunka/production/_ext/1408260596/tcpip_heap_alloc.o
 .debug_frame   0x000056d0      0x104 build/Diplomamunka/production/_ext/1408260596/tcpip_heap_internal.o
 .debug_frame   0x000057d4      0x3c8 build/Diplomamunka/production/_ext/1408260596/arp.o
 .debug_frame   0x00005b9c      0x4cc build/Diplomamunka/production/_ext/1408260596/dhcp.o
 .debug_frame   0x00006068      0x3fc build/Diplomamunka/production/_ext/1408260596/dns.o
 .debug_frame   0x00006464      0x114 build/Diplomamunka/production/_ext/1408260596/icmp.o
 .debug_frame   0x00006578       0xc0 build/Diplomamunka/production/_ext/1408260596/tcpip_announce.o
 .debug_frame   0x00006638       0x30 build/Diplomamunka/production/_ext/1408260596/hash_fnv.o
 .debug_frame   0x00006668       0xb4 build/Diplomamunka/production/_ext/1408260596/oahash.o
 .debug_frame   0x0000671c      0x5c0 build/Diplomamunka/production/_ext/1408260596/tcpip_helpers.o
 .debug_frame   0x00006cdc      0x948 build/Diplomamunka/production/_ext/1408260596/tcpip_manager.o
 .debug_frame   0x00007624       0x94 build/Diplomamunka/production/_ext/1408260596/tcpip_notify.o
 .debug_frame   0x000076b8      0x134 build/Diplomamunka/production/_ext/1408260596/tcpip_packet.o
 .debug_frame   0x000077ec      0x144 build/Diplomamunka/production/_ext/1408260596/ipv4.o
 .debug_frame   0x00007930       0x20 c:/program files (x86)/microchip/xc32/v1.42/bin/bin/../../lib/gcc/pic32mx/4.8.3\libgcc.a(_udivdi3.o)
 .debug_frame   0x00007950       0x28 c:/program files (x86)/microchip/xc32/v1.42/bin/bin/../../lib/gcc/pic32mx/4.8.3\libgcc.a(floatunsisf.o)
 .debug_frame   0x00007978       0x2c c:/program files (x86)/microchip/xc32/v1.42/bin/bin/../../lib/gcc/pic32mx/4.8.3/../../../../pic32mx/lib\libpic32.a(default-bootstrap-exception-handler.o)
 .debug_frame   0x000079a4       0x20 c:/program files (x86)/microchip/xc32/v1.42/bin/bin/../../lib/gcc/pic32mx/4.8.3/../../../../pic32mx/lib\libpic32.a(default-on-reset.o)
 .debug_frame   0x000079c4       0x20 c:/program files (x86)/microchip/xc32/v1.42/bin/bin/../../lib/gcc/pic32mx/4.8.3/../../../../pic32mx/lib\libpic32.a(default-on-bootstrap.o)
 .debug_frame   0x000079e4       0x20 c:/program files (x86)/microchip/xc32/v1.42/bin/bin/../../lib/gcc/pic32mx/4.8.3/../../../../pic32mx/lib\libpic32.a(defaultinterrupt.o)
 .debug_frame   0x00007a04       0x28 c:/program files (x86)/microchip/xc32/v1.42/bin/bin/../../lib/gcc/pic32mx/4.8.3/../../../../pic32mx/lib\libc.a(calloc.o)
 .debug_frame   0x00007a2c       0x78 c:/program files (x86)/microchip/xc32/v1.42/bin/bin/../../lib/gcc/pic32mx/4.8.3/../../../../pic32mx/lib\libc.a(ctime.o)
 .debug_frame   0x00007aa4      0x120 c:/program files (x86)/microchip/xc32/v1.42/bin/bin/../../lib/gcc/pic32mx/4.8.3/../../../../pic32mx/lib\libc.a(ctypef.o)
 .debug_frame   0x00007bc4       0x68 c:/program files (x86)/microchip/xc32/v1.42/bin/bin/../../lib/gcc/pic32mx/4.8.3/../../../../pic32mx/lib\libc.a(malloc.o)
 .debug_frame   0x00007c2c       0x20 c:/program files (x86)/microchip/xc32/v1.42/bin/bin/../../lib/gcc/pic32mx/4.8.3/../../../../pic32mx/lib\libc.a(memmove.o)
 .debug_frame   0x00007c4c       0x30 c:/program files (x86)/microchip/xc32/v1.42/bin/bin/../../lib/gcc/pic32mx/4.8.3/../../../../pic32mx/lib\libc.a(rand.o)
 .debug_frame   0x00007c7c       0x20 c:/program files (x86)/microchip/xc32/v1.42/bin/bin/../../lib/gcc/pic32mx/4.8.3/../../../../pic32mx/lib\libc.a(strcat.o)
 .debug_frame   0x00007c9c       0x20 c:/program files (x86)/microchip/xc32/v1.42/bin/bin/../../lib/gcc/pic32mx/4.8.3/../../../../pic32mx/lib\libc.a(strncpy.o)
 .debug_frame   0x00007cbc       0x2c c:/program files (x86)/microchip/xc32/v1.42/bin/bin/../../lib/gcc/pic32mx/4.8.3/../../../../pic32mx/lib\libc.a(strstr.o)
 .debug_frame   0x00007ce8       0x58 c:/program files (x86)/microchip/xc32/v1.42/bin/bin/../../lib/gcc/pic32mx/4.8.3/../../../../pic32mx/lib\libc.a(strtol.o)
 .debug_frame   0x00007d40       0x20 c:/program files (x86)/microchip/xc32/v1.42/bin/bin/../../lib/gcc/pic32mx/4.8.3/../../../../pic32mx/lib\libc.a(time.o)
 .debug_frame   0x00007d60       0x28 c:/program files (x86)/microchip/xc32/v1.42/bin/bin/../../lib/gcc/pic32mx/4.8.3/../../../../pic32mx/lib\libc.a(sprintf_cdnopuxX.eo)
 .debug_frame   0x00007d88       0x20 c:/program files (x86)/microchip/xc32/v1.42/bin/bin/../../lib/gcc/pic32mx/4.8.3/../../../../pic32mx/lib\libc.a(strchr.o)
 .debug_frame   0x00007da8       0x20 c:/program files (x86)/microchip/xc32/v1.42/bin/bin/../../lib/gcc/pic32mx/4.8.3/../../../../pic32mx/lib\libc.a(strncmp.o)
 .debug_frame   0x00007dc8       0x38 c:/program files (x86)/microchip/xc32/v1.42/bin/bin/../../lib/gcc/pic32mx/4.8.3/../../../../pic32mx/lib\libc.a(doprnt_cdnopuxX.eo)
 .debug_frame   0x00007e00       0x2c c:/program files (x86)/microchip/xc32/v1.42/bin/bin/../../lib/gcc/pic32mx/4.8.3/../../../../pic32mx/lib\libc.a(_fputc_simple.o)
 .debug_frame   0x00007e2c       0x28 c:/program files (x86)/microchip/xc32/v1.42/bin/bin/../../lib/gcc/pic32mx/4.8.3/../../../../pic32mx/lib\libc.a(_flsbuf_simple.o)
 .debug_frame   0x00007e54       0x84 c:/program files (x86)/microchip/xc32/v1.42/bin/bin/../../lib/gcc/pic32mx/4.8.3/../../../../pic32mx/lib\libpic32.a(sbrk.o)
 .debug_frame   0x00007ed8       0x38 c:/program files (x86)/microchip/xc32/v1.42/bin/bin/../../lib/gcc/pic32mx/4.8.3/../../../../pic32mx/lib\libpic32.a(write.o)
 .debug_frame   0x00007f10       0x28 c:/program files (x86)/microchip/xc32/v1.42/bin/bin/../../lib/gcc/pic32mx/4.8.3/../../../../pic32mx/lib\libpic32.a(_mon_putc.o)
 .debug_frame   0x00007f38       0x20 c:/program files (x86)/microchip/xc32/v1.42/bin/bin/../../lib/gcc/pic32mx/4.8.3\libgcc.a(_umoddi3.o)

.debug_str      0x00000000     0x1ec9
 *(.debug_str)
 .debug_str     0x00000000       0x7e build/Diplomamunka/production/_ext/1774832663/drv_i2c_static_buffer_model.o
 .debug_str     0x0000007e       0x3f build/Diplomamunka/production/_ext/1774832663/drv_i2c_mapping.o
 .debug_str     0x000000bd       0x34 build/Diplomamunka/production/_ext/793758023/drv_ic_static.o
 .debug_str     0x000000f1       0x1a build/Diplomamunka/production/_ext/965532929/drv_oc_static.o
 .debug_str     0x0000010b       0x39 build/Diplomamunka/production/_ext/1892475994/sys_clk_static.o
 .debug_str     0x00000144       0x15 build/Diplomamunka/production/_ext/904121046/sys_ports_static.o
 .debug_str     0x00000159       0x74 build/Diplomamunka/production/_ext/1720293489/system_init.o
 .debug_str     0x000001cd        0xd build/Diplomamunka/production/_ext/1720293489/system_interrupt.o
 .debug_str     0x000001da        0x0 build/Diplomamunka/production/_ext/1720293489/system_exceptions.o
 .debug_str     0x000001da        0x0 build/Diplomamunka/production/_ext/1720293489/system_tasks.o
 .debug_str     0x000001da       0xcf build/Diplomamunka/production/_ext/1360937237/app.o
 .debug_str     0x000002a9        0x0 build/Diplomamunka/production/_ext/1360937237/main.o
 .debug_str     0x000002a9        0x0 build/Diplomamunka/production/_ext/1360937237/TCPServer.o
 .debug_str     0x000002a9       0x26 build/Diplomamunka/production/_ext/1360937237/fan.o
 .debug_str     0x000002cf        0x0 build/Diplomamunka/production/_ext/1360937237/led.o
 .debug_str     0x000002cf       0x15 build/Diplomamunka/production/_ext/1837361561/bsp_sys_init.o
 .debug_str     0x000002e4        0xe build/Diplomamunka/production/_ext/1606841020/adler32.o
 .debug_str     0x000002f2        0xa build/Diplomamunka/production/_ext/1606841020/compress.o
 .debug_str     0x000002fc        0x0 build/Diplomamunka/production/_ext/1606841020/crc32.o
 .debug_str     0x000002fc       0x6d build/Diplomamunka/production/_ext/1606841020/deflate.o
 .debug_str     0x00000369        0x6 build/Diplomamunka/production/_ext/1606841020/infback.o
 .debug_str     0x0000036f        0x0 build/Diplomamunka/production/_ext/1606841020/inffast.o
 .debug_str     0x0000036f       0x22 build/Diplomamunka/production/_ext/1606841020/inflate.o
 .debug_str     0x00000391        0x0 build/Diplomamunka/production/_ext/1606841020/inftrees.o
 .debug_str     0x00000391       0x4d build/Diplomamunka/production/_ext/1606841020/trees.o
 .debug_str     0x000003de        0x0 build/Diplomamunka/production/_ext/1606841020/uncompr.o
 .debug_str     0x000003de        0x0 build/Diplomamunka/production/_ext/1606841020/zutil.o
 .debug_str     0x000003de        0x0 build/Diplomamunka/production/_ext/1886890887/ecc.o
 .debug_str     0x000003de      0x2cc build/Diplomamunka/production/_ext/1886890887/ssl-dummy.o
 .debug_str     0x000006aa        0x0 build/Diplomamunka/production/_ext/1886890887/arc4.o
 .debug_str     0x000006aa       0x4c build/Diplomamunka/production/_ext/1886890887/pwdbased.o
 .debug_str     0x000006f6        0x8 build/Diplomamunka/production/_ext/1886890887/tfm.o
 .debug_str     0x000006fe      0x117 build/Diplomamunka/production/_ext/1886890887/asn.o
 .debug_str     0x00000815        0x7 build/Diplomamunka/production/_ext/1886890887/des3.o
 .debug_str     0x0000081c       0x36 build/Diplomamunka/production/_ext/1886890887/rsa.o
 .debug_str     0x00000852        0x9 build/Diplomamunka/production/_ext/1886890887/aes.o
 .debug_str     0x0000085b        0x0 build/Diplomamunka/production/_ext/1886890887/md5.o
 .debug_str     0x0000085b        0x0 build/Diplomamunka/production/_ext/1886890887/sha.o
 .debug_str     0x0000085b        0x7 build/Diplomamunka/production/_ext/1886890887/sha256.o
 .debug_str     0x00000862        0x0 build/Diplomamunka/production/_ext/1886890887/sha512.o
 .debug_str     0x00000862       0x16 build/Diplomamunka/production/_ext/1886890887/hmac.o
 .debug_str     0x00000878       0x2e build/Diplomamunka/production/_ext/1886890887/hash.o
 .debug_str     0x000008a6        0x0 build/Diplomamunka/production/_ext/1886890887/compress.o
 .debug_str     0x000008a6       0x42 build/Diplomamunka/production/_ext/1886890887/random.o
 .debug_str     0x000008e8       0xa4 build/Diplomamunka/production/_ext/1886890887/crypto.o
 .debug_str     0x0000098c       0x17 build/Diplomamunka/production/_ext/1886890887/coding.o
 .debug_str     0x000009a3        0x0 build/Diplomamunka/production/_ext/1886890887/error.o
 .debug_str     0x000009a3        0x0 build/Diplomamunka/production/_ext/1886890887/integer.o
 .debug_str     0x000009a3        0x0 build/Diplomamunka/production/_ext/1886890887/logging.o
 .debug_str     0x000009a3        0x0 build/Diplomamunka/production/_ext/1886890887/memory.o
 .debug_str     0x000009a3        0x0 build/Diplomamunka/production/_ext/1886890887/misc.o
 .debug_str     0x000009a3        0x0 build/Diplomamunka/production/_ext/1886890887/port.o
 .debug_str     0x000009a3      0x175 build/Diplomamunka/production/_ext/1908841681/drv_ethmac.o
 .debug_str     0x00000b18      0x160 build/Diplomamunka/production/_ext/1908841681/drv_ethmac_lib.o
 .debug_str     0x00000c78      0x475 build/Diplomamunka/production/_ext/732687875/drv_ethphy.o
 .debug_str     0x000010ed       0x2a build/Diplomamunka/production/_ext/732687875/drv_extphy_dp83848.o
 .debug_str     0x00001117       0xb9 build/Diplomamunka/production/_ext/185269848/drv_tmr.o
 .debug_str     0x000011d0       0x16 build/Diplomamunka/production/_ext/1271179505/sys_devcon.o
 .debug_str     0x000011e6        0x6 build/Diplomamunka/production/_ext/1271179505/sys_devcon_pic32mx.o
 .debug_str     0x000011ec       0x2d build/Diplomamunka/production/_ext/122796885/sys_int_pic32.o
 .debug_str     0x00001219       0x4e build/Diplomamunka/production/_ext/77319752/sys_ports.o
 .debug_str     0x00001267       0x1d build/Diplomamunka/production/_ext/1283840359/sys_random.o
 .debug_str     0x00001284       0x7d build/Diplomamunka/production/_ext/1264926591/sys_tmr.o
 .debug_str     0x00001301        0x0 build/Diplomamunka/production/_ext/1136935090/helpers.o
 .debug_str     0x00001301        0x0 build/Diplomamunka/production/_ext/1136935090/lfsr.o
 .debug_str     0x00001301      0x1cb build/Diplomamunka/production/_ext/1408260596/tcp.o
 .debug_str     0x000014cc      0x15f build/Diplomamunka/production/_ext/1408260596/udp.o
 .debug_str     0x0000162b       0x70 build/Diplomamunka/production/_ext/1408260596/tcpip_heap_alloc.o
 .debug_str     0x0000169b       0x59 build/Diplomamunka/production/_ext/1408260596/tcpip_heap_internal.o
 .debug_str     0x000016f4      0x104 build/Diplomamunka/production/_ext/1408260596/arp.o
 .debug_str     0x000017f8       0xe1 build/Diplomamunka/production/_ext/1408260596/dhcp.o
 .debug_str     0x000018d9      0x15a build/Diplomamunka/production/_ext/1408260596/dns.o
 .debug_str     0x00001a33       0x70 build/Diplomamunka/production/_ext/1408260596/icmp.o
 .debug_str     0x00001aa3       0x24 build/Diplomamunka/production/_ext/1408260596/tcpip_announce.o
 .debug_str     0x00001ac7        0x0 build/Diplomamunka/production/_ext/1408260596/hash_fnv.o
 .debug_str     0x00001ac7        0xa build/Diplomamunka/production/_ext/1408260596/oahash.o
 .debug_str     0x00001ad1       0x7c build/Diplomamunka/production/_ext/1408260596/tcpip_helpers.o
 .debug_str     0x00001b4d      0x2ec build/Diplomamunka/production/_ext/1408260596/tcpip_manager.o
 .debug_str     0x00001e39       0x33 build/Diplomamunka/production/_ext/1408260596/tcpip_notify.o
 .debug_str     0x00001e6c       0x2c build/Diplomamunka/production/_ext/1408260596/tcpip_packet.o
 .debug_str     0x00001e98       0x31 build/Diplomamunka/production/_ext/1408260596/ipv4.o
 .debug_str     0x00001ec9        0x0 c:/program files (x86)/microchip/xc32/v1.42/bin/bin/../../lib/gcc/pic32mx/4.8.3\libgcc.a(_udivdi3.o)
 .debug_str     0x00001ec9        0x0 c:/program files (x86)/microchip/xc32/v1.42/bin/bin/../../lib/gcc/pic32mx/4.8.3\libgcc.a(floatunsisf.o)
 .debug_str     0x00001ec9        0x0 c:/program files (x86)/microchip/xc32/v1.42/bin/bin/../../lib/gcc/pic32mx/4.8.3/../../../../pic32mx/lib\libpic32.a(default-bootstrap-exception-handler.o)
 .debug_str     0x00001ec9        0x0 c:/program files (x86)/microchip/xc32/v1.42/bin/bin/../../lib/gcc/pic32mx/4.8.3/../../../../pic32mx/lib\libpic32.a(default-on-reset.o)
 .debug_str     0x00001ec9        0x0 c:/program files (x86)/microchip/xc32/v1.42/bin/bin/../../lib/gcc/pic32mx/4.8.3/../../../../pic32mx/lib\libpic32.a(default-on-bootstrap.o)
 .debug_str     0x00001ec9        0x0 c:/program files (x86)/microchip/xc32/v1.42/bin/bin/../../lib/gcc/pic32mx/4.8.3/../../../../pic32mx/lib\libpic32.a(defaultinterrupt.o)
 .debug_str     0x00001ec9        0x0 c:/program files (x86)/microchip/xc32/v1.42/bin/bin/../../lib/gcc/pic32mx/4.8.3/../../../../pic32mx/lib\libc.a(calloc.o)
 .debug_str     0x00001ec9        0x0 c:/program files (x86)/microchip/xc32/v1.42/bin/bin/../../lib/gcc/pic32mx/4.8.3/../../../../pic32mx/lib\libc.a(ctime.o)
 .debug_str     0x00001ec9        0x0 c:/program files (x86)/microchip/xc32/v1.42/bin/bin/../../lib/gcc/pic32mx/4.8.3/../../../../pic32mx/lib\libc.a(ctype.o)
 .debug_str     0x00001ec9        0x0 c:/program files (x86)/microchip/xc32/v1.42/bin/bin/../../lib/gcc/pic32mx/4.8.3/../../../../pic32mx/lib\libc.a(ctypef.o)
 .debug_str     0x00001ec9        0x0 c:/program files (x86)/microchip/xc32/v1.42/bin/bin/../../lib/gcc/pic32mx/4.8.3/../../../../pic32mx/lib\libc.a(malloc.o)
 .debug_str     0x00001ec9        0x0 c:/program files (x86)/microchip/xc32/v1.42/bin/bin/../../lib/gcc/pic32mx/4.8.3/../../../../pic32mx/lib\libc.a(memmove.o)
 .debug_str     0x00001ec9        0x0 c:/program files (x86)/microchip/xc32/v1.42/bin/bin/../../lib/gcc/pic32mx/4.8.3/../../../../pic32mx/lib\libc.a(rand.o)
 .debug_str     0x00001ec9        0x0 c:/program files (x86)/microchip/xc32/v1.42/bin/bin/../../lib/gcc/pic32mx/4.8.3/../../../../pic32mx/lib\libc.a(strcat.o)
 .debug_str     0x00001ec9        0x0 c:/program files (x86)/microchip/xc32/v1.42/bin/bin/../../lib/gcc/pic32mx/4.8.3/../../../../pic32mx/lib\libc.a(strncpy.o)
 .debug_str     0x00001ec9        0x0 c:/program files (x86)/microchip/xc32/v1.42/bin/bin/../../lib/gcc/pic32mx/4.8.3/../../../../pic32mx/lib\libc.a(strstr.o)
 .debug_str     0x00001ec9        0x0 c:/program files (x86)/microchip/xc32/v1.42/bin/bin/../../lib/gcc/pic32mx/4.8.3/../../../../pic32mx/lib\libc.a(strtol.o)
 .debug_str     0x00001ec9        0x0 c:/program files (x86)/microchip/xc32/v1.42/bin/bin/../../lib/gcc/pic32mx/4.8.3/../../../../pic32mx/lib\libc.a(time.o)
 .debug_str     0x00001ec9        0x0 c:/program files (x86)/microchip/xc32/v1.42/bin/bin/../../lib/gcc/pic32mx/4.8.3/../../../../pic32mx/lib\libc.a(sprintf_cdnopuxX.eo)
 .debug_str     0x00001ec9        0x0 c:/program files (x86)/microchip/xc32/v1.42/bin/bin/../../lib/gcc/pic32mx/4.8.3/../../../../pic32mx/lib\libc.a(errno.o)
 .debug_str     0x00001ec9        0x0 c:/program files (x86)/microchip/xc32/v1.42/bin/bin/../../lib/gcc/pic32mx/4.8.3/../../../../pic32mx/lib\libc.a(strchr.o)
 .debug_str     0x00001ec9        0x0 c:/program files (x86)/microchip/xc32/v1.42/bin/bin/../../lib/gcc/pic32mx/4.8.3/../../../../pic32mx/lib\libc.a(strncmp.o)
 .debug_str     0x00001ec9        0x0 c:/program files (x86)/microchip/xc32/v1.42/bin/bin/../../lib/gcc/pic32mx/4.8.3/../../../../pic32mx/lib\libc.a(doprnt_cdnopuxX.eo)
 .debug_str     0x00001ec9        0x0 c:/program files (x86)/microchip/xc32/v1.42/bin/bin/../../lib/gcc/pic32mx/4.8.3/../../../../pic32mx/lib\libc.a(_fputc_simple.o)
 .debug_str     0x00001ec9        0x0 c:/program files (x86)/microchip/xc32/v1.42/bin/bin/../../lib/gcc/pic32mx/4.8.3/../../../../pic32mx/lib\libc.a(_iob.o)
 .debug_str     0x00001ec9        0x0 c:/program files (x86)/microchip/xc32/v1.42/bin/bin/../../lib/gcc/pic32mx/4.8.3/../../../../pic32mx/lib\libc.a(_flsbuf_simple.o)
 .debug_str     0x00001ec9        0x0 c:/program files (x86)/microchip/xc32/v1.42/bin/bin/../../lib/gcc/pic32mx/4.8.3/../../../../pic32mx/lib\libpic32.a(sbrk.o)
 .debug_str     0x00001ec9        0x0 c:/program files (x86)/microchip/xc32/v1.42/bin/bin/../../lib/gcc/pic32mx/4.8.3/../../../../pic32mx/lib\libpic32.a(write.o)
 .debug_str     0x00001ec9        0x0 c:/program files (x86)/microchip/xc32/v1.42/bin/bin/../../lib/gcc/pic32mx/4.8.3/../../../../pic32mx/lib\libpic32.a(_mon_putc.o)
 .debug_str     0x00001ec9        0x0 c:/program files (x86)/microchip/xc32/v1.42/bin/bin/../../lib/gcc/pic32mx/4.8.3/../../../../pic32mx/lib\libpic32.a(xc32_uart.o)
 .debug_str     0x00001ec9        0x0 c:/program files (x86)/microchip/xc32/v1.42/bin/bin/../../lib/gcc/pic32mx/4.8.3\libgcc.a(_umoddi3.o)

.debug_loc      0x00000000    0x7266e
 *(.debug_loc)
 .debug_loc     0x00000000      0xb31 build/Diplomamunka/production/_ext/1774832663/drv_i2c_static_buffer_model.o
 .debug_loc     0x00000b31      0x617 build/Diplomamunka/production/_ext/1774832663/drv_i2c_mapping.o
 .debug_loc     0x00001148       0x75 build/Diplomamunka/production/_ext/1892475994/sys_clk_static.o
 .debug_loc     0x000011bd       0x35 build/Diplomamunka/production/_ext/1720293489/system_init.o
 .debug_loc     0x000011f2       0x56 build/Diplomamunka/production/_ext/1720293489/system_interrupt.o
 .debug_loc     0x00001248      0x2f6 build/Diplomamunka/production/_ext/1360937237/app.o
 .debug_loc     0x0000153e      0x3e2 build/Diplomamunka/production/_ext/1360937237/TCPServer.o
 .debug_loc     0x00001920      0x281 build/Diplomamunka/production/_ext/1360937237/fan.o
 .debug_loc     0x00001ba1       0x50 build/Diplomamunka/production/_ext/1360937237/led.o
 .debug_loc     0x00001bf1      0x11b build/Diplomamunka/production/_ext/1837361561/bsp_sys_init.o
 .debug_loc     0x00001d0c      0x799 build/Diplomamunka/production/_ext/1606841020/adler32.o
 .debug_loc     0x000024a5      0x1a2 build/Diplomamunka/production/_ext/1606841020/compress.o
 .debug_loc     0x00002647      0x875 build/Diplomamunka/production/_ext/1606841020/crc32.o
 .debug_loc     0x00002ebc     0x169e build/Diplomamunka/production/_ext/1606841020/deflate.o
 .debug_loc     0x0000455a      0xf2e build/Diplomamunka/production/_ext/1606841020/infback.o
 .debug_loc     0x00005488      0x705 build/Diplomamunka/production/_ext/1606841020/inffast.o
 .debug_loc     0x00005b8d     0x15ca build/Diplomamunka/production/_ext/1606841020/inflate.o
 .debug_loc     0x00007157      0x739 build/Diplomamunka/production/_ext/1606841020/inftrees.o
 .debug_loc     0x00007890     0x1513 build/Diplomamunka/production/_ext/1606841020/trees.o
 .debug_loc     0x00008da3       0xdb build/Diplomamunka/production/_ext/1606841020/uncompr.o
 .debug_loc     0x00008e7e       0xc6 build/Diplomamunka/production/_ext/1606841020/zutil.o
 .debug_loc     0x00008f44      0x1b5 build/Diplomamunka/production/_ext/1886890887/arc4.o
 .debug_loc     0x000090f9      0xf41 build/Diplomamunka/production/_ext/1886890887/pwdbased.o
 .debug_loc     0x0000a03a     0x303f build/Diplomamunka/production/_ext/1886890887/tfm.o
 .debug_loc     0x0000d079     0x581d build/Diplomamunka/production/_ext/1886890887/asn.o
 .debug_loc     0x00012896     0x2be4 build/Diplomamunka/production/_ext/1886890887/des3.o
 .debug_loc     0x0001547a      0xf2a build/Diplomamunka/production/_ext/1886890887/rsa.o
 .debug_loc     0x000163a4      0xcf5 build/Diplomamunka/production/_ext/1886890887/aes.o
 .debug_loc     0x00017099     0x20a0 build/Diplomamunka/production/_ext/1886890887/md5.o
 .debug_loc     0x00019139    0x2f790 build/Diplomamunka/production/_ext/1886890887/sha.o
 .debug_loc     0x000488c9      0xc0c build/Diplomamunka/production/_ext/1886890887/sha256.o
 .debug_loc     0x000494d5      0x559 build/Diplomamunka/production/_ext/1886890887/hmac.o
 .debug_loc     0x00049a2e      0x4ab build/Diplomamunka/production/_ext/1886890887/hash.o
 .debug_loc     0x00049ed9     0x1231 build/Diplomamunka/production/_ext/1886890887/random.o
 .debug_loc     0x0004b10a     0x137f build/Diplomamunka/production/_ext/1886890887/crypto.o
 .debug_loc     0x0004c489     0x1042 build/Diplomamunka/production/_ext/1886890887/coding.o
 .debug_loc     0x0004d4cb       0x7c build/Diplomamunka/production/_ext/1886890887/error.o
 .debug_loc     0x0004d547      0x173 build/Diplomamunka/production/_ext/1886890887/memory.o
 .debug_loc     0x0004d6ba     0x2125 build/Diplomamunka/production/_ext/1908841681/drv_ethmac.o
 .debug_loc     0x0004f7df     0x25af build/Diplomamunka/production/_ext/1908841681/drv_ethmac_lib.o
 .debug_loc     0x00051d8e     0x327f build/Diplomamunka/production/_ext/732687875/drv_ethphy.o
 .debug_loc     0x0005500d      0x250 build/Diplomamunka/production/_ext/732687875/drv_extphy_dp83848.o
 .debug_loc     0x0005525d     0x2d5c build/Diplomamunka/production/_ext/185269848/drv_tmr.o
 .debug_loc     0x00057fb9       0xf0 build/Diplomamunka/production/_ext/1271179505/sys_devcon.o
 .debug_loc     0x000580a9       0xec build/Diplomamunka/production/_ext/1271179505/sys_devcon_pic32mx.o
 .debug_loc     0x00058195       0x8d build/Diplomamunka/production/_ext/122796885/sys_int_pic32.o
 .debug_loc     0x00058222      0xecf build/Diplomamunka/production/_ext/77319752/sys_ports.o
 .debug_loc     0x000590f1       0xe8 build/Diplomamunka/production/_ext/1283840359/sys_random.o
 .debug_loc     0x000591d9      0xf05 build/Diplomamunka/production/_ext/1264926591/sys_tmr.o
 .debug_loc     0x0005a0de      0x4c3 build/Diplomamunka/production/_ext/1136935090/helpers.o
 .debug_loc     0x0005a5a1       0xc8 build/Diplomamunka/production/_ext/1136935090/lfsr.o
 .debug_loc     0x0005a669     0x4c31 build/Diplomamunka/production/_ext/1408260596/tcp.o
 .debug_loc     0x0005f29a     0x2efc build/Diplomamunka/production/_ext/1408260596/udp.o
 .debug_loc     0x00062196      0x15b build/Diplomamunka/production/_ext/1408260596/tcpip_heap_alloc.o
 .debug_loc     0x000622f1      0xa78 build/Diplomamunka/production/_ext/1408260596/tcpip_heap_internal.o
 .debug_loc     0x00062d69     0x1e89 build/Diplomamunka/production/_ext/1408260596/arp.o
 .debug_loc     0x00064bf2     0x2152 build/Diplomamunka/production/_ext/1408260596/dhcp.o
 .debug_loc     0x00066d44     0x2111 build/Diplomamunka/production/_ext/1408260596/dns.o
 .debug_loc     0x00068e55      0x583 build/Diplomamunka/production/_ext/1408260596/icmp.o
 .debug_loc     0x000693d8      0x428 build/Diplomamunka/production/_ext/1408260596/tcpip_announce.o
 .debug_loc     0x00069800      0x137 build/Diplomamunka/production/_ext/1408260596/hash_fnv.o
 .debug_loc     0x00069937      0x2b1 build/Diplomamunka/production/_ext/1408260596/oahash.o
 .debug_loc     0x00069be8     0x2d63 build/Diplomamunka/production/_ext/1408260596/tcpip_helpers.o
 .debug_loc     0x0006c94b     0x3081 build/Diplomamunka/production/_ext/1408260596/tcpip_manager.o
 .debug_loc     0x0006f9cc      0x27a build/Diplomamunka/production/_ext/1408260596/tcpip_notify.o
 .debug_loc     0x0006fc46      0x8ca build/Diplomamunka/production/_ext/1408260596/tcpip_packet.o
 .debug_loc     0x00070510      0xc43 build/Diplomamunka/production/_ext/1408260596/ipv4.o
 .debug_loc     0x00071153      0xa6a c:/program files (x86)/microchip/xc32/v1.42/bin/bin/../../lib/gcc/pic32mx/4.8.3\libgcc.a(_udivdi3.o)
 .debug_loc     0x00071bbd       0x74 c:/program files (x86)/microchip/xc32/v1.42/bin/bin/../../lib/gcc/pic32mx/4.8.3\libgcc.a(floatunsisf.o)
 .debug_loc     0x00071c31      0xa3d c:/program files (x86)/microchip/xc32/v1.42/bin/bin/../../lib/gcc/pic32mx/4.8.3\libgcc.a(_umoddi3.o)

.debug_macinfo
 *(.debug_macinfo)

.debug_weaknames
 *(.debug_weaknames)

.debug_funcnames
 *(.debug_funcnames)

.debug_typenames
 *(.debug_typenames)

.debug_varnames
 *(.debug_varnames)

.debug_pubtypes
 *(.debug_pubtypes)

.debug_ranges   0x00000000     0x57f0
 *(.debug_ranges)
 .debug_ranges  0x00000000       0x80 build/Diplomamunka/production/_ext/1774832663/drv_i2c_static_buffer_model.o
 .debug_ranges  0x00000080       0x50 build/Diplomamunka/production/_ext/1774832663/drv_i2c_mapping.o
 .debug_ranges  0x000000d0       0x68 build/Diplomamunka/production/_ext/793758023/drv_ic_static.o
 .debug_ranges  0x00000138       0xf8 build/Diplomamunka/production/_ext/965532929/drv_oc_static.o
 .debug_ranges  0x00000230       0x40 build/Diplomamunka/production/_ext/1892475994/sys_clk_static.o
 .debug_ranges  0x00000270       0x10 build/Diplomamunka/production/_ext/904121046/sys_ports_static.o
 .debug_ranges  0x00000280       0x18 build/Diplomamunka/production/_ext/1720293489/system_init.o
 .debug_ranges  0x00000298       0x48 build/Diplomamunka/production/_ext/1720293489/system_interrupt.o
 .debug_ranges  0x000002e0       0x10 build/Diplomamunka/production/_ext/1720293489/system_exceptions.o
 .debug_ranges  0x000002f0       0x10 build/Diplomamunka/production/_ext/1720293489/system_tasks.o
 .debug_ranges  0x00000300       0x78 build/Diplomamunka/production/_ext/1360937237/app.o
 .debug_ranges  0x00000378       0x10 build/Diplomamunka/production/_ext/1360937237/main.o
 .debug_ranges  0x00000388       0x18 build/Diplomamunka/production/_ext/1360937237/TCPServer.o
 .debug_ranges  0x000003a0       0x30 build/Diplomamunka/production/_ext/1360937237/fan.o
 .debug_ranges  0x000003d0       0x18 build/Diplomamunka/production/_ext/1360937237/led.o
 .debug_ranges  0x000003e8       0x50 build/Diplomamunka/production/_ext/1837361561/bsp_sys_init.o
 .debug_ranges  0x00000438       0x28 build/Diplomamunka/production/_ext/1606841020/adler32.o
 .debug_ranges  0x00000460       0x20 build/Diplomamunka/production/_ext/1606841020/compress.o
 .debug_ranges  0x00000480       0x40 build/Diplomamunka/production/_ext/1606841020/crc32.o
 .debug_ranges  0x000004c0      0x260 build/Diplomamunka/production/_ext/1606841020/deflate.o
 .debug_ranges  0x00000720       0x20 build/Diplomamunka/production/_ext/1606841020/infback.o
 .debug_ranges  0x00000740       0x10 build/Diplomamunka/production/_ext/1606841020/inffast.o
 .debug_ranges  0x00000750       0x90 build/Diplomamunka/production/_ext/1606841020/inflate.o
 .debug_ranges  0x000007e0       0x10 build/Diplomamunka/production/_ext/1606841020/inftrees.o
 .debug_ranges  0x000007f0      0x170 build/Diplomamunka/production/_ext/1606841020/trees.o
 .debug_ranges  0x00000960       0x10 build/Diplomamunka/production/_ext/1606841020/uncompr.o
 .debug_ranges  0x00000970       0x30 build/Diplomamunka/production/_ext/1606841020/zutil.o
 .debug_ranges  0x000009a0       0x28 build/Diplomamunka/production/_ext/1886890887/ssl-dummy.o
 .debug_ranges  0x000009c8       0x18 build/Diplomamunka/production/_ext/1886890887/arc4.o
 .debug_ranges  0x000009e0       0xe8 build/Diplomamunka/production/_ext/1886890887/pwdbased.o
 .debug_ranges  0x00000ac8      0x300 build/Diplomamunka/production/_ext/1886890887/tfm.o
 .debug_ranges  0x00000dc8      0x830 build/Diplomamunka/production/_ext/1886890887/asn.o
 .debug_ranges  0x000015f8      0x150 build/Diplomamunka/production/_ext/1886890887/des3.o
 .debug_ranges  0x00001748       0x88 build/Diplomamunka/production/_ext/1886890887/rsa.o
 .debug_ranges  0x000017d0      0x168 build/Diplomamunka/production/_ext/1886890887/aes.o
 .debug_ranges  0x00001938       0x30 build/Diplomamunka/production/_ext/1886890887/md5.o
 .debug_ranges  0x00001968       0xa0 build/Diplomamunka/production/_ext/1886890887/sha.o
 .debug_ranges  0x00001a08       0xb8 build/Diplomamunka/production/_ext/1886890887/sha256.o
 .debug_ranges  0x00001ac0       0x48 build/Diplomamunka/production/_ext/1886890887/hmac.o
 .debug_ranges  0x00001b08       0x58 build/Diplomamunka/production/_ext/1886890887/hash.o
 .debug_ranges  0x00001b60      0x128 build/Diplomamunka/production/_ext/1886890887/random.o
 .debug_ranges  0x00001c88      0x118 build/Diplomamunka/production/_ext/1886890887/crypto.o
 .debug_ranges  0x00001da0       0xb0 build/Diplomamunka/production/_ext/1886890887/coding.o
 .debug_ranges  0x00001e50       0x18 build/Diplomamunka/production/_ext/1886890887/error.o
 .debug_ranges  0x00001e68       0x20 build/Diplomamunka/production/_ext/1886890887/logging.o
 .debug_ranges  0x00001e88       0x28 build/Diplomamunka/production/_ext/1886890887/memory.o
 .debug_ranges  0x00001eb0       0x30 build/Diplomamunka/production/_ext/1886890887/port.o
 .debug_ranges  0x00001ee0      0x1f0 build/Diplomamunka/production/_ext/1908841681/drv_ethmac.o
 .debug_ranges  0x000020d0      0x488 build/Diplomamunka/production/_ext/1908841681/drv_ethmac_lib.o
 .debug_ranges  0x00002558      0x2d0 build/Diplomamunka/production/_ext/732687875/drv_ethphy.o
 .debug_ranges  0x00002828       0x20 build/Diplomamunka/production/_ext/732687875/drv_extphy_dp83848.o
 .debug_ranges  0x00002848      0x5c0 build/Diplomamunka/production/_ext/185269848/drv_tmr.o
 .debug_ranges  0x00002e08       0x68 build/Diplomamunka/production/_ext/1271179505/sys_devcon.o
 .debug_ranges  0x00002e70       0x10 build/Diplomamunka/production/_ext/1271179505/sys_devcon_pic32mx.o
 .debug_ranges  0x00002e80       0x50 build/Diplomamunka/production/_ext/122796885/sys_int_pic32.o
 .debug_ranges  0x00002ed0       0xf0 build/Diplomamunka/production/_ext/77319752/sys_ports.o
 .debug_ranges  0x00002fc0       0x58 build/Diplomamunka/production/_ext/1283840359/sys_random.o
 .debug_ranges  0x00003018      0x148 build/Diplomamunka/production/_ext/1264926591/sys_tmr.o
 .debug_ranges  0x00003160       0x48 build/Diplomamunka/production/_ext/1136935090/helpers.o
 .debug_ranges  0x000031a8       0x18 build/Diplomamunka/production/_ext/1136935090/lfsr.o
 .debug_ranges  0x000031c0      0x8d0 build/Diplomamunka/production/_ext/1408260596/tcp.o
 .debug_ranges  0x00003a90      0x500 build/Diplomamunka/production/_ext/1408260596/udp.o
 .debug_ranges  0x00003f90       0x38 build/Diplomamunka/production/_ext/1408260596/tcpip_heap_alloc.o
 .debug_ranges  0x00003fc8       0x98 build/Diplomamunka/production/_ext/1408260596/tcpip_heap_internal.o
 .debug_ranges  0x00004060      0x178 build/Diplomamunka/production/_ext/1408260596/arp.o
 .debug_ranges  0x000041d8      0x380 build/Diplomamunka/production/_ext/1408260596/dhcp.o
 .debug_ranges  0x00004558      0x250 build/Diplomamunka/production/_ext/1408260596/dns.o
 .debug_ranges  0x000047a8       0xc0 build/Diplomamunka/production/_ext/1408260596/icmp.o
 .debug_ranges  0x00004868       0x78 build/Diplomamunka/production/_ext/1408260596/tcpip_announce.o
 .debug_ranges  0x000048e0       0x18 build/Diplomamunka/production/_ext/1408260596/hash_fnv.o
 .debug_ranges  0x000048f8       0x58 build/Diplomamunka/production/_ext/1408260596/oahash.o
 .debug_ranges  0x00004950      0x2e8 build/Diplomamunka/production/_ext/1408260596/tcpip_helpers.o
 .debug_ranges  0x00004c38      0x610 build/Diplomamunka/production/_ext/1408260596/tcpip_manager.o
 .debug_ranges  0x00005248       0x30 build/Diplomamunka/production/_ext/1408260596/tcpip_notify.o
 .debug_ranges  0x00005278       0x68 build/Diplomamunka/production/_ext/1408260596/tcpip_packet.o
 .debug_ranges  0x000052e0      0x140 build/Diplomamunka/production/_ext/1408260596/ipv4.o
 .debug_ranges  0x00005420       0x98 c:/program files (x86)/microchip/xc32/v1.42/bin/bin/../../lib/gcc/pic32mx/4.8.3\libgcc.a(_udivdi3.o)
 .debug_ranges  0x000054b8       0x10 c:/program files (x86)/microchip/xc32/v1.42/bin/bin/../../lib/gcc/pic32mx/4.8.3/../../../../pic32mx/lib\libpic32.a(default-bootstrap-exception-handler.o)
 .debug_ranges  0x000054c8       0x10 c:/program files (x86)/microchip/xc32/v1.42/bin/bin/../../lib/gcc/pic32mx/4.8.3/../../../../pic32mx/lib\libpic32.a(default-on-reset.o)
 .debug_ranges  0x000054d8       0x10 c:/program files (x86)/microchip/xc32/v1.42/bin/bin/../../lib/gcc/pic32mx/4.8.3/../../../../pic32mx/lib\libpic32.a(default-on-bootstrap.o)
 .debug_ranges  0x000054e8       0x10 c:/program files (x86)/microchip/xc32/v1.42/bin/bin/../../lib/gcc/pic32mx/4.8.3/../../../../pic32mx/lib\libpic32.a(defaultinterrupt.o)
 .debug_ranges  0x000054f8       0x10 c:/program files (x86)/microchip/xc32/v1.42/bin/bin/../../lib/gcc/pic32mx/4.8.3/../../../../pic32mx/lib\libc.a(calloc.o)
 .debug_ranges  0x00005508       0x30 c:/program files (x86)/microchip/xc32/v1.42/bin/bin/../../lib/gcc/pic32mx/4.8.3/../../../../pic32mx/lib\libc.a(ctime.o)
 .debug_ranges  0x00005538       0x90 c:/program files (x86)/microchip/xc32/v1.42/bin/bin/../../lib/gcc/pic32mx/4.8.3/../../../../pic32mx/lib\libc.a(ctypef.o)
 .debug_ranges  0x000055c8       0x20 c:/program files (x86)/microchip/xc32/v1.42/bin/bin/../../lib/gcc/pic32mx/4.8.3/../../../../pic32mx/lib\libc.a(malloc.o)
 .debug_ranges  0x000055e8       0x10 c:/program files (x86)/microchip/xc32/v1.42/bin/bin/../../lib/gcc/pic32mx/4.8.3/../../../../pic32mx/lib\libc.a(memmove.o)
 .debug_ranges  0x000055f8       0x18 c:/program files (x86)/microchip/xc32/v1.42/bin/bin/../../lib/gcc/pic32mx/4.8.3/../../../../pic32mx/lib\libc.a(rand.o)
 .debug_ranges  0x00005610       0x10 c:/program files (x86)/microchip/xc32/v1.42/bin/bin/../../lib/gcc/pic32mx/4.8.3/../../../../pic32mx/lib\libc.a(strcat.o)
 .debug_ranges  0x00005620       0x10 c:/program files (x86)/microchip/xc32/v1.42/bin/bin/../../lib/gcc/pic32mx/4.8.3/../../../../pic32mx/lib\libc.a(strncpy.o)
 .debug_ranges  0x00005630       0x10 c:/program files (x86)/microchip/xc32/v1.42/bin/bin/../../lib/gcc/pic32mx/4.8.3/../../../../pic32mx/lib\libc.a(strstr.o)
 .debug_ranges  0x00005640       0x18 c:/program files (x86)/microchip/xc32/v1.42/bin/bin/../../lib/gcc/pic32mx/4.8.3/../../../../pic32mx/lib\libc.a(strtol.o)
 .debug_ranges  0x00005658       0x10 c:/program files (x86)/microchip/xc32/v1.42/bin/bin/../../lib/gcc/pic32mx/4.8.3/../../../../pic32mx/lib\libc.a(time.o)
 .debug_ranges  0x00005668       0x10 c:/program files (x86)/microchip/xc32/v1.42/bin/bin/../../lib/gcc/pic32mx/4.8.3/../../../../pic32mx/lib\libc.a(sprintf_cdnopuxX.eo)
 .debug_ranges  0x00005678       0x10 c:/program files (x86)/microchip/xc32/v1.42/bin/bin/../../lib/gcc/pic32mx/4.8.3/../../../../pic32mx/lib\libc.a(strchr.o)
 .debug_ranges  0x00005688       0x10 c:/program files (x86)/microchip/xc32/v1.42/bin/bin/../../lib/gcc/pic32mx/4.8.3/../../../../pic32mx/lib\libc.a(strncmp.o)
 .debug_ranges  0x00005698       0x10 c:/program files (x86)/microchip/xc32/v1.42/bin/bin/../../lib/gcc/pic32mx/4.8.3/../../../../pic32mx/lib\libc.a(doprnt_cdnopuxX.eo)
 .debug_ranges  0x000056a8       0x10 c:/program files (x86)/microchip/xc32/v1.42/bin/bin/../../lib/gcc/pic32mx/4.8.3/../../../../pic32mx/lib\libc.a(_fputc_simple.o)
 .debug_ranges  0x000056b8       0x10 c:/program files (x86)/microchip/xc32/v1.42/bin/bin/../../lib/gcc/pic32mx/4.8.3/../../../../pic32mx/lib\libc.a(_flsbuf_simple.o)
 .debug_ranges  0x000056c8       0x30 c:/program files (x86)/microchip/xc32/v1.42/bin/bin/../../lib/gcc/pic32mx/4.8.3/../../../../pic32mx/lib\libpic32.a(sbrk.o)
 .debug_ranges  0x000056f8       0x10 c:/program files (x86)/microchip/xc32/v1.42/bin/bin/../../lib/gcc/pic32mx/4.8.3/../../../../pic32mx/lib\libpic32.a(write.o)
 .debug_ranges  0x00005708       0x10 c:/program files (x86)/microchip/xc32/v1.42/bin/bin/../../lib/gcc/pic32mx/4.8.3/../../../../pic32mx/lib\libpic32.a(_mon_putc.o)
 .debug_ranges  0x00005718       0xd8 c:/program files (x86)/microchip/xc32/v1.42/bin/bin/../../lib/gcc/pic32mx/4.8.3\libgcc.a(_umoddi3.o)

.gnu.attributes
                0x00000000       0x10
 *(.gnu.attributes)
 .gnu.attributes
                0x00000000       0x10 build/Diplomamunka/production/_ext/1774832663/drv_i2c_static_buffer_model.o
 .gnu.attributes
                0x00000010       0x10 build/Diplomamunka/production/_ext/1774832663/drv_i2c_mapping.o
 .gnu.attributes
                0x00000020       0x10 build/Diplomamunka/production/_ext/793758023/drv_ic_static.o
 .gnu.attributes
                0x00000030       0x10 build/Diplomamunka/production/_ext/965532929/drv_oc_static.o
 .gnu.attributes
                0x00000040       0x10 build/Diplomamunka/production/_ext/1892475994/sys_clk_static.o
 .gnu.attributes
                0x00000050       0x10 build/Diplomamunka/production/_ext/904121046/sys_ports_static.o
 .gnu.attributes
                0x00000060       0x10 build/Diplomamunka/production/_ext/1720293489/system_init.o
 .gnu.attributes
                0x00000070       0x10 build/Diplomamunka/production/_ext/1720293489/system_interrupt.o
 .gnu.attributes
                0x00000080       0x10 build/Diplomamunka/production/_ext/1720293489/system_exceptions.o
 .gnu.attributes
                0x00000090       0x10 build/Diplomamunka/production/_ext/1720293489/system_tasks.o
 .gnu.attributes
                0x000000a0       0x10 build/Diplomamunka/production/_ext/1360937237/app.o
 .gnu.attributes
                0x000000b0       0x10 build/Diplomamunka/production/_ext/1360937237/main.o
 .gnu.attributes
                0x000000c0       0x10 build/Diplomamunka/production/_ext/1360937237/TCPServer.o
 .gnu.attributes
                0x000000d0       0x10 build/Diplomamunka/production/_ext/1360937237/fan.o
 .gnu.attributes
                0x000000e0       0x10 build/Diplomamunka/production/_ext/1360937237/led.o
 .gnu.attributes
                0x000000f0       0x10 build/Diplomamunka/production/_ext/1837361561/bsp_sys_init.o
 .gnu.attributes
                0x00000100       0x10 build/Diplomamunka/production/_ext/1606841020/adler32.o
 .gnu.attributes
                0x00000110       0x10 build/Diplomamunka/production/_ext/1606841020/compress.o
 .gnu.attributes
                0x00000120       0x10 build/Diplomamunka/production/_ext/1606841020/crc32.o
 .gnu.attributes
                0x00000130       0x10 build/Diplomamunka/production/_ext/1606841020/deflate.o
 .gnu.attributes
                0x00000140       0x10 build/Diplomamunka/production/_ext/1606841020/infback.o
 .gnu.attributes
                0x00000150       0x10 build/Diplomamunka/production/_ext/1606841020/inffast.o
 .gnu.attributes
                0x00000160       0x10 build/Diplomamunka/production/_ext/1606841020/inflate.o
 .gnu.attributes
                0x00000170       0x10 build/Diplomamunka/production/_ext/1606841020/inftrees.o
 .gnu.attributes
                0x00000180       0x10 build/Diplomamunka/production/_ext/1606841020/trees.o
 .gnu.attributes
                0x00000190       0x10 build/Diplomamunka/production/_ext/1606841020/uncompr.o
 .gnu.attributes
                0x000001a0       0x10 build/Diplomamunka/production/_ext/1606841020/zutil.o
 .gnu.attributes
                0x000001b0       0x10 build/Diplomamunka/production/_ext/1886890887/ecc.o
 .gnu.attributes
                0x000001c0       0x10 build/Diplomamunka/production/_ext/1886890887/ssl-dummy.o
 .gnu.attributes
                0x000001d0       0x10 build/Diplomamunka/production/_ext/1886890887/arc4.o
 .gnu.attributes
                0x000001e0       0x10 build/Diplomamunka/production/_ext/1886890887/pwdbased.o
 .gnu.attributes
                0x000001f0       0x10 build/Diplomamunka/production/_ext/1886890887/tfm.o
 .gnu.attributes
                0x00000200       0x10 build/Diplomamunka/production/_ext/1886890887/asn.o
 .gnu.attributes
                0x00000210       0x10 build/Diplomamunka/production/_ext/1886890887/des3.o
 .gnu.attributes
                0x00000220       0x10 build/Diplomamunka/production/_ext/1886890887/rsa.o
 .gnu.attributes
                0x00000230       0x10 build/Diplomamunka/production/_ext/1886890887/aes.o
 .gnu.attributes
                0x00000240       0x10 build/Diplomamunka/production/_ext/1886890887/md5.o
 .gnu.attributes
                0x00000250       0x10 build/Diplomamunka/production/_ext/1886890887/sha.o
 .gnu.attributes
                0x00000260       0x10 build/Diplomamunka/production/_ext/1886890887/sha256.o
 .gnu.attributes
                0x00000270       0x10 build/Diplomamunka/production/_ext/1886890887/sha512.o
 .gnu.attributes
                0x00000280       0x10 build/Diplomamunka/production/_ext/1886890887/hmac.o
 .gnu.attributes
                0x00000290       0x10 build/Diplomamunka/production/_ext/1886890887/hash.o
 .gnu.attributes
                0x000002a0       0x10 build/Diplomamunka/production/_ext/1886890887/compress.o
 .gnu.attributes
                0x000002b0       0x10 build/Diplomamunka/production/_ext/1886890887/random.o
 .gnu.attributes
                0x000002c0       0x10 build/Diplomamunka/production/_ext/1886890887/crypto.o
 .gnu.attributes
                0x000002d0       0x10 build/Diplomamunka/production/_ext/1886890887/coding.o
 .gnu.attributes
                0x000002e0       0x10 build/Diplomamunka/production/_ext/1886890887/error.o
 .gnu.attributes
                0x000002f0       0x10 build/Diplomamunka/production/_ext/1886890887/integer.o
 .gnu.attributes
                0x00000300       0x10 build/Diplomamunka/production/_ext/1886890887/logging.o
 .gnu.attributes
                0x00000310       0x10 build/Diplomamunka/production/_ext/1886890887/memory.o
 .gnu.attributes
                0x00000320       0x10 build/Diplomamunka/production/_ext/1886890887/misc.o
 .gnu.attributes
                0x00000330       0x10 build/Diplomamunka/production/_ext/1886890887/port.o
 .gnu.attributes
                0x00000340       0x10 build/Diplomamunka/production/_ext/1908841681/drv_ethmac.o
 .gnu.attributes
                0x00000350       0x10 build/Diplomamunka/production/_ext/1908841681/drv_ethmac_lib.o
 .gnu.attributes
                0x00000360       0x10 build/Diplomamunka/production/_ext/732687875/drv_ethphy.o
 .gnu.attributes
                0x00000370       0x10 build/Diplomamunka/production/_ext/732687875/drv_extphy_dp83848.o
 .gnu.attributes
                0x00000380       0x10 build/Diplomamunka/production/_ext/185269848/drv_tmr.o
 .gnu.attributes
                0x00000390       0x10 build/Diplomamunka/production/_ext/1271179505/sys_devcon.o
 .gnu.attributes
                0x000003a0       0x10 build/Diplomamunka/production/_ext/1271179505/sys_devcon_pic32mx.o
 .gnu.attributes
                0x000003b0       0x10 build/Diplomamunka/production/_ext/122796885/sys_int_pic32.o
 .gnu.attributes
                0x000003c0       0x10 build/Diplomamunka/production/_ext/77319752/sys_ports.o
 .gnu.attributes
                0x000003d0       0x10 build/Diplomamunka/production/_ext/1283840359/sys_random.o
 .gnu.attributes
                0x000003e0       0x10 build/Diplomamunka/production/_ext/1264926591/sys_tmr.o
 .gnu.attributes
                0x000003f0       0x10 build/Diplomamunka/production/_ext/1136935090/helpers.o
 .gnu.attributes
                0x00000400       0x10 build/Diplomamunka/production/_ext/1136935090/lfsr.o
 .gnu.attributes
                0x00000410       0x10 build/Diplomamunka/production/_ext/1408260596/tcp.o
 .gnu.attributes
                0x00000420       0x10 build/Diplomamunka/production/_ext/1408260596/udp.o
 .gnu.attributes
                0x00000430       0x10 build/Diplomamunka/production/_ext/1408260596/tcpip_heap_alloc.o
 .gnu.attributes
                0x00000440       0x10 build/Diplomamunka/production/_ext/1408260596/tcpip_heap_internal.o
 .gnu.attributes
                0x00000450       0x10 build/Diplomamunka/production/_ext/1408260596/arp.o
 .gnu.attributes
                0x00000460       0x10 build/Diplomamunka/production/_ext/1408260596/dhcp.o
 .gnu.attributes
                0x00000470       0x10 build/Diplomamunka/production/_ext/1408260596/dns.o
 .gnu.attributes
                0x00000480       0x10 build/Diplomamunka/production/_ext/1408260596/icmp.o
 .gnu.attributes
                0x00000490       0x10 build/Diplomamunka/production/_ext/1408260596/tcpip_announce.o
 .gnu.attributes
                0x000004a0       0x10 build/Diplomamunka/production/_ext/1408260596/hash_fnv.o
 .gnu.attributes
                0x000004b0       0x10 build/Diplomamunka/production/_ext/1408260596/oahash.o
 .gnu.attributes
                0x000004c0       0x10 build/Diplomamunka/production/_ext/1408260596/tcpip_helpers.o
 .gnu.attributes
                0x000004d0       0x10 build/Diplomamunka/production/_ext/1408260596/tcpip_manager.o
 .gnu.attributes
                0x000004e0       0x10 build/Diplomamunka/production/_ext/1408260596/tcpip_notify.o
 .gnu.attributes
                0x000004f0       0x10 build/Diplomamunka/production/_ext/1408260596/tcpip_packet.o
 .gnu.attributes
                0x00000500       0x10 build/Diplomamunka/production/_ext/1408260596/ipv4.o
 .gnu.attributes
                0x00000510       0x10 ..\..\..\..\bin\framework\peripheral\PIC32MX795F512L_peripherals.a(plib_eth_lib.o)
 .gnu.attributes
                0x00000520       0x10 c:/program files (x86)/microchip/xc32/v1.42/bin/bin/../../lib/gcc/pic32mx/4.8.3\libgcc.a(_udivdi3.o)
 .gnu.attributes
                0x00000530       0x10 c:/program files (x86)/microchip/xc32/v1.42/bin/bin/../../lib/gcc/pic32mx/4.8.3\libgcc.a(floatunsisf.o)
 .gnu.attributes
                0x00000540       0x10 c:/program files (x86)/microchip/xc32/v1.42/bin/bin/../../lib/gcc/pic32mx/4.8.3/../../../../pic32mx/lib\libpic32.a(default-bootstrap-exception-handler.o)
 .gnu.attributes
                0x00000550       0x10 c:/program files (x86)/microchip/xc32/v1.42/bin/bin/../../lib/gcc/pic32mx/4.8.3/../../../../pic32mx/lib\libpic32.a(default-on-reset.o)
 .gnu.attributes
                0x00000560       0x10 c:/program files (x86)/microchip/xc32/v1.42/bin/bin/../../lib/gcc/pic32mx/4.8.3/../../../../pic32mx/lib\libpic32.a(default-on-bootstrap.o)
 .gnu.attributes
                0x00000570       0x10 c:/program files (x86)/microchip/xc32/v1.42/bin/bin/../../lib/gcc/pic32mx/4.8.3/../../../../pic32mx/lib\libpic32.a(defaultinterrupt.o)
 .gnu.attributes
                0x00000580       0x10 c:/program files (x86)/microchip/xc32/v1.42/bin/bin/../../lib/gcc/pic32mx/4.8.3/../../../../pic32mx/lib\libc.a(calloc.o)
 .gnu.attributes
                0x00000590       0x10 c:/program files (x86)/microchip/xc32/v1.42/bin/bin/../../lib/gcc/pic32mx/4.8.3/../../../../pic32mx/lib\libc.a(ctime.o)
 .gnu.attributes
                0x000005a0       0x10 c:/program files (x86)/microchip/xc32/v1.42/bin/bin/../../lib/gcc/pic32mx/4.8.3/../../../../pic32mx/lib\libc.a(ctype.o)
 .gnu.attributes
                0x000005b0       0x10 c:/program files (x86)/microchip/xc32/v1.42/bin/bin/../../lib/gcc/pic32mx/4.8.3/../../../../pic32mx/lib\libc.a(ctypef.o)
 .gnu.attributes
                0x000005c0       0x10 c:/program files (x86)/microchip/xc32/v1.42/bin/bin/../../lib/gcc/pic32mx/4.8.3/../../../../pic32mx/lib\libc.a(malloc.o)
 .gnu.attributes
                0x000005d0       0x10 c:/program files (x86)/microchip/xc32/v1.42/bin/bin/../../lib/gcc/pic32mx/4.8.3/../../../../pic32mx/lib\libc.a(memmove.o)
 .gnu.attributes
                0x000005e0       0x10 c:/program files (x86)/microchip/xc32/v1.42/bin/bin/../../lib/gcc/pic32mx/4.8.3/../../../../pic32mx/lib\libc.a(rand.o)
 .gnu.attributes
                0x000005f0       0x10 c:/program files (x86)/microchip/xc32/v1.42/bin/bin/../../lib/gcc/pic32mx/4.8.3/../../../../pic32mx/lib\libc.a(strcat.o)
 .gnu.attributes
                0x00000600       0x10 c:/program files (x86)/microchip/xc32/v1.42/bin/bin/../../lib/gcc/pic32mx/4.8.3/../../../../pic32mx/lib\libc.a(strncpy.o)
 .gnu.attributes
                0x00000610       0x10 c:/program files (x86)/microchip/xc32/v1.42/bin/bin/../../lib/gcc/pic32mx/4.8.3/../../../../pic32mx/lib\libc.a(strstr.o)
 .gnu.attributes
                0x00000620       0x10 c:/program files (x86)/microchip/xc32/v1.42/bin/bin/../../lib/gcc/pic32mx/4.8.3/../../../../pic32mx/lib\libc.a(strtol.o)
 .gnu.attributes
                0x00000630       0x10 c:/program files (x86)/microchip/xc32/v1.42/bin/bin/../../lib/gcc/pic32mx/4.8.3/../../../../pic32mx/lib\libc.a(time.o)
 .gnu.attributes
                0x00000640       0x10 c:/program files (x86)/microchip/xc32/v1.42/bin/bin/../../lib/gcc/pic32mx/4.8.3/../../../../pic32mx/lib\libc.a(sprintf_cdnopuxX.eo)
 .gnu.attributes
                0x00000650       0x10 c:/program files (x86)/microchip/xc32/v1.42/bin/bin/../../lib/gcc/pic32mx/4.8.3/../../../../pic32mx/lib\libc.a(errno.o)
 .gnu.attributes
                0x00000660       0x10 c:/program files (x86)/microchip/xc32/v1.42/bin/bin/../../lib/gcc/pic32mx/4.8.3/../../../../pic32mx/lib\libc.a(strchr.o)
 .gnu.attributes
                0x00000670       0x10 c:/program files (x86)/microchip/xc32/v1.42/bin/bin/../../lib/gcc/pic32mx/4.8.3/../../../../pic32mx/lib\libc.a(strncmp.o)
 .gnu.attributes
                0x00000680       0x10 c:/program files (x86)/microchip/xc32/v1.42/bin/bin/../../lib/gcc/pic32mx/4.8.3/../../../../pic32mx/lib\libc.a(doprnt_cdnopuxX.eo)
 .gnu.attributes
                0x00000690       0x10 c:/program files (x86)/microchip/xc32/v1.42/bin/bin/../../lib/gcc/pic32mx/4.8.3/../../../../pic32mx/lib\libc.a(_fputc_simple.o)
 .gnu.attributes
                0x000006a0       0x10 c:/program files (x86)/microchip/xc32/v1.42/bin/bin/../../lib/gcc/pic32mx/4.8.3/../../../../pic32mx/lib\libc.a(_iob.o)
 .gnu.attributes
                0x000006b0       0x10 c:/program files (x86)/microchip/xc32/v1.42/bin/bin/../../lib/gcc/pic32mx/4.8.3/../../../../pic32mx/lib\libc.a(_flsbuf_simple.o)
 .gnu.attributes
                0x000006c0       0x10 c:/program files (x86)/microchip/xc32/v1.42/bin/bin/../../lib/gcc/pic32mx/4.8.3/../../../../pic32mx/lib\libpic32.a(sbrk.o)
 .gnu.attributes
                0x000006d0       0x10 c:/program files (x86)/microchip/xc32/v1.42/bin/bin/../../lib/gcc/pic32mx/4.8.3/../../../../pic32mx/lib\libpic32.a(write.o)
 .gnu.attributes
                0x000006e0       0x10 c:/program files (x86)/microchip/xc32/v1.42/bin/bin/../../lib/gcc/pic32mx/4.8.3/../../../../pic32mx/lib\libpic32.a(_mon_putc.o)
 .gnu.attributes
                0x000006f0       0x10 c:/program files (x86)/microchip/xc32/v1.42/bin/bin/../../lib/gcc/pic32mx/4.8.3/../../../../pic32mx/lib\libpic32.a(xc32_uart.o)
 .gnu.attributes
                0x00000700       0x10 c:/program files (x86)/microchip/xc32/v1.42/bin/bin/../../lib/gcc/pic32mx/4.8.3\libgcc.a(_umoddi3.o)
LOAD c:/program files (x86)/microchip/xc32/v1.42/bin/bin/../../lib/gcc/pic32mx/4.8.3\libgcc.a
START GROUP
LOAD c:/program files (x86)/microchip/xc32/v1.42/bin/bin/../../lib/gcc/pic32mx/4.8.3/../../../../pic32mx/lib\libpic32.a
LOAD c:/program files (x86)/microchip/xc32/v1.42/bin/bin/../../lib/gcc/pic32mx/4.8.3/../../../../pic32mx/lib\libdebug.a
LOAD c:/program files (x86)/microchip/xc32/v1.42/bin/bin/../../lib/gcc/pic32mx/4.8.3/../../../../pic32mx/lib\libpic32.a
LOAD c:/program files (x86)/microchip/xc32/v1.42/bin/bin/../../lib/gcc/pic32mx/4.8.3/../../../../pic32mx/lib\libm.a
LOAD c:/program files (x86)/microchip/xc32/v1.42/bin/bin/../../lib/gcc/pic32mx/4.8.3/../../../../pic32mx/lib\libe.a
LOAD c:/program files (x86)/microchip/xc32/v1.42/bin/bin/../../lib/gcc/pic32mx/4.8.3/../../../../pic32mx/lib\libdsp.a
LOAD c:/program files (x86)/microchip/xc32/v1.42/bin/bin/../../lib/gcc/pic32mx/4.8.3\libgcc.a
LOAD c:/program files (x86)/microchip/xc32/v1.42/bin/bin/../../lib/gcc/pic32mx/4.8.3/../../../../pic32mx/lib\libc.a
LOAD c:/program files (x86)/microchip/xc32/v1.42/bin/bin/../../lib/gcc/pic32mx/4.8.3/../../../../pic32mx/lib\libc.a
LOAD c:/program files (x86)/microchip/xc32/v1.42/bin/bin/../../lib/gcc/pic32mx/4.8.3/../../../../pic32mx/lib\libpic32.a
END GROUP
LOAD c:/program files (x86)/microchip/xc32/v1.42/bin/bin/../../lib/gcc/pic32mx/4.8.3\libgcc.a
OUTPUT(dist/Diplomamunka/production/Diplomamunka.X.production.elf elf32-tradlittlemips)
LOAD stack
LOAD data_init

.reginfo        0x00000000       0x18
 .reginfo       0x00000000       0x18 c:/program files (x86)/microchip/xc32/v1.42/bin/bin/../../lib/gcc/pic32mx/4.8.3/../../../../pic32mx/lib/./proc/32MX795F512L/crt0_mips32r2.o

.stack          0xa000bb28      0x400
 .stack         0xa000bb28      0x400 stack

.bss            0xa000036c      0x408
 .bss           0xa000036c      0x2d4 build/Diplomamunka/production/_ext/1408260596/tcpip_manager.o
 .bss           0xa0000640      0x134 build/Diplomamunka/production/_ext/1774832663/drv_i2c_static_buffer_model.o

.data           0xa0000774      0x108
 .data          0xa0000774      0x108 build/Diplomamunka/production/_ext/1908841681/drv_ethmac.o

.bss            0xa000087c      0x284
 .bss           0xa000087c       0xb4 build/Diplomamunka/production/_ext/185269848/drv_tmr.o
 .bss           0xa0000930       0x90 build/Diplomamunka/production/_ext/1264926591/sys_tmr.o
 .bss           0xa00009c0       0x44 build/Diplomamunka/production/_ext/1408260596/arp.o
 .bss           0xa0000a04       0x44 c:/program files (x86)/microchip/xc32/v1.42/bin/bin/../../lib/gcc/pic32mx/4.8.3/../../../../pic32mx/lib\libc.a(_iob.o)
                0xa0000a04                _sobuf
                0xa0000a24                _sibuf
                0xa0000a44                _outdone
 .bss           0xa0000a48       0x2c build/Diplomamunka/production/_ext/1360937237/led.o
 .bss           0xa0000a74       0x28 build/Diplomamunka/production/_ext/1408260596/dns.o
 .bss           0xa0000a9c       0x24 c:/program files (x86)/microchip/xc32/v1.42/bin/bin/../../lib/gcc/pic32mx/4.8.3/../../../../pic32mx/lib\libpic32.a(sbrk.o)
                0xa0000ab8                _maxbrk
                0xa0000abc                _minbrk
 .bss           0xa0000ac0       0x20 build/Diplomamunka/production/_ext/1408260596/ipv4.o
 .bss           0xa0000ae0       0x20 c:/program files (x86)/microchip/xc32/v1.42/bin/bin/../../lib/gcc/pic32mx/4.8.3/../../../../pic32mx/lib\libc.a(malloc.o)
                0xa0000ae0                __allocx
                0xa0000ae8                __alloct
                0xa0000aec                __allocp
                0xa0000af0                __allocs

.data           0xa0000b00       0x1c
 .data          0xa0000b00       0x1c build/Diplomamunka/production/_ext/1720293489/system_init.o
                0xa0000b00                tcpipHeapConfig

.bss            0xa0000b1c       0x38
 .bss           0xa0000b1c       0x18 build/Diplomamunka/production/_ext/1283840359/sys_random.o
 .bss           0xa0000b34       0x10 build/Diplomamunka/production/_ext/1408260596/dhcp.o
 .bss           0xa0000b44       0x10 build/Diplomamunka/production/_ext/1408260596/icmp.o

.bss            0xa0000b58       0x10
 .bss           0xa0000b58       0x10 c:/program files (x86)/microchip/xc32/v1.42/bin/bin/../../lib/gcc/pic32mx/4.8.3/../../../../pic32mx/lib\libc.a(rand.o)

.bss.errno      0xa0000b54        0x4
 .bss.errno     0xa0000b54        0x4 c:/program files (x86)/microchip/xc32/v1.42/bin/bin/../../lib/gcc/pic32mx/4.8.3/../../../../pic32mx/lib\libc.a(errno.o)
                0xa0000b54                errno

._debug_exception
                0xbfc00480       0x2c
 ._debug_exception
                0xbfc00480       0x2c c:/program files (x86)/microchip/xc32/v1.42/bin/bin/../../lib/gcc/pic32mx/4.8.3/../../../../pic32mx/lib\debug-exception-return.o
                0xbfc00480                __DbgExecReturn

.text.TCPIP_TCP_Task
                0x9d000000     0x14bc
 .text.TCPIP_TCP_Task
                0x9d000000     0x14bc build/Diplomamunka/production/_ext/1408260596/tcp.o
                0x9d000000                TCPIP_TCP_Task

.text._vfprintf_cdnopuxX
                0x9d0014bc      0xad4
 .text._vfprintf_cdnopuxX
                0x9d0014bc      0xad4 c:/program files (x86)/microchip/xc32/v1.42/bin/bin/../../lib/gcc/pic32mx/4.8.3/../../../../pic32mx/lib\libc.a(doprnt_cdnopuxX.eo)
                0x9d0014bc                _vfprintf_cdnopuxX

.text.TCPIP_DHCP_Task
                0x9d001f90      0x874
 .text.TCPIP_DHCP_Task
                0x9d001f90      0x874 build/Diplomamunka/production/_ext/1408260596/dhcp.o
                0x9d001f90                TCPIP_DHCP_Task

.text.TCPIP_STACK_Task
                0x9d002804      0x85c
 .text.TCPIP_STACK_Task
                0x9d002804      0x85c build/Diplomamunka/production/_ext/1408260596/tcpip_manager.o
                0x9d002804                TCPIP_STACK_Task

.text._TcpSend  0x9d003060      0x824
 .text._TcpSend
                0x9d003060      0x824 build/Diplomamunka/production/_ext/1408260596/tcp.o

.text.DRV_I2C0_Tasks
                0x9d003884      0x7d4
 .text.DRV_I2C0_Tasks
                0x9d003884      0x7d4 build/Diplomamunka/production/_ext/1774832663/drv_i2c_static_buffer_model.o
                0x9d003884                DRV_I2C0_Tasks

.text.TCPIP_TCP_FifoSizeAdjust
                0x9d004058      0x4cc
 .text.TCPIP_TCP_FifoSizeAdjust
                0x9d004058      0x4cc build/Diplomamunka/production/_ext/1408260596/tcp.o
                0x9d004058                TCPIP_TCP_FifoSizeAdjust

.text.DRV_ETHMAC_PIC32MACInitialize
                0x9d004524      0x4b8
 .text.DRV_ETHMAC_PIC32MACInitialize
                0x9d004524      0x4b8 build/Diplomamunka/production/_ext/1908841681/drv_ethmac.o
                0x9d004524                DRV_ETHMAC_PIC32MACInitialize

.text.TCPIP_ARP_Task
                0x9d0049dc      0x468
 .text.TCPIP_ARP_Task
                0x9d0049dc      0x468 build/Diplomamunka/production/_ext/1408260596/arp.o
                0x9d0049dc                TCPIP_ARP_Task

.text           0x9d004e44      0x8bc
 .text          0x9d004e44      0x464 c:/program files (x86)/microchip/xc32/v1.42/bin/bin/../../lib/gcc/pic32mx/4.8.3\libgcc.a(_umoddi3.o)
                0x9d004e44                __umoddi3
 .text          0x9d0052a8      0x458 c:/program files (x86)/microchip/xc32/v1.42/bin/bin/../../lib/gcc/pic32mx/4.8.3\libgcc.a(_udivdi3.o)
                0x9d0052a8                __udivdi3

.text.TCPIP_ANNOUNCE_Task
                0x9d005700      0x3e0
 .text.TCPIP_ANNOUNCE_Task
                0x9d005700      0x3e0 build/Diplomamunka/production/_ext/1408260596/tcpip_announce.o
                0x9d005700                TCPIP_ANNOUNCE_Task

.rodata         0x9d005ae0      0x3d8
 .rodata        0x9d005ae0      0x3d8 build/Diplomamunka/production/_ext/1886890887/asn.o

.text.TCP_Server
                0x9d005eb8      0x3d4
 .text.TCP_Server
                0x9d005eb8      0x3d4 build/Diplomamunka/production/_ext/1360937237/TCPServer.o
                0x9d005eb8                TCP_Server

.text._DNS_Send_Query
                0x9d00628c      0x3c0
 .text._DNS_Send_Query
                0x9d00628c      0x3c0 build/Diplomamunka/production/_ext/1408260596/dns.o

.dinit          0x9d00664c      0x3b0
 .dinit         0x9d00664c      0x3b0 data_init

.text.TCPIP_TCP_ArrayFind
                0x9d0069fc      0x3a0
 .text.TCPIP_TCP_ArrayFind
                0x9d0069fc      0x3a0 build/Diplomamunka/production/_ext/1408260596/tcp.o
                0x9d0069fc                TCPIP_TCP_ArrayFind

.text.parseTcpMessage
                0x9d006d9c      0x39c
 .text.parseTcpMessage
                0x9d006d9c      0x39c build/Diplomamunka/production/_ext/1360937237/app.o
                0x9d006d9c                parseTcpMessage

.text.TCPIP_DNS_ClientInitialize
                0x9d007138      0x37c
 .text.TCPIP_DNS_ClientInitialize
                0x9d007138      0x37c build/Diplomamunka/production/_ext/1408260596/dns.o
                0x9d007138                TCPIP_DNS_ClientInitialize

.text.TCPIP_ARP_Initialize
                0x9d0074b4      0x36c
 .text.TCPIP_ARP_Initialize
                0x9d0074b4      0x36c build/Diplomamunka/production/_ext/1408260596/arp.o
                0x9d0074b4                TCPIP_ARP_Initialize

.text._TCP_Open
                0x9d007820      0x364
 .text._TCP_Open
                0x9d007820      0x364 build/Diplomamunka/production/_ext/1408260596/tcp.o

.text.SYS_TMR_Tasks
                0x9d007b84      0x304
 .text.SYS_TMR_Tasks
                0x9d007b84      0x304 build/Diplomamunka/production/_ext/1264926591/sys_tmr.o
                0x9d007b84                SYS_TMR_Tasks

.text.TCPIP_UDP_Task
                0x9d007e88      0x304
 .text.TCPIP_UDP_Task
                0x9d007e88      0x304 build/Diplomamunka/production/_ext/1408260596/udp.o
                0x9d007e88                TCPIP_UDP_Task

.text.ledBrightnessControl
                0x9d00818c      0x300
 .text.ledBrightnessControl
                0x9d00818c      0x300 build/Diplomamunka/production/_ext/1360937237/led.o
                0x9d00818c                ledBrightnessControl

.text.TCPIP_STACK_BringNetUp
                0x9d00848c      0x2f8
 .text.TCPIP_STACK_BringNetUp
                0x9d00848c      0x2f8 build/Diplomamunka/production/_ext/1408260596/tcpip_manager.o

.text._DHCPSend
                0x9d008784      0x2ec
 .text._DHCPSend
                0x9d008784      0x2ec build/Diplomamunka/production/_ext/1408260596/dhcp.o

.text.TCPIP_IPV4_PacketTransmit
                0x9d008a70      0x2e4
 .text.TCPIP_IPV4_PacketTransmit
                0x9d008a70      0x2e4 build/Diplomamunka/production/_ext/1408260596/ipv4.o
                0x9d008a70                TCPIP_IPV4_PacketTransmit

.text.TCPIP_STACK_Initialize
                0x9d008d54      0x2d8
 .text.TCPIP_STACK_Initialize
                0x9d008d54      0x2d8 build/Diplomamunka/production/_ext/1408260596/tcpip_manager.o
                0x9d008d54                TCPIP_STACK_Initialize

.text._DNS_ProcessPacket
                0x9d00902c      0x2d0
 .text._DNS_ProcessPacket
                0x9d00902c      0x2d0 build/Diplomamunka/production/_ext/1408260596/dns.o

.text.TCPIP_UDP_Flush
                0x9d0092fc      0x2a8
 .text.TCPIP_UDP_Flush
                0x9d0092fc      0x2a8 build/Diplomamunka/production/_ext/1408260596/udp.o
                0x9d0092fc                TCPIP_UDP_Flush

.text.TCPIP_TCP_ArrayPut
                0x9d0095a4      0x2a0
 .text.TCPIP_TCP_ArrayPut
                0x9d0095a4      0x2a0 build/Diplomamunka/production/_ext/1408260596/tcp.o
                0x9d0095a4                TCPIP_TCP_ArrayPut

.text.malloc    0x9d009844      0x288
 .text.malloc   0x9d009844      0x288 c:/program files (x86)/microchip/xc32/v1.42/bin/bin/../../lib/gcc/pic32mx/4.8.3/../../../../pic32mx/lib\libc.a(malloc.o)
                0x9d009844                malloc

.text.fpsubadd  0x9d009acc      0x278
 .text.fpsubadd
                0x9d009acc      0x278 c:/program files (x86)/microchip/xc32/v1.42/bin/bin/../../lib/gcc/pic32mx/4.8.3/../../../../pic32mx/lib\libm.a(fp32subadd.o)
                0x9d009acc                __subsf3
                0x9d009acc                fpsub
                0x9d009ad4                __addsf3
                0x9d009ad4                fpadd

.text           0x9d009d44      0x25c
 .text          0x9d009d44      0x25c build/Diplomamunka/production/_ext/1408260596/tcpip_helper_c32.o
                0x9d009d44                TCPIP_Helper_htonl
                0x9d009d50                TCPIP_Helper_htons
                0x9d009d5c                TCPIP_Helper_htonll
                0x9d009d70                TCPIP_Helper_CalcIPChecksum

.text._DHCPReceive
                0x9d009fa0      0x254
 .text._DHCPReceive
                0x9d009fa0      0x254 build/Diplomamunka/production/_ext/1408260596/dhcp.o

.text.createNewTcpMessage
                0x9d00a1f4      0x244
 .text.createNewTcpMessage
                0x9d00a1f4      0x244 build/Diplomamunka/production/_ext/1360937237/app.o
                0x9d00a1f4                createNewTcpMessage

.text.DRV_ETHMAC_PIC32MACPacketRx
                0x9d00a438      0x244
 .text.DRV_ETHMAC_PIC32MACPacketRx
                0x9d00a438      0x244 build/Diplomamunka/production/_ext/1908841681/drv_ethmac.o
                0x9d00a438                DRV_ETHMAC_PIC32MACPacketRx

.text._DHCPOptionHostName
                0x9d00a67c      0x244
 .text._DHCPOptionHostName
                0x9d00a67c      0x244 build/Diplomamunka/production/_ext/1408260596/dhcp.o

.text.DRV_ETHMAC_LibRxBuffersAppend
                0x9d00a8c0      0x240
 .text.DRV_ETHMAC_LibRxBuffersAppend
                0x9d00a8c0      0x240 build/Diplomamunka/production/_ext/1908841681/drv_ethmac_lib.o
                0x9d00a8c0                DRV_ETHMAC_LibRxBuffersAppend

.text.TCPIP_ICMP_Task
                0x9d00ab00      0x240
 .text.TCPIP_ICMP_Task
                0x9d00ab00      0x240 build/Diplomamunka/production/_ext/1408260596/icmp.o
                0x9d00ab00                TCPIP_ICMP_Task

.text.TCPIP_IPV4_Task
                0x9d00ad40      0x23c
 .text.TCPIP_IPV4_Task
                0x9d00ad40      0x23c build/Diplomamunka/production/_ext/1408260596/ipv4.o
                0x9d00ad40                TCPIP_IPV4_Task

.text._DRV_TMR_ClockSourceSet
                0x9d00af7c      0x230
 .text._DRV_TMR_ClockSourceSet
                0x9d00af7c      0x230 build/Diplomamunka/production/_ext/185269848/drv_tmr.o

.text.fp32div   0x9d00b1ac      0x230
 .text.fp32div  0x9d00b1ac      0x230 c:/program files (x86)/microchip/xc32/v1.42/bin/bin/../../lib/gcc/pic32mx/4.8.3/../../../../pic32mx/lib\libm.a(fp32div.o)
                0x9d00b1ac                fpdiv
                0x9d00b1ac                __divsf3

.text._UDPOpen  0x9d00b3dc      0x224
 .text._UDPOpen
                0x9d00b3dc      0x224 build/Diplomamunka/production/_ext/1408260596/udp.o

.text.measureRevSpeed
                0x9d00b600      0x218
 .text.measureRevSpeed
                0x9d00b600      0x218 build/Diplomamunka/production/_ext/1360937237/fan.o
                0x9d00b600                measureRevSpeed

.text.DRV_TMR_Initialize
                0x9d00b818      0x210
 .text.DRV_TMR_Initialize
                0x9d00b818      0x210 build/Diplomamunka/production/_ext/185269848/drv_tmr.o
                0x9d00b818                DRV_TMR_Initialize

.text._TCPIP_HEAP_Free
                0x9d00ba28      0x210
 .text._TCPIP_HEAP_Free
                0x9d00ba28      0x210 build/Diplomamunka/production/_ext/1408260596/tcpip_heap_internal.o

.text._DRV_PHY_SMITransferDo
                0x9d00bc38      0x1f8
 .text._DRV_PHY_SMITransferDo
                0x9d00bc38      0x1f8 build/Diplomamunka/production/_ext/732687875/drv_ethphy.o

.text._DRV_ETHPHY_SetupPhaseDetect
                0x9d00be30      0x1f4
 .text._DRV_ETHPHY_SetupPhaseDetect
                0x9d00be30      0x1f4 build/Diplomamunka/production/_ext/732687875/drv_ethphy.o

.text.DRV_TMR_AlarmRegister
                0x9d00c024      0x1e8
 .text.DRV_TMR_AlarmRegister
                0x9d00c024      0x1e8 build/Diplomamunka/production/_ext/185269848/drv_tmr.o
                0x9d00c024                DRV_TMR_AlarmRegister

.text._LoadNetworkConfig
                0x9d00c20c      0x1e8
 .text._LoadNetworkConfig
                0x9d00c20c      0x1e8 build/Diplomamunka/production/_ext/1408260596/tcpip_manager.o

.text.APP_Tasks
                0x9d00c3f4      0x1e4
 .text.APP_Tasks
                0x9d00c3f4      0x1e4 build/Diplomamunka/production/_ext/1360937237/app.o
                0x9d00c3f4                APP_Tasks

.text.TCPIP_UDP_Bind
                0x9d00c5d8      0x1e0
 .text.TCPIP_UDP_Bind
                0x9d00c5d8      0x1e0 build/Diplomamunka/production/_ext/1408260596/udp.o
                0x9d00c5d8                TCPIP_UDP_Bind

.text._DNS_RESPONSE_HashEntryUpdate
                0x9d00c7b8      0x1d8
 .text._DNS_RESPONSE_HashEntryUpdate
                0x9d00c7b8      0x1d8 build/Diplomamunka/production/_ext/1408260596/dns.o

.text.DRV_ETHMAC_PIC32MACPacketTx
                0x9d00c990      0x1d4
 .text.DRV_ETHMAC_PIC32MACPacketTx
                0x9d00c990      0x1d4 build/Diplomamunka/production/_ext/1908841681/drv_ethmac.o
                0x9d00c990                DRV_ETHMAC_PIC32MACPacketTx

.text.strtoul   0x9d00cb64      0x1d4
 .text.strtoul  0x9d00cb64      0x1d4 c:/program files (x86)/microchip/xc32/v1.42/bin/bin/../../lib/gcc/pic32mx/4.8.3/../../../../pic32mx/lib\libc.a(strtol.o)
                0x9d00cb64                strtoul

.text.TCPIP_Helper_StringToIPAddress
                0x9d00cd38      0x1cc
 .text.TCPIP_Helper_StringToIPAddress
                0x9d00cd38      0x1cc build/Diplomamunka/production/_ext/1408260596/tcpip_helpers.o
                0x9d00cd38                TCPIP_Helper_StringToIPAddress

.text.TCPIP_ARP_EntryRemoveNet
                0x9d00cf04      0x1c8
 .text.TCPIP_ARP_EntryRemoveNet
                0x9d00cf04      0x1c8 build/Diplomamunka/production/_ext/1408260596/arp.o
                0x9d00cf04                TCPIP_ARP_EntryRemoveNet

.rodata         0x9d00d0cc      0x1c0
 .rodata        0x9d00d0cc      0x1c0 build/Diplomamunka/production/_ext/1720293489/system_init.o
                0x9d00d0cc                TCPIP_STACK_MODULE_CONFIG_TBL
                0x9d00d170                TCPIP_HOSTS_CONFIGURATION
                0x9d00d1a8                tcpipDNSClientInitData
                0x9d00d1c0                tcpipMACPIC32INTInitData
                0x9d00d1e4                tcpipICMPInitData
                0x9d00d1e4                tcpipDHCPInitData
                0x9d00d1f4                tcpipTCPInitData
                0x9d00d1fc                tcpipUDPInitData
                0x9d00d204                tcpipARPInitData
                0x9d00d204                tcpipAnnounceInitData
                0x9d00d22c                sysTmrInitData
                0x9d00d234                sysDevconInit
                0x9d00d238                drvTmr2InitData
                0x9d00d254                drvTmr1InitData
                0x9d00d270                drvTmr0InitData

.text._EthAckPacket
                0x9d00d28c      0x1bc
 .text._EthAckPacket
                0x9d00d28c      0x1bc build/Diplomamunka/production/_ext/1908841681/drv_ethmac_lib.o

.text.fp32mul   0x9d00d448      0x1bc
 .text.fp32mul  0x9d00d448      0x1bc c:/program files (x86)/microchip/xc32/v1.42/bin/bin/../../lib/gcc/pic32mx/4.8.3/../../../../pic32mx/lib\libm.a(fp32mul.o)
                0x9d00d448                __mulsf3
                0x9d00d448                fpmul

.text.SYS_Initialize
                0x9d00d604      0x1b4
 .text.SYS_Initialize
                0x9d00d604      0x1b4 build/Diplomamunka/production/_ext/1720293489/system_init.o
                0x9d00d604                SYS_Initialize

.text.TCPIP_DNS_ClientTask
                0x9d00d7b8      0x1b4
 .text.TCPIP_DNS_ClientTask
                0x9d00d7b8      0x1b4 build/Diplomamunka/production/_ext/1408260596/dns.o
                0x9d00d7b8                TCPIP_DNS_ClientTask

.text.TCPIP_UDP_ArrayGet
                0x9d00d96c      0x1b0
 .text.TCPIP_UDP_ArrayGet
                0x9d00d96c      0x1b0 build/Diplomamunka/production/_ext/1408260596/udp.o
                0x9d00d96c                TCPIP_UDP_ArrayGet

.text.TCPIP_UDP_OptionsSet
                0x9d00db1c      0x1b0
 .text.TCPIP_UDP_OptionsSet
                0x9d00db1c      0x1b0 build/Diplomamunka/production/_ext/1408260596/udp.o
                0x9d00db1c                TCPIP_UDP_OptionsSet

.text.TCPIP_HEAP_CreateInternal
                0x9d00dccc      0x1b0
 .text.TCPIP_HEAP_CreateInternal
                0x9d00dccc      0x1b0 build/Diplomamunka/production/_ext/1408260596/tcpip_heap_internal.o
                0x9d00dccc                TCPIP_HEAP_CreateInternal

.text._DRV_ETHMAC_AddRxBuffers
                0x9d00de7c      0x1a8
 .text._DRV_ETHMAC_AddRxBuffers
                0x9d00de7c      0x1a8 build/Diplomamunka/production/_ext/1908841681/drv_ethmac.o

.text.setDutyCycle
                0x9d00e024      0x1a4
 .text.setDutyCycle
                0x9d00e024      0x1a4 build/Diplomamunka/production/_ext/1360937237/fan.o
                0x9d00e024                setDutyCycle

.text.DRV_TMR_CounterFrequencyGet
                0x9d00e1c8      0x1a4
 .text.DRV_TMR_CounterFrequencyGet
                0x9d00e1c8      0x1a4 build/Diplomamunka/production/_ext/185269848/drv_tmr.o
                0x9d00e1c8                DRV_TMR_CounterFrequencyGet

.text.DRV_ETHMAC_LibRxGetPacket
                0x9d00e36c      0x19c
 .text.DRV_ETHMAC_LibRxGetPacket
                0x9d00e36c      0x19c build/Diplomamunka/production/_ext/1908841681/drv_ethmac_lib.o
                0x9d00e36c                DRV_ETHMAC_LibRxGetPacket

.text.TCPIP_TCP_OptionsSet
                0x9d00e508      0x19c
 .text.TCPIP_TCP_OptionsSet
                0x9d00e508      0x19c build/Diplomamunka/production/_ext/1408260596/tcp.o
                0x9d00e508                TCPIP_TCP_OptionsSet

.text.strtol    0x9d00e6a4      0x19c
 .text.strtol   0x9d00e6a4      0x19c c:/program files (x86)/microchip/xc32/v1.42/bin/bin/../../lib/gcc/pic32mx/4.8.3/../../../../pic32mx/lib\libc.a(strtol.o)
                0x9d00e6a4                strtol

.text.DRV_ETHMAC_LibMACOpen
                0x9d00e840      0x198
 .text.DRV_ETHMAC_LibMACOpen
                0x9d00e840      0x198 build/Diplomamunka/production/_ext/1908841681/drv_ethmac_lib.o
                0x9d00e840                DRV_ETHMAC_LibMACOpen

.text._ARPProbeAddress
                0x9d00e9d8      0x198
 .text._ARPProbeAddress
                0x9d00e9d8      0x198 build/Diplomamunka/production/_ext/1408260596/arp.o

.text._DRV_TMR_ClockPrescaleSet
                0x9d00eb70      0x194
 .text._DRV_TMR_ClockPrescaleSet
                0x9d00eb70      0x194 build/Diplomamunka/production/_ext/185269848/drv_tmr.o

.text._sbrk_init
                0x9d00ed04      0x194
 .text._sbrk_init
                0x9d00ed04      0x194 c:/program files (x86)/microchip/xc32/v1.42/bin/bin/../../lib/gcc/pic32mx/4.8.3/../../../../pic32mx/lib\libpic32.a(sbrk.o)
                0x9d00ed04                _sbrk_init

.text.TCPIP_TCP_ArrayGet
                0x9d00ee98      0x190
 .text.TCPIP_TCP_ArrayGet
                0x9d00ee98      0x190 build/Diplomamunka/production/_ext/1408260596/tcp.o
                0x9d00ee98                TCPIP_TCP_ArrayGet

.text.DRV_EXTPHY_MDIXConfigure
                0x9d00f028      0x18c
 .text.DRV_EXTPHY_MDIXConfigure
                0x9d00f028      0x18c build/Diplomamunka/production/_ext/732687875/drv_extphy_dp83848.o

.text.TCPIP_DHCP_Initialize
                0x9d00f1b4      0x18c
 .text.TCPIP_DHCP_Initialize
                0x9d00f1b4      0x18c build/Diplomamunka/production/_ext/1408260596/dhcp.o
                0x9d00f1b4                TCPIP_DHCP_Initialize

.text.DRV_ETHMAC_LibInit
                0x9d00f340      0x188
 .text.DRV_ETHMAC_LibInit
                0x9d00f340      0x188 build/Diplomamunka/production/_ext/1908841681/drv_ethmac_lib.o
                0x9d00f340                DRV_ETHMAC_LibInit

.text.DRV_ETHMAC_LibRxAcknowledgeBuffer
                0x9d00f4c8      0x188
 .text.DRV_ETHMAC_LibRxAcknowledgeBuffer
                0x9d00f4c8      0x188 build/Diplomamunka/production/_ext/1908841681/drv_ethmac_lib.o
                0x9d00f4c8                DRV_ETHMAC_LibRxAcknowledgeBuffer

.text.TCPIP_UDP_Deinitialize
                0x9d00f650      0x184
 .text.TCPIP_UDP_Deinitialize
                0x9d00f650      0x184 build/Diplomamunka/production/_ext/1408260596/udp.o
                0x9d00f650                TCPIP_UDP_Deinitialize

.text._DRV_ETHPHY_NegResultPhase_ANAD
                0x9d00f7d4      0x180
 .text._DRV_ETHPHY_NegResultPhase_ANAD
                0x9d00f7d4      0x180 build/Diplomamunka/production/_ext/732687875/drv_ethphy.o

.text.DRV_ETHMAC_PIC32MACEventMaskSet
                0x9d00f954      0x17c
 .text.DRV_ETHMAC_PIC32MACEventMaskSet
                0x9d00f954      0x17c build/Diplomamunka/production/_ext/1908841681/drv_ethmac.o
                0x9d00f954                DRV_ETHMAC_PIC32MACEventMaskSet

.text._SYS_TMR_ClientCreate
                0x9d00fad0      0x178
 .text._SYS_TMR_ClientCreate
                0x9d00fad0      0x178 build/Diplomamunka/production/_ext/1264926591/sys_tmr.o

.text.DRV_EXTPHY_MIIConfigure
                0x9d00fc48      0x170
 .text.DRV_EXTPHY_MIIConfigure
                0x9d00fc48      0x170 build/Diplomamunka/production/_ext/732687875/drv_extphy_dp83848.o

.text._TCPIP_HEAP_Malloc
                0x9d00fdb8      0x170
 .text._TCPIP_HEAP_Malloc
                0x9d00fdb8      0x170 build/Diplomamunka/production/_ext/1408260596/tcpip_heap_internal.o

.text._EthAppendBusyList
                0x9d00ff28      0x168
 .text._EthAppendBusyList
                0x9d00ff28      0x168 build/Diplomamunka/production/_ext/1908841681/drv_ethmac_lib.o

.text           0x9d010090      0x2d0
 .text          0x9d010090      0x168 c:/program files (x86)/microchip/xc32/v1.42/bin/bin/../../lib/gcc/pic32mx/4.8.3/../../../../pic32mx/lib\libpic32.a(memcpy.o)
                0x9d010090                memcpy
 .text          0x9d0101f8      0x168 c:/program files (x86)/microchip/xc32/v1.42/bin/bin/../../lib/gcc/pic32mx/4.8.3/../../../../pic32mx/lib\libpic32.a(strlen.o)
                0x9d0101f8                strlen

.text.TCPIP_IPV4_SelectSourceInterface
                0x9d010360      0x164
 .text.TCPIP_IPV4_SelectSourceInterface
                0x9d010360      0x164 build/Diplomamunka/production/_ext/1408260596/ipv4.o
                0x9d010360                TCPIP_IPV4_SelectSourceInterface

.text._DRV_ETHPHY_SetupPhaseReset
                0x9d0104c4      0x15c
 .text._DRV_ETHPHY_SetupPhaseReset
                0x9d0104c4      0x15c build/Diplomamunka/production/_ext/732687875/drv_ethphy.o

.text._ARPSendIfPkt
                0x9d010620      0x15c
 .text._ARPSendIfPkt
                0x9d010620      0x15c build/Diplomamunka/production/_ext/1408260596/arp.o

.text._DHCPProcessReceiveData
                0x9d01077c      0x15c
 .text._DHCPProcessReceiveData
                0x9d01077c      0x15c build/Diplomamunka/production/_ext/1408260596/dhcp.o

.text._MACDeinit
                0x9d0108d8      0x158
 .text._MACDeinit
                0x9d0108d8      0x158 build/Diplomamunka/production/_ext/1908841681/drv_ethmac.o

.text.DRV_ETHMAC_LibTxSendPacket
                0x9d010a30      0x158
 .text.DRV_ETHMAC_LibTxSendPacket
                0x9d010a30      0x158 build/Diplomamunka/production/_ext/1908841681/drv_ethmac_lib.o
                0x9d010a30                DRV_ETHMAC_LibTxSendPacket

.text._TcpDisconnect
                0x9d010b88      0x14c
 .text._TcpDisconnect
                0x9d010b88      0x14c build/Diplomamunka/production/_ext/1408260596/tcp.o

.text._TcpCloseSocket
                0x9d010cd4      0x148
 .text._TcpCloseSocket
                0x9d010cd4      0x148 build/Diplomamunka/production/_ext/1408260596/tcp.o

.text.TCPIP_UDP_OptionsGet
                0x9d010e1c      0x148
 .text.TCPIP_UDP_OptionsGet
                0x9d010e1c      0x148 build/Diplomamunka/production/_ext/1408260596/udp.o
                0x9d010e1c                TCPIP_UDP_OptionsGet

.text.TCPIP_UDP_OpenServerSkt
                0x9d010f64      0x144
 .text.TCPIP_UDP_OpenServerSkt
                0x9d010f64      0x144 build/Diplomamunka/production/_ext/1408260596/udp.o
                0x9d010f64                TCPIP_UDP_OpenServerSkt

.text.fputc     0x9d0110a8      0x144
 .text.fputc    0x9d0110a8      0x144 c:/program files (x86)/microchip/xc32/v1.42/bin/bin/../../lib/gcc/pic32mx/4.8.3/../../../../pic32mx/lib\libc.a(_fputc_simple.o)
                0x9d0110a8                fputc

.text._IntHandlerDrvICInstance0
                0x9d0111ec      0x140
 .text._IntHandlerDrvICInstance0
                0x9d0111ec      0x140 build/Diplomamunka/production/_ext/1720293489/system_interrupt.o
                0x9d0111ec                _IntHandlerDrvICInstance0

.text._IntHandlerDrvICInstance1
                0x9d01132c      0x140
 .text._IntHandlerDrvICInstance1
                0x9d01132c      0x140 build/Diplomamunka/production/_ext/1720293489/system_interrupt.o
                0x9d01132c                _IntHandlerDrvICInstance1

.text._DRV_ETHPHY_SetupPhaseIdle
                0x9d01146c      0x13c
 .text._DRV_ETHPHY_SetupPhaseIdle
                0x9d01146c      0x13c build/Diplomamunka/production/_ext/732687875/drv_ethphy.o

.text.IntHandlerDrvTmrInstance0
                0x9d0115a8      0x134
 .text.IntHandlerDrvTmrInstance0
                0x9d0115a8      0x134 build/Diplomamunka/production/_ext/1720293489/system_interrupt.o
                0x9d0115a8                IntHandlerDrvTmrInstance0

.text.IntHandlerDrvTmrInstance2
                0x9d0116dc      0x134
 .text.IntHandlerDrvTmrInstance2
                0x9d0116dc      0x134 build/Diplomamunka/production/_ext/1720293489/system_interrupt.o
                0x9d0116dc                IntHandlerDrvTmrInstance2

.text.DRV_ETHMAC_PIC32MACTasks
                0x9d011810      0x134
 .text.DRV_ETHMAC_PIC32MACTasks
                0x9d011810      0x134 build/Diplomamunka/production/_ext/1908841681/drv_ethmac.o
                0x9d011810                DRV_ETHMAC_PIC32MACTasks

.text.DRV_TMR_CounterValueGet
                0x9d011944      0x134
 .text.DRV_TMR_CounterValueGet
                0x9d011944      0x134 build/Diplomamunka/production/_ext/185269848/drv_tmr.o
                0x9d011944                DRV_TMR_CounterValueGet

.text.TCPIP_Helper_StringToMACAddress
                0x9d011a78      0x134
 .text.TCPIP_Helper_StringToMACAddress
                0x9d011a78      0x134 build/Diplomamunka/production/_ext/1408260596/tcpip_helpers.o
                0x9d011a78                TCPIP_Helper_StringToMACAddress

.text._IntHandlerDrvI2CInstance0
                0x9d011bac      0x130
 .text._IntHandlerDrvI2CInstance0
                0x9d011bac      0x130 build/Diplomamunka/production/_ext/1720293489/system_interrupt.o
                0x9d011bac                _IntHandlerDrvI2CInstance0

.text._IntHandler_ETHMAC
                0x9d011cdc      0x130
 .text._IntHandler_ETHMAC
                0x9d011cdc      0x130 build/Diplomamunka/production/_ext/1720293489/system_interrupt.o
                0x9d011cdc                _IntHandler_ETHMAC

.text.initialiseTachometer
                0x9d011e0c      0x130
 .text.initialiseTachometer
                0x9d011e0c      0x130 build/Diplomamunka/production/_ext/1360937237/fan.o
                0x9d011e0c                initialiseTachometer

.rodata         0x9d011f3c      0x130
 .rodata        0x9d011f3c      0x130 build/Diplomamunka/production/_ext/732687875/drv_ethphy.o
                0x9d011f58                DRV_ETHPHY_OBJECT_BASE_Default

.text._ARPDeleteResources
                0x9d01206c      0x130
 .text._ARPDeleteResources
                0x9d01206c      0x130 build/Diplomamunka/production/_ext/1408260596/arp.o

.text.DRV_ETHMAC_LibDescriptorsPoolAdd
                0x9d01219c      0x12c
 .text.DRV_ETHMAC_LibDescriptorsPoolAdd
                0x9d01219c      0x12c build/Diplomamunka/production/_ext/1908841681/drv_ethmac_lib.o
                0x9d01219c                DRV_ETHMAC_LibDescriptorsPoolAdd

.text._flsbuf   0x9d0122c8      0x12c
 .text._flsbuf  0x9d0122c8      0x12c c:/program files (x86)/microchip/xc32/v1.42/bin/bin/../../lib/gcc/pic32mx/4.8.3/../../../../pic32mx/lib\libc.a(_flsbuf_simple.o)
                0x9d0122c8                _flsbuf

.rodata         0x9d0123f4      0x128
 .rodata        0x9d0123f4      0x128 build/Diplomamunka/production/_ext/1720293489/system_exceptions.o

.text.TCPIP_ANNOUNCE_Initialize
                0x9d01251c      0x128
 .text.TCPIP_ANNOUNCE_Initialize
                0x9d01251c      0x128 build/Diplomamunka/production/_ext/1408260596/tcpip_announce.o
                0x9d01251c                TCPIP_ANNOUNCE_Initialize

.text.TCPIP_IPV4_ArpHandler
                0x9d012644      0x128
 .text.TCPIP_IPV4_ArpHandler
                0x9d012644      0x128 build/Diplomamunka/production/_ext/1408260596/ipv4.o

.text._Tcpv4TxAckFnc
                0x9d01276c      0x124
 .text._Tcpv4TxAckFnc
                0x9d01276c      0x124 build/Diplomamunka/production/_ext/1408260596/tcp.o

.text._OAHashFindBkt
                0x9d012890      0x124
 .text._OAHashFindBkt
                0x9d012890      0x124 build/Diplomamunka/production/_ext/1408260596/oahash.o

.text.IntHandlerDrvTmrInstance1
                0x9d0129b4      0x120
 .text.IntHandlerDrvTmrInstance1
                0x9d0129b4      0x120 build/Diplomamunka/production/_ext/1720293489/system_interrupt.o
                0x9d0129b4                IntHandlerDrvTmrInstance1

.text.DRV_ETHMAC_Tasks_ISR
                0x9d012ad4      0x120
 .text.DRV_ETHMAC_Tasks_ISR
                0x9d012ad4      0x120 build/Diplomamunka/production/_ext/1908841681/drv_ethmac.o
                0x9d012ad4                DRV_ETHMAC_Tasks_ISR

.text.TCPIP_Helper_PacketCopy
                0x9d012bf4      0x120
 .text.TCPIP_Helper_PacketCopy
                0x9d012bf4      0x120 build/Diplomamunka/production/_ext/1408260596/tcpip_helpers.o
                0x9d012bf4                TCPIP_Helper_PacketCopy

.text           0x9d012d14      0x120
 .text          0x9d012d14      0x120 c:/program files (x86)/microchip/xc32/v1.42/bin/bin/../../lib/gcc/pic32mx/4.8.3/../../../../pic32mx/lib\libpic32.a(strcmp.o)
                0x9d012d14                strcmp

.text.getCurrentPwmParameters
                0x9d012e34      0x11c
 .text.getCurrentPwmParameters
                0x9d012e34      0x11c build/Diplomamunka/production/_ext/1360937237/fan.o
                0x9d012e34                getCurrentPwmParameters

.text.DRV_ETHMAC_PIC32MACRxFilterHashTableEntrySet
                0x9d012f50      0x11c
 .text.DRV_ETHMAC_PIC32MACRxFilterHashTableEntrySet
                0x9d012f50      0x11c build/Diplomamunka/production/_ext/1908841681/drv_ethmac.o
                0x9d012f50                DRV_ETHMAC_PIC32MACRxFilterHashTableEntrySet

.text._GetMaxSegSizeOption
                0x9d01306c      0x11c
 .text._GetMaxSegSizeOption
                0x9d01306c      0x11c build/Diplomamunka/production/_ext/1408260596/tcp.o

.text.TCPIP_UDP_Initialize
                0x9d013188      0x11c
 .text.TCPIP_UDP_Initialize
                0x9d013188      0x11c build/Diplomamunka/production/_ext/1408260596/udp.o
                0x9d013188                TCPIP_UDP_Initialize

.text.TCPIP_ARP_IsResolved
                0x9d0132a4      0x11c
 .text.TCPIP_ARP_IsResolved
                0x9d0132a4      0x11c build/Diplomamunka/production/_ext/1408260596/arp.o
                0x9d0132a4                TCPIP_ARP_IsResolved

.text._MacRxPacketAck
                0x9d0133c0      0x118
 .text._MacRxPacketAck
                0x9d0133c0      0x118 build/Diplomamunka/production/_ext/1908841681/drv_ethmac.o

.text._DRV_ETHPHY_SetupPhaseNegotiate_SubPhase3
                0x9d0134d8      0x118
 .text._DRV_ETHPHY_SetupPhaseNegotiate_SubPhase3
                0x9d0134d8      0x118 build/Diplomamunka/production/_ext/732687875/drv_ethphy.o

.text._DRV_TMR_Resume
                0x9d0135f0      0x118
 .text._DRV_TMR_Resume
                0x9d0135f0      0x118 build/Diplomamunka/production/_ext/185269848/drv_tmr.o

.text._DHCPSetLeaseTimeParams
                0x9d013708      0x118
 .text._DHCPSetLeaseTimeParams
                0x9d013708      0x118 build/Diplomamunka/production/_ext/1408260596/dhcp.o

.text.TCPIP_Helper_PacketChecksum
                0x9d013820      0x118
 .text.TCPIP_Helper_PacketChecksum
                0x9d013820      0x118 build/Diplomamunka/production/_ext/1408260596/tcpip_helpers.o
                0x9d013820                TCPIP_Helper_PacketChecksum

.text.DRV_ETHMAC_PIC32MACStatisticsGet
                0x9d013938      0x114
 .text.DRV_ETHMAC_PIC32MACStatisticsGet
                0x9d013938      0x114 build/Diplomamunka/production/_ext/1908841681/drv_ethmac.o
                0x9d013938                DRV_ETHMAC_PIC32MACStatisticsGet

.text.DRV_I2C0_Transmit
                0x9d013a4c      0x110
 .text.DRV_I2C0_Transmit
                0x9d013a4c      0x110 build/Diplomamunka/production/_ext/1774832663/drv_i2c_static_buffer_model.o
                0x9d013a4c                DRV_I2C0_Transmit

.text.interruptT2
                0x9d013b5c      0x110
 .text.interruptT2
                0x9d013b5c      0x110 build/Diplomamunka/production/_ext/1360937237/app.o
                0x9d013b5c                interruptT2

.text.DRV_ETHMAC_LibClose
                0x9d013c6c      0x110
 .text.DRV_ETHMAC_LibClose
                0x9d013c6c      0x110 build/Diplomamunka/production/_ext/1908841681/drv_ethmac_lib.o
                0x9d013c6c                DRV_ETHMAC_LibClose

.text.PLIB_ETH_MACSetAddress
                0x9d013d7c      0x10c
 .text.PLIB_ETH_MACSetAddress
                0x9d013d7c      0x10c ..\..\..\..\bin\framework\peripheral\PIC32MX795F512L_peripherals.a(plib_eth_lib.o)
                0x9d013d7c                PLIB_ETH_MACSetAddress

.text.TCPIP_TCP_Initialize
                0x9d013e88      0x108
 .text.TCPIP_TCP_Initialize
                0x9d013e88      0x108 build/Diplomamunka/production/_ext/1408260596/tcp.o
                0x9d013e88                TCPIP_TCP_Initialize

.text._UDPv4AllocateSktTxBuffer
                0x9d013f90      0x108
 .text._UDPv4AllocateSktTxBuffer
                0x9d013f90      0x108 build/Diplomamunka/production/_ext/1408260596/udp.o

.text._DNS_ValidateIf
                0x9d014098      0x104
 .text._DNS_ValidateIf
                0x9d014098      0x104 build/Diplomamunka/production/_ext/1408260596/dns.o

.rodata         0x9d01419c      0x104
 .rodata        0x9d01419c      0x104 c:/program files (x86)/microchip/xc32/v1.42/bin/bin/../../lib/gcc/pic32mx/4.8.3/../../../../pic32mx/lib\libc.a(ctype.o)
                0x9d01419c                _ctype

.text._TcpSocketSetIdleState
                0x9d0142a0       0xfc
 .text._TcpSocketSetIdleState
                0x9d0142a0       0xfc build/Diplomamunka/production/_ext/1408260596/tcp.o

.text.TCPIP_TCP_ServerOpen
                0x9d01439c       0xfc
 .text.TCPIP_TCP_ServerOpen
                0x9d01439c       0xfc build/Diplomamunka/production/_ext/1408260596/tcp.o
                0x9d01439c                TCPIP_TCP_ServerOpen

.text._UDPv4TxAckFnc
                0x9d014498       0xfc
 .text._UDPv4TxAckFnc
                0x9d014498       0xfc build/Diplomamunka/production/_ext/1408260596/udp.o

.text._DRV_TMR_Suspend
                0x9d014594       0xf8
 .text._DRV_TMR_Suspend
                0x9d014594       0xf8 build/Diplomamunka/production/_ext/185269848/drv_tmr.o

.text._DHCPClose
                0x9d01468c       0xf8
 .text._DHCPClose
                0x9d01468c       0xf8 build/Diplomamunka/production/_ext/1408260596/dhcp.o

.text.initialiseOCs
                0x9d014784       0xf4
 .text.initialiseOCs
                0x9d014784       0xf4 build/Diplomamunka/production/_ext/1360937237/fan.o
                0x9d014784                initialiseOCs

.text._DRV_ETHPHY_NegCompletePhaseAN_Restart
                0x9d014878       0xf4
 .text._DRV_ETHPHY_NegCompletePhaseAN_Restart
                0x9d014878       0xf4 build/Diplomamunka/production/_ext/732687875/drv_ethphy.o

.text._DHCPOpenSocket
                0x9d01496c       0xf4
 .text._DHCPOpenSocket
                0x9d01496c       0xf4 build/Diplomamunka/production/_ext/1408260596/dhcp.o

.text.TCPIP_DHCP_ConnectionHandler
                0x9d014a60       0xf4
 .text.TCPIP_DHCP_ConnectionHandler
                0x9d014a60       0xf4 build/Diplomamunka/production/_ext/1408260596/dhcp.o
                0x9d014a60                TCPIP_DHCP_ConnectionHandler

.text._DRV_ETHPHY_ResetPhaseRead
                0x9d014b54       0xf0
 .text._DRV_ETHPHY_ResetPhaseRead
                0x9d014b54       0xf0 build/Diplomamunka/production/_ext/732687875/drv_ethphy.o

.text.DRV_I2C0_Initialize
                0x9d014c44       0xec
 .text.DRV_I2C0_Initialize
                0x9d014c44       0xec build/Diplomamunka/production/_ext/1774832663/drv_i2c_static_buffer_model.o
                0x9d014c44                DRV_I2C0_Initialize

.text._DRV_ETHPHY_SetupPhaseNegotiate_SubPhase0
                0x9d014d30       0xec
 .text._DRV_ETHPHY_SetupPhaseNegotiate_SubPhase0
                0x9d014d30       0xec build/Diplomamunka/production/_ext/732687875/drv_ethphy.o

.text.SYS_TMR_SystemCountGet
                0x9d014e1c       0xec
 .text.SYS_TMR_SystemCountGet
                0x9d014e1c       0xec build/Diplomamunka/production/_ext/1264926591/sys_tmr.o
                0x9d014e1c                SYS_TMR_SystemCountGet

.text._TCPIP_StackSyncFunction
                0x9d014f08       0xec
 .text._TCPIP_StackSyncFunction
                0x9d014f08       0xec build/Diplomamunka/production/_ext/1408260596/tcpip_manager.o

.text.DRV_ETHMAC_PIC32MACProcess
                0x9d014ff4       0xe8
 .text.DRV_ETHMAC_PIC32MACProcess
                0x9d014ff4       0xe8 build/Diplomamunka/production/_ext/1908841681/drv_ethmac.o
                0x9d014ff4                DRV_ETHMAC_PIC32MACProcess

.text._SYS_TMR_ClientParamSet
                0x9d0150dc       0xe8
 .text._SYS_TMR_ClientParamSet
                0x9d0150dc       0xe8 build/Diplomamunka/production/_ext/1264926591/sys_tmr.o

.text._DHCPPacketFilter
                0x9d0151c4       0xe8
 .text._DHCPPacketFilter
                0x9d0151c4       0xe8 build/Diplomamunka/production/_ext/1408260596/dhcp.o

.text.TCPIP_IPV4_DeInitialize
                0x9d0152ac       0xe8
 .text.TCPIP_IPV4_DeInitialize
                0x9d0152ac       0xe8 build/Diplomamunka/production/_ext/1408260596/ipv4.o
                0x9d0152ac                TCPIP_IPV4_DeInitialize

.rodata         0x9d015394       0xe0
 .rodata        0x9d015394       0xe0 build/Diplomamunka/production/_ext/1908841681/drv_ethmac.o
                0x9d01541c                DRV_ETHMAC_PIC32MACObject

.text.DRV_ETHPHY_Setup
                0x9d015474       0xe0
 .text.DRV_ETHPHY_Setup
                0x9d015474       0xe0 build/Diplomamunka/production/_ext/732687875/drv_ethphy.o
                0x9d015474                DRV_ETHPHY_Setup

.text._DHCPEnable
                0x9d015554       0xe0
 .text._DHCPEnable
                0x9d015554       0xe0 build/Diplomamunka/production/_ext/1408260596/dhcp.o

.text.TCPIP_OAHASH_EntryLookup
                0x9d015634       0xe0
 .text.TCPIP_OAHASH_EntryLookup
                0x9d015634       0xe0 build/Diplomamunka/production/_ext/1408260596/oahash.o
                0x9d015634                TCPIP_OAHASH_EntryLookup

.text.TCPIP_STACK_BringNetDown
                0x9d015714       0xe0
 .text.TCPIP_STACK_BringNetDown
                0x9d015714       0xe0 build/Diplomamunka/production/_ext/1408260596/tcpip_manager.o

.text._TCPIP_PKT_PacketAlloc
                0x9d0157f4       0xe0
 .text._TCPIP_PKT_PacketAlloc
                0x9d0157f4       0xe0 build/Diplomamunka/production/_ext/1408260596/tcpip_packet.o
                0x9d0157f4                _TCPIP_PKT_PacketAlloc

.text.DRV_ETHPHY_SMIClockSet
                0x9d0158d4       0xdc
 .text.DRV_ETHPHY_SMIClockSet
                0x9d0158d4       0xdc build/Diplomamunka/production/_ext/732687875/drv_ethphy.o
                0x9d0158d4                DRV_ETHPHY_SMIClockSet

.text.SYS_DEVCON_PerformanceConfig
                0x9d0159b0       0xdc
 .text.SYS_DEVCON_PerformanceConfig
                0x9d0159b0       0xdc build/Diplomamunka/production/_ext/1271179505/sys_devcon_pic32mx.o
                0x9d0159b0                SYS_DEVCON_PerformanceConfig

.text.TCPIP_STACK_KillStack
                0x9d015a8c       0xdc
 .text.TCPIP_STACK_KillStack
                0x9d015a8c       0xdc build/Diplomamunka/production/_ext/1408260596/tcpip_manager.o

.text.general_exception
                0x9d015b68       0xdc
 .text.general_exception
                0x9d015b68       0xdc c:/program files (x86)/microchip/xc32/v1.42/bin/bin/../../lib/gcc/pic32mx/4.8.3/../../../../pic32mx/lib\libpic32.a(general-exception.o)
                0x9d015b68                _general_exception_context

.text._ARPUpdateEntry
                0x9d015c44       0xd8
 .text._ARPUpdateEntry
                0x9d015c44       0xd8 build/Diplomamunka/production/_ext/1408260596/arp.o

.text._DRV_ETHPHY_NegResultPhase_BMSTAT
                0x9d015d1c       0xd4
 .text._DRV_ETHPHY_NegResultPhase_BMSTAT
                0x9d015d1c       0xd4 build/Diplomamunka/production/_ext/732687875/drv_ethphy.o

.text._mon_putc
                0x9d015df0       0xd4
 .text._mon_putc
                0x9d015df0       0xd4 c:/program files (x86)/microchip/xc32/v1.42/bin/bin/../../lib/gcc/pic32mx/4.8.3/../../../../pic32mx/lib\libpic32.a(_mon_putc.o)
                0x9d015df0                _mon_putc

.text._MacTxPendingPackets
                0x9d015ec4       0xd0
 .text._MacTxPendingPackets
                0x9d015ec4       0xd0 build/Diplomamunka/production/_ext/1908841681/drv_ethmac.o

.text.SYS_TMR_Initialize
                0x9d015f94       0xd0
 .text.SYS_TMR_Initialize
                0x9d015f94       0xd0 build/Diplomamunka/production/_ext/1264926591/sys_tmr.o
                0x9d015f94                SYS_TMR_Initialize

.rodata         0x9d016068       0xd0
 .rodata        0x9d016068       0xd0 c:/program files (x86)/microchip/xc32/v1.42/bin/bin/../../lib/gcc/pic32mx/4.8.3/../../../../pic32mx/lib\libc.a(doprnt_cdnopuxX.eo)

.text._DRV_ETHMAC_LinkStateNegResult
                0x9d016138       0xcc
 .text._DRV_ETHMAC_LinkStateNegResult
                0x9d016138       0xcc build/Diplomamunka/production/_ext/1908841681/drv_ethmac.o

.text.DRV_TMR_Tasks
                0x9d016204       0xcc
 .text.DRV_TMR_Tasks
                0x9d016204       0xcc build/Diplomamunka/production/_ext/185269848/drv_tmr.o
                0x9d016204                DRV_TMR_Tasks

.text.TCPIP_UDP_RemoteBind
                0x9d0162d0       0xcc
 .text.TCPIP_UDP_RemoteBind
                0x9d0162d0       0xcc build/Diplomamunka/production/_ext/1408260596/udp.o
                0x9d0162d0                TCPIP_UDP_RemoteBind

.text.TCPIP_ARP_EntryRemove
                0x9d01639c       0xcc
 .text.TCPIP_ARP_EntryRemove
                0x9d01639c       0xcc build/Diplomamunka/production/_ext/1408260596/arp.o
                0x9d01639c                TCPIP_ARP_EntryRemove

.text._UDPsetPacketInfo
                0x9d016468       0xc8
 .text._UDPsetPacketInfo
                0x9d016468       0xc8 build/Diplomamunka/production/_ext/1408260596/udp.o

.text.TCPIP_OAHASH_EntryLookupOrInsert
                0x9d016530       0xc8
 .text.TCPIP_OAHASH_EntryLookupOrInsert
                0x9d016530       0xc8 build/Diplomamunka/production/_ext/1408260596/oahash.o
                0x9d016530                TCPIP_OAHASH_EntryLookupOrInsert

.text._sbrk     0x9d0165f8       0xc8
 .text._sbrk    0x9d0165f8       0xc8 c:/program files (x86)/microchip/xc32/v1.42/bin/bin/../../lib/gcc/pic32mx/4.8.3/../../../../pic32mx/lib\libpic32.a(sbrk.o)
                0x9d0165f8                _sbrk

.text._DHCPOptionWriteSrvIdent
                0x9d0166c0       0xc4
 .text._DHCPOptionWriteSrvIdent
                0x9d0166c0       0xc4 build/Diplomamunka/production/_ext/1408260596/dhcp.o

.text._TCPIPStackModuleRxPurge
                0x9d016784       0xc4
 .text._TCPIPStackModuleRxPurge
                0x9d016784       0xc4 build/Diplomamunka/production/_ext/1408260596/tcpip_manager.o
                0x9d016784                _TCPIPStackModuleRxPurge

.text.interruptIC5
                0x9d016848       0xc0
 .text.interruptIC5
                0x9d016848       0xc0 build/Diplomamunka/production/_ext/1360937237/app.o
                0x9d016848                interruptIC5

.text.TCPIP_UDP_ArrayPut
                0x9d016908       0xc0
 .text.TCPIP_UDP_ArrayPut
                0x9d016908       0xc0 build/Diplomamunka/production/_ext/1408260596/udp.o
                0x9d016908                TCPIP_UDP_ArrayPut

.text._DHCPOptionProcessDns
                0x9d0169c8       0xc0
 .text._DHCPOptionProcessDns
                0x9d0169c8       0xc0 build/Diplomamunka/production/_ext/1408260596/dhcp.o

.text._DHCPOptionWriteIPRequest
                0x9d016a88       0xbc
 .text._DHCPOptionWriteIPRequest
                0x9d016a88       0xbc build/Diplomamunka/production/_ext/1408260596/dhcp.o

.text.TCPIP_PKT_DataSegmentGet
                0x9d016b44       0xbc
 .text.TCPIP_PKT_DataSegmentGet
                0x9d016b44       0xbc build/Diplomamunka/production/_ext/1408260596/tcpip_packet.o
                0x9d016b44                TCPIP_PKT_DataSegmentGet

.text._EthTxSchedList
                0x9d016c00       0xb8
 .text._EthTxSchedList
                0x9d016c00       0xb8 build/Diplomamunka/production/_ext/1908841681/drv_ethmac_lib.o

.text.TCPIP_UDP_BcastIPV4AddressSet
                0x9d016cb8       0xb8
 .text.TCPIP_UDP_BcastIPV4AddressSet
                0x9d016cb8       0xb8 build/Diplomamunka/production/_ext/1408260596/udp.o
                0x9d016cb8                TCPIP_UDP_BcastIPV4AddressSet

.text.TCPIP_DNS_OAHASH_DeleteEntry
                0x9d016d70       0xb8
 .text.TCPIP_DNS_OAHASH_DeleteEntry
                0x9d016d70       0xb8 build/Diplomamunka/production/_ext/1408260596/dns.o

.text.DRV_ETHMAC_PIC32MACEventAcknowledge
                0x9d016e28       0xb4
 .text.DRV_ETHMAC_PIC32MACEventAcknowledge
                0x9d016e28       0xb4 build/Diplomamunka/production/_ext/1908841681/drv_ethmac.o
                0x9d016e28                DRV_ETHMAC_PIC32MACEventAcknowledge

.text._EthTxSchedBuffer
                0x9d016edc       0xb4
 .text._EthTxSchedBuffer
                0x9d016edc       0xb4 build/Diplomamunka/production/_ext/1908841681/drv_ethmac_lib.o

.text._ARPNotifyClients
                0x9d016f90       0xb4
 .text._ARPNotifyClients
                0x9d016f90       0xb4 build/Diplomamunka/production/_ext/1408260596/arp.o

.text._DNS_DeleteHash
                0x9d017044       0xb4
 .text._DNS_DeleteHash
                0x9d017044       0xb4 build/Diplomamunka/production/_ext/1408260596/dns.o

.text._DRV_I2C_QueueSlotGet_0
                0x9d0170f8       0xb0
 .text._DRV_I2C_QueueSlotGet_0
                0x9d0170f8       0xb0 build/Diplomamunka/production/_ext/1774832663/drv_i2c_static_buffer_model.o
                0x9d0170f8                _DRV_I2C_QueueSlotGet_0

.text._DRV_ETHPHY_ResetPhaseWrite
                0x9d0171a8       0xb0
 .text._DRV_ETHPHY_ResetPhaseWrite
                0x9d0171a8       0xb0 build/Diplomamunka/production/_ext/732687875/drv_ethphy.o

.text.DRV_ETHPHY_VendorSMIWriteStart
                0x9d017258       0xb0
 .text.DRV_ETHPHY_VendorSMIWriteStart
                0x9d017258       0xb0 build/Diplomamunka/production/_ext/732687875/drv_ethphy.o
                0x9d017258                DRV_ETHPHY_VendorSMIWriteStart

.text.TCPIP_TCP_Deinitialize
                0x9d017308       0xb0
 .text.TCPIP_TCP_Deinitialize
                0x9d017308       0xb0 build/Diplomamunka/production/_ext/1408260596/tcp.o
                0x9d017308                TCPIP_TCP_Deinitialize

.text._DNS_AddSelectionIf
                0x9d0173b8       0xb0
 .text._DNS_AddSelectionIf
                0x9d0173b8       0xb0 build/Diplomamunka/production/_ext/1408260596/dns.o

.text.TCPIP_IPV4_PacketFormatTx
                0x9d017468       0xb0
 .text.TCPIP_IPV4_PacketFormatTx
                0x9d017468       0xb0 build/Diplomamunka/production/_ext/1408260596/ipv4.o
                0x9d017468                TCPIP_IPV4_PacketFormatTx

.text._DRV_ETHMAC_LinkStateWaitLinkUp
                0x9d017518       0xac
 .text._DRV_ETHMAC_LinkStateWaitLinkUp
                0x9d017518       0xac build/Diplomamunka/production/_ext/1908841681/drv_ethmac.o

.text._DRV_ETHPHY_NegCompletePhaseRead2
                0x9d0175c4       0xac
 .text._DRV_ETHPHY_NegCompletePhaseRead2
                0x9d0175c4       0xac build/Diplomamunka/production/_ext/732687875/drv_ethphy.o

.text.DRV_ETHPHY_VendorSMIReadStart
                0x9d017670       0xac
 .text.DRV_ETHPHY_VendorSMIReadStart
                0x9d017670       0xac build/Diplomamunka/production/_ext/732687875/drv_ethphy.o
                0x9d017670                DRV_ETHPHY_VendorSMIReadStart

.text._DNS_Enable
                0x9d01771c       0xac
 .text._DNS_Enable
                0x9d01771c       0xac build/Diplomamunka/production/_ext/1408260596/dns.o

.text._TCPIPStackInsertRxPacket
                0x9d0177c8       0xac
 .text._TCPIPStackInsertRxPacket
                0x9d0177c8       0xac build/Diplomamunka/production/_ext/1408260596/tcpip_manager.o
                0x9d0177c8                _TCPIPStackInsertRxPacket

.text.DRV_ETHMAC_PIC32MACRegisterStatisticsGet
                0x9d017874       0xa8
 .text.DRV_ETHMAC_PIC32MACRegisterStatisticsGet
                0x9d017874       0xa8 build/Diplomamunka/production/_ext/1908841681/drv_ethmac.o
                0x9d017874                DRV_ETHMAC_PIC32MACRegisterStatisticsGet

.text.DRV_ETHPHY_SMIWrite
                0x9d01791c       0xa8
 .text.DRV_ETHPHY_SMIWrite
                0x9d01791c       0xa8 build/Diplomamunka/production/_ext/732687875/drv_ethphy.o
                0x9d01791c                DRV_ETHPHY_SMIWrite

.text._DRV_ETHPHY_SetupPhaseNegotiate_SubPhase6
                0x9d0179c4       0xa8
 .text._DRV_ETHPHY_SetupPhaseNegotiate_SubPhase6
                0x9d0179c4       0xa8 build/Diplomamunka/production/_ext/732687875/drv_ethphy.o

.text._SYS_TMR_ClientCheckSrvLock
                0x9d017a6c       0xa8
 .text._SYS_TMR_ClientCheckSrvLock
                0x9d017a6c       0xa8 build/Diplomamunka/production/_ext/1264926591/sys_tmr.o

.text           0x9d017b14       0xa8
 .text          0x9d017b14       0xa8 c:/program files (x86)/microchip/xc32/v1.42/bin/bin/../../lib/gcc/pic32mx/4.8.3/../../../../pic32mx/lib\libpic32.a(memset.o)
                0x9d017b14                memset

.text.TCPIP_UDP_PutIsReady
                0x9d017bbc       0xa4
 .text.TCPIP_UDP_PutIsReady
                0x9d017bbc       0xa4 build/Diplomamunka/production/_ext/1408260596/udp.o
                0x9d017bbc                TCPIP_UDP_PutIsReady

.text._TCPIP_HEAP_MaxSize
                0x9d017c60       0xa4
 .text._TCPIP_HEAP_MaxSize
                0x9d017c60       0xa4 build/Diplomamunka/production/_ext/1408260596/tcpip_heap_internal.o

.text._TCPIP_PKT_PacketFree
                0x9d017d04       0xa4
 .text._TCPIP_PKT_PacketFree
                0x9d017d04       0xa4 build/Diplomamunka/production/_ext/1408260596/tcpip_packet.o
                0x9d017d04                _TCPIP_PKT_PacketFree

.text.TCPIP_IPV4_Initialize
                0x9d017da8       0xa4
 .text.TCPIP_IPV4_Initialize
                0x9d017da8       0xa4 build/Diplomamunka/production/_ext/1408260596/ipv4.o
                0x9d017da8                TCPIP_IPV4_Initialize

.text._DRV_ETHPHY_LinkStatPhaseRead
                0x9d017e4c       0xa0
 .text._DRV_ETHPHY_LinkStatPhaseRead
                0x9d017e4c       0xa0 build/Diplomamunka/production/_ext/732687875/drv_ethphy.o

.text._TCPSendWinIncUpdate
                0x9d017eec       0xa0
 .text._TCPSendWinIncUpdate
                0x9d017eec       0xa0 build/Diplomamunka/production/_ext/1408260596/tcp.o

.text._TcpAbort
                0x9d017f8c       0xa0
 .text._TcpAbort
                0x9d017f8c       0xa0 build/Diplomamunka/production/_ext/1408260596/tcp.o

.text.TCPIP_Helper_SingleListNodeRemove
                0x9d01802c       0xa0
 .text.TCPIP_Helper_SingleListNodeRemove
                0x9d01802c       0xa0 build/Diplomamunka/production/_ext/1408260596/tcpip_helpers.o
                0x9d01802c                TCPIP_Helper_SingleListNodeRemove

.rodata         0x9d0180cc       0xa0
 .rodata        0x9d0180cc       0xa0 build/Diplomamunka/production/_ext/1408260596/tcpip_manager.o

.text.TCPIP_PKT_PacketMACFormat
                0x9d01816c       0xa0
 .text.TCPIP_PKT_PacketMACFormat
                0x9d01816c       0xa0 build/Diplomamunka/production/_ext/1408260596/tcpip_packet.o
                0x9d01816c                TCPIP_PKT_PacketMACFormat

.text.DRV_IC0_Initialize
                0x9d01820c       0x9c
 .text.DRV_IC0_Initialize
                0x9d01820c       0x9c build/Diplomamunka/production/_ext/793758023/drv_ic_static.o
                0x9d01820c                DRV_IC0_Initialize

.text.DRV_IC1_Initialize
                0x9d0182a8       0x9c
 .text.DRV_IC1_Initialize
                0x9d0182a8       0x9c build/Diplomamunka/production/_ext/793758023/drv_ic_static.o
                0x9d0182a8                DRV_IC1_Initialize

.text._DRV_ETHMAC_LinkStateGetLink
                0x9d018344       0x9c
 .text._DRV_ETHMAC_LinkStateGetLink
                0x9d018344       0x9c build/Diplomamunka/production/_ext/1908841681/drv_ethmac.o

.text.TCPIP_ARP_Probe
                0x9d0183e0       0x9c
 .text.TCPIP_ARP_Probe
                0x9d0183e0       0x9c build/Diplomamunka/production/_ext/1408260596/arp.o
                0x9d0183e0                TCPIP_ARP_Probe

.text.TCPIP_STACK_IPAddressIsLocalNetwork
                0x9d01847c       0x9c
 .text.TCPIP_STACK_IPAddressIsLocalNetwork
                0x9d01847c       0x9c build/Diplomamunka/production/_ext/1408260596/tcpip_manager.o
                0x9d01847c                TCPIP_STACK_IPAddressIsLocalNetwork

.text.PLIB_ETH_MACGetAddress
                0x9d018518       0x9c
 .text.PLIB_ETH_MACGetAddress
                0x9d018518       0x9c ..\..\..\..\bin\framework\peripheral\PIC32MX795F512L_peripherals.a(plib_eth_lib.o)
                0x9d018518                PLIB_ETH_MACGetAddress

.text.write     0x9d0185b4       0x9c
 .text.write    0x9d0185b4       0x9c c:/program files (x86)/microchip/xc32/v1.42/bin/bin/../../lib/gcc/pic32mx/4.8.3/../../../../pic32mx/lib\libpic32.a(write.o)
                0x9d0185b4                write

.text.DRV_ETHMAC_LibDescriptorsPoolCleanUp
                0x9d018650       0x98
 .text.DRV_ETHMAC_LibDescriptorsPoolCleanUp
                0x9d018650       0x98 build/Diplomamunka/production/_ext/1908841681/drv_ethmac_lib.o
                0x9d018650                DRV_ETHMAC_LibDescriptorsPoolCleanUp

.text._TcpCleanup
                0x9d0186e8       0x98
 .text._TcpCleanup
                0x9d0186e8       0x98 build/Diplomamunka/production/_ext/1408260596/tcp.o

.text.TCPIP_UDP_DestinationIPAddressSet
                0x9d018780       0x98
 .text.TCPIP_UDP_DestinationIPAddressSet
                0x9d018780       0x98 build/Diplomamunka/production/_ext/1408260596/udp.o
                0x9d018780                TCPIP_UDP_DestinationIPAddressSet

.text._DNSDiscardName
                0x9d018818       0x98
 .text._DNSDiscardName
                0x9d018818       0x98 build/Diplomamunka/production/_ext/1408260596/dns.o

.text           0x9d0188b0       0x98
 .text          0x9d0188b0       0x98 c:/program files (x86)/microchip/xc32/v1.42/bin/bin/../../lib/gcc/pic32mx/4.8.3/../../../../pic32mx/lib\libpic32.a(memcmp.o)
                0x9d0188b0                memcmp

.text.interruptIC3
                0x9d018948       0x94
 .text.interruptIC3
                0x9d018948       0x94 build/Diplomamunka/production/_ext/1360937237/app.o
                0x9d018948                interruptIC3

.text._UDPSetNewRxPacket
                0x9d0189dc       0x94
 .text._UDPSetNewRxPacket
                0x9d0189dc       0x94 build/Diplomamunka/production/_ext/1408260596/udp.o

.text.TCPIP_ARP_EntryGet
                0x9d018a70       0x94
 .text.TCPIP_ARP_EntryGet
                0x9d018a70       0x94 build/Diplomamunka/production/_ext/1408260596/arp.o
                0x9d018a70                TCPIP_ARP_EntryGet

.rodata         0x9d018b04       0x90
 .rodata        0x9d018b04       0x90 build/Diplomamunka/production/_ext/1360937237/app.o

.text._DRV_ETHMAC_LinkStateNegComplete
                0x9d018b94       0x90
 .text._DRV_ETHMAC_LinkStateNegComplete
                0x9d018b94       0x90 build/Diplomamunka/production/_ext/1908841681/drv_ethmac.o

.text.DRV_ETHPHY_SMIScanDataGet
                0x9d018c24       0x90
 .text.DRV_ETHPHY_SMIScanDataGet
                0x9d018c24       0x90 build/Diplomamunka/production/_ext/732687875/drv_ethphy.o
                0x9d018c24                DRV_ETHPHY_SMIScanDataGet

.text._DRV_ETHPHY_NegCompletePhaseAN_Complete
                0x9d018cb4       0x90
 .text._DRV_ETHPHY_NegCompletePhaseAN_Complete
                0x9d018cb4       0x90 build/Diplomamunka/production/_ext/732687875/drv_ethphy.o

.text.TCPIP_UDP_SocketInfoGet
                0x9d018d44       0x90
 .text.TCPIP_UDP_SocketInfoGet
                0x9d018d44       0x90 build/Diplomamunka/production/_ext/1408260596/udp.o
                0x9d018d44                TCPIP_UDP_SocketInfoGet

.text.TCPIP_UDP_TxOffsetSet
                0x9d018dd4       0x90
 .text.TCPIP_UDP_TxOffsetSet
                0x9d018dd4       0x90 build/Diplomamunka/production/_ext/1408260596/udp.o
                0x9d018dd4                TCPIP_UDP_TxOffsetSet

.text.TCPIP_ICMP_Initialize
                0x9d018e64       0x90
 .text.TCPIP_ICMP_Initialize
                0x9d018e64       0x90 build/Diplomamunka/production/_ext/1408260596/icmp.o
                0x9d018e64                TCPIP_ICMP_Initialize

.text.TCPIP_Helper_ProtectedSingleListRemoveAll
                0x9d018ef4       0x90
 .text.TCPIP_Helper_ProtectedSingleListRemoveAll
                0x9d018ef4       0x90 build/Diplomamunka/production/_ext/1408260596/tcpip_helpers.o
                0x9d018ef4                TCPIP_Helper_ProtectedSingleListRemoveAll

.text._TCPIPStackIpAddFromAnyNet
                0x9d018f84       0x90
 .text._TCPIPStackIpAddFromAnyNet
                0x9d018f84       0x90 build/Diplomamunka/production/_ext/1408260596/tcpip_manager.o
                0x9d018f84                _TCPIPStackIpAddFromAnyNet

.text.strstr    0x9d019014       0x90
 .text.strstr   0x9d019014       0x90 c:/program files (x86)/microchip/xc32/v1.42/bin/bin/../../lib/gcc/pic32mx/4.8.3/../../../../pic32mx/lib\libc.a(strstr.o)
                0x9d019014                strstr

.text.hexatob   0x9d0190a4       0x8c
 .text.hexatob  0x9d0190a4       0x8c build/Diplomamunka/production/_ext/1136935090/helpers.o
                0x9d0190a4                hexatob

.text._DHCPNotifyClients
                0x9d019130       0x8c
 .text._DHCPNotifyClients
                0x9d019130       0x8c build/Diplomamunka/production/_ext/1408260596/dhcp.o

.text.TCPIP_Helper_FormatNetBIOSName
                0x9d0191bc       0x8c
 .text.TCPIP_Helper_FormatNetBIOSName
                0x9d0191bc       0x8c build/Diplomamunka/production/_ext/1408260596/tcpip_helpers.o
                0x9d0191bc                TCPIP_Helper_FormatNetBIOSName

.text.TCPIP_Helper_ProtectedSingleListHeadRemove
                0x9d019248       0x8c
 .text.TCPIP_Helper_ProtectedSingleListHeadRemove
                0x9d019248       0x8c build/Diplomamunka/production/_ext/1408260596/tcpip_helpers.o
                0x9d019248                TCPIP_Helper_ProtectedSingleListHeadRemove

.text.TCPIP_Helper_ProtectedSingleListNodeRemove
                0x9d0192d4       0x8c
 .text.TCPIP_Helper_ProtectedSingleListNodeRemove
                0x9d0192d4       0x8c build/Diplomamunka/production/_ext/1408260596/tcpip_helpers.o
                0x9d0192d4                TCPIP_Helper_ProtectedSingleListNodeRemove

.text.rand      0x9d019360       0x8c
 .text.rand     0x9d019360       0x8c c:/program files (x86)/microchip/xc32/v1.42/bin/bin/../../lib/gcc/pic32mx/4.8.3/../../../../pic32mx/lib\libc.a(rand.o)
                0x9d019360                rand

.text.TCPIP_UDP_SourceIPAddressSet
                0x9d0193ec       0x88
 .text.TCPIP_UDP_SourceIPAddressSet
                0x9d0193ec       0x88 build/Diplomamunka/production/_ext/1408260596/udp.o
                0x9d0193ec                TCPIP_UDP_SourceIPAddressSet

.text.DRV_ETHPHY_VendorSMIReadResultGet
                0x9d019474       0x84
 .text.DRV_ETHPHY_VendorSMIReadResultGet
                0x9d019474       0x84 build/Diplomamunka/production/_ext/732687875/drv_ethphy.o
                0x9d019474                DRV_ETHPHY_VendorSMIReadResultGet

.text._DRV_TMR_ModuleObj
                0x9d0194f8       0x84
 .text._DRV_TMR_ModuleObj
                0x9d0194f8       0x84 build/Diplomamunka/production/_ext/185269848/drv_tmr.o

.text._TcpClientSocketConnect
                0x9d01957c       0x84
 .text._TcpClientSocketConnect
                0x9d01957c       0x84 build/Diplomamunka/production/_ext/1408260596/tcp.o

.text._TCPIPStackModuleSignalRequest
                0x9d019600       0x84
 .text._TCPIPStackModuleSignalRequest
                0x9d019600       0x84 build/Diplomamunka/production/_ext/1408260596/tcpip_manager.o
                0x9d019600                _TCPIPStackModuleSignalRequest

.text.SYS_PORTS_Initialize
                0x9d019684       0x80
 .text.SYS_PORTS_Initialize
                0x9d019684       0x80 build/Diplomamunka/production/_ext/904121046/sys_ports_static.o
                0x9d019684                SYS_PORTS_Initialize

.text.DRV_ETHPHY_SMIScanStart
                0x9d019704       0x80
 .text.DRV_ETHPHY_SMIScanStart
                0x9d019704       0x80 build/Diplomamunka/production/_ext/732687875/drv_ethphy.o
                0x9d019704                DRV_ETHPHY_SMIScanStart

.text._DRV_ETHPHY_SetupPhaseNegotiate_SubPhase1
                0x9d019784       0x80
 .text._DRV_ETHPHY_SetupPhaseNegotiate_SubPhase1
                0x9d019784       0x80 build/Diplomamunka/production/_ext/732687875/drv_ethphy.o

.text.TCPIP_DNS_OAHASH_KeyCopy
                0x9d019804       0x80
 .text.TCPIP_DNS_OAHASH_KeyCopy
                0x9d019804       0x80 build/Diplomamunka/production/_ext/1408260596/dns.o

.text.SYS_CLK_Initialize
                0x9d019884       0x7c
 .text.SYS_CLK_Initialize
                0x9d019884       0x7c build/Diplomamunka/production/_ext/1892475994/sys_clk_static.o
                0x9d019884                SYS_CLK_Initialize

.text.DRV_ETHPHY_SMIRead
                0x9d019900       0x7c
 .text.DRV_ETHPHY_SMIRead
                0x9d019900       0x7c build/Diplomamunka/production/_ext/732687875/drv_ethphy.o
                0x9d019900                DRV_ETHPHY_SMIRead

.text.DRV_ETHPHY_SMIScanStop
                0x9d01997c       0x7c
 .text.DRV_ETHPHY_SMIScanStop
                0x9d01997c       0x7c build/Diplomamunka/production/_ext/732687875/drv_ethphy.o
                0x9d01997c                DRV_ETHPHY_SMIScanStop

.text._DRV_ETHPHY_SetupPhaseNegotiate_SubPhase5
                0x9d0199f8       0x7c
 .text._DRV_ETHPHY_SetupPhaseNegotiate_SubPhase5
                0x9d0199f8       0x7c build/Diplomamunka/production/_ext/732687875/drv_ethphy.o

.text._TCP_EphemeralPortAllocate
                0x9d019a74       0x7c
 .text._TCP_EphemeralPortAllocate
                0x9d019a74       0x7c build/Diplomamunka/production/_ext/1408260596/tcp.o

.text._UDPAllocateEphemeralPort
                0x9d019af0       0x7c
 .text._UDPAllocateEphemeralPort
                0x9d019af0       0x7c build/Diplomamunka/production/_ext/1408260596/udp.o

.text.TCPIP_ARP_Deinitialize
                0x9d019b6c       0x7c
 .text.TCPIP_ARP_Deinitialize
                0x9d019b6c       0x7c build/Diplomamunka/production/_ext/1408260596/arp.o
                0x9d019b6c                TCPIP_ARP_Deinitialize

.text.TCPIP_ARP_HandlerRegister
                0x9d019be8       0x7c
 .text.TCPIP_ARP_HandlerRegister
                0x9d019be8       0x7c build/Diplomamunka/production/_ext/1408260596/arp.o
                0x9d019be8                TCPIP_ARP_HandlerRegister

.text.TCPIP_Helper_ProtectedSingleListTailAdd
                0x9d019c64       0x7c
 .text.TCPIP_Helper_ProtectedSingleListTailAdd
                0x9d019c64       0x7c build/Diplomamunka/production/_ext/1408260596/tcpip_helpers.o
                0x9d019c64                TCPIP_Helper_ProtectedSingleListTailAdd

.text._TCPIPStackAnyNetLinked
                0x9d019ce0       0x7c
 .text._TCPIPStackAnyNetLinked
                0x9d019ce0       0x7c build/Diplomamunka/production/_ext/1408260596/tcpip_manager.o
                0x9d019ce0                _TCPIPStackAnyNetLinked

.text.fptoul    0x9d019d5c       0x7c
 .text.fptoul   0x9d019d5c       0x7c c:/program files (x86)/microchip/xc32/v1.42/bin/bin/../../lib/gcc/pic32mx/4.8.3/../../../../pic32mx/lib\libm.a(fptoul.o)
                0x9d019d5c                fptoul
                0x9d019d5c                fptoui
                0x9d019d5c                __fixunssfsi

.text.initialiseLedBrightness
                0x9d019dd8       0x78
 .text.initialiseLedBrightness
                0x9d019dd8       0x78 build/Diplomamunka/production/_ext/1360937237/led.o
                0x9d019dd8                initialiseLedBrightness

.text._DRV_ETHPHY_NegRestartPhaseRead
                0x9d019e50       0x78
 .text._DRV_ETHPHY_NegRestartPhaseRead
                0x9d019e50       0x78 build/Diplomamunka/production/_ext/732687875/drv_ethphy.o

.text._DRV_ETHPHY_SetupPhaseNegotiate_SubPhase2
                0x9d019ec8       0x78
 .text._DRV_ETHPHY_SetupPhaseNegotiate_SubPhase2
                0x9d019ec8       0x78 build/Diplomamunka/production/_ext/732687875/drv_ethphy.o

.text.DRV_ETHPHY_Open
                0x9d019f40       0x78
 .text.DRV_ETHPHY_Open
                0x9d019f40       0x78 build/Diplomamunka/production/_ext/732687875/drv_ethphy.o
                0x9d019f40                DRV_ETHPHY_Open

.text.TCPIP_UDP_Close
                0x9d019fb8       0x78
 .text.TCPIP_UDP_Close
                0x9d019fb8       0x78 build/Diplomamunka/production/_ext/1408260596/udp.o
                0x9d019fb8                TCPIP_UDP_Close

.text.TCPIP_DHCP_HandlerRegister
                0x9d01a030       0x78
 .text.TCPIP_DHCP_HandlerRegister
                0x9d01a030       0x78 build/Diplomamunka/production/_ext/1408260596/dhcp.o
                0x9d01a030                TCPIP_DHCP_HandlerRegister

.text._DNS_CleanCacheEntry
                0x9d01a0a8       0x78
 .text._DNS_CleanCacheEntry
                0x9d01a0a8       0x78 build/Diplomamunka/production/_ext/1408260596/dns.o

.text.TCPIP_Helper_ProtectedSingleListDeinitialize
                0x9d01a120       0x78
 .text.TCPIP_Helper_ProtectedSingleListDeinitialize
                0x9d01a120       0x78 build/Diplomamunka/production/_ext/1408260596/tcpip_helpers.o
                0x9d01a120                TCPIP_Helper_ProtectedSingleListDeinitialize

.text._TCPIP_MacEventCB
                0x9d01a198       0x78
 .text._TCPIP_MacEventCB
                0x9d01a198       0x78 build/Diplomamunka/production/_ext/1408260596/tcpip_manager.o

.text.TCPIP_PKT_Initialize
                0x9d01a210       0x78
 .text.TCPIP_PKT_Initialize
                0x9d01a210       0x78 build/Diplomamunka/production/_ext/1408260596/tcpip_packet.o
                0x9d01a210                TCPIP_PKT_Initialize

.text._DRV_ETHPHY_NegCompletePhaseRead1
                0x9d01a288       0x74
 .text._DRV_ETHPHY_NegCompletePhaseRead1
                0x9d01a288       0x74 build/Diplomamunka/production/_ext/732687875/drv_ethphy.o

.text._TcpSwapHeader
                0x9d01a2fc       0x74
 .text._TcpSwapHeader
                0x9d01a2fc       0x74 build/Diplomamunka/production/_ext/1408260596/tcp.o

.text._DHCPOptionProcessRouter
                0x9d01a370       0x74
 .text._DHCPOptionProcessRouter
                0x9d01a370       0x74 build/Diplomamunka/production/_ext/1408260596/dhcp.o

.text._DHCPOptionProcessSubNet
                0x9d01a3e4       0x74
 .text._DHCPOptionProcessSubNet
                0x9d01a3e4       0x74 build/Diplomamunka/production/_ext/1408260596/dhcp.o

.text.TCPIP_Helper_StringToPowerMode
                0x9d01a458       0x74
 .text.TCPIP_Helper_StringToPowerMode
                0x9d01a458       0x74 build/Diplomamunka/production/_ext/1408260596/tcpip_helpers.o
                0x9d01a458                TCPIP_Helper_StringToPowerMode

.text._TCPIPStackSignalHandlerRegister
                0x9d01a4cc       0x74
 .text._TCPIPStackSignalHandlerRegister
                0x9d01a4cc       0x74 build/Diplomamunka/production/_ext/1408260596/tcpip_manager.o
                0x9d01a4cc                _TCPIPStackSignalHandlerRegister

.text._TCPIP_PKT_SocketAlloc
                0x9d01a540       0x74
 .text._TCPIP_PKT_SocketAlloc
                0x9d01a540       0x74 build/Diplomamunka/production/_ext/1408260596/tcpip_packet.o
                0x9d01a540                _TCPIP_PKT_SocketAlloc

.text.strncpy   0x9d01a5b4       0x74
 .text.strncpy  0x9d01a5b4       0x74 c:/program files (x86)/microchip/xc32/v1.42/bin/bin/../../lib/gcc/pic32mx/4.8.3/../../../../pic32mx/lib\libc.a(strncpy.o)
                0x9d01a5b4                strncpy

.text.DRV_ETHMAC_PIC32MACConfigGet
                0x9d01a628       0x70
 .text.DRV_ETHMAC_PIC32MACConfigGet
                0x9d01a628       0x70 build/Diplomamunka/production/_ext/1908841681/drv_ethmac.o
                0x9d01a628                DRV_ETHMAC_PIC32MACConfigGet

.text._EnetPoolFreeDcptList
                0x9d01a698       0x70
 .text._EnetPoolFreeDcptList
                0x9d01a698       0x70 build/Diplomamunka/production/_ext/1908841681/drv_ethmac_lib.o

.text._DRV_ETHPHY_LinkStatPhaseRefresh
                0x9d01a708       0x70
 .text._DRV_ETHPHY_LinkStatPhaseRefresh
                0x9d01a708       0x70 build/Diplomamunka/production/_ext/732687875/drv_ethphy.o

.text._UDPClose
                0x9d01a778       0x70
 .text._UDPClose
                0x9d01a778       0x70 build/Diplomamunka/production/_ext/1408260596/udp.o

.text.TCPIP_UDP_SocketNetSet
                0x9d01a7e8       0x70
 .text.TCPIP_UDP_SocketNetSet
                0x9d01a7e8       0x70 build/Diplomamunka/production/_ext/1408260596/udp.o
                0x9d01a7e8                TCPIP_UDP_SocketNetSet

.text._TCPIP_HEAP_Delete
                0x9d01a858       0x70
 .text._TCPIP_HEAP_Delete
                0x9d01a858       0x70 build/Diplomamunka/production/_ext/1408260596/tcpip_heap_internal.o

.text._ARPSetEntry
                0x9d01a8c8       0x70
 .text._ARPSetEntry
                0x9d01a8c8       0x70 build/Diplomamunka/production/_ext/1408260596/arp.o

.text._ARPRemoveEntry
                0x9d01a938       0x70
 .text._ARPRemoveEntry
                0x9d01a938       0x70 build/Diplomamunka/production/_ext/1408260596/arp.o

.rodata         0x9d01a9a8       0x70
 .rodata        0x9d01a9a8       0x70 build/Diplomamunka/production/_ext/1408260596/dhcp.o

.text.strncmp   0x9d01aa18       0x70
 .text.strncmp  0x9d01aa18       0x70 c:/program files (x86)/microchip/xc32/v1.42/bin/bin/../../lib/gcc/pic32mx/4.8.3/../../../../pic32mx/lib\libc.a(strncmp.o)
                0x9d01aa18                strncmp

.text._MacRxFreeCallback
                0x9d01aa88       0x6c
 .text._MacRxFreeCallback
                0x9d01aa88       0x6c build/Diplomamunka/production/_ext/1908841681/drv_ethmac.o

.text.TCPIP_TCP_Close
                0x9d01aaf4       0x6c
 .text.TCPIP_TCP_Close
                0x9d01aaf4       0x6c build/Diplomamunka/production/_ext/1408260596/tcp.o
                0x9d01aaf4                TCPIP_TCP_Close

.text._DHCPCleanup
                0x9d01ab60       0x6c
 .text._DHCPCleanup
                0x9d01ab60       0x6c build/Diplomamunka/production/_ext/1408260596/dhcp.o

.text._DNSGetData
                0x9d01abcc       0x6c
 .text._DNSGetData
                0x9d01abcc       0x6c build/Diplomamunka/production/_ext/1408260596/dns.o

.text._TCPIP_AnnounceCleanup
                0x9d01ac38       0x6c
 .text._TCPIP_AnnounceCleanup
                0x9d01ac38       0x6c build/Diplomamunka/production/_ext/1408260596/tcpip_announce.o

.text.TCPIP_ANNOUNCE_Deinitialize
                0x9d01aca4       0x6c
 .text.TCPIP_ANNOUNCE_Deinitialize
                0x9d01aca4       0x6c build/Diplomamunka/production/_ext/1408260596/tcpip_announce.o
                0x9d01aca4                TCPIP_ANNOUNCE_Deinitialize

.text.SYS_RANDOM_Initialize
                0x9d01ad10       0x68
 .text.SYS_RANDOM_Initialize
                0x9d01ad10       0x68 build/Diplomamunka/production/_ext/1283840359/sys_random.o
                0x9d01ad10                SYS_RANDOM_Initialize

.text._UDPFreeTxResources
                0x9d01ad78       0x68
 .text._UDPFreeTxResources
                0x9d01ad78       0x68 build/Diplomamunka/production/_ext/1408260596/udp.o

.text.TCPIP_UDP_OpenClientSkt
                0x9d01ade0       0x68
 .text.TCPIP_UDP_OpenClientSkt
                0x9d01ade0       0x68 build/Diplomamunka/production/_ext/1408260596/udp.o
                0x9d01ade0                TCPIP_UDP_OpenClientSkt

.text.TCPIP_UDP_SignalHandlerRegister
                0x9d01ae48       0x68
 .text.TCPIP_UDP_SignalHandlerRegister
                0x9d01ae48       0x68 build/Diplomamunka/production/_ext/1408260596/udp.o
                0x9d01ae48                TCPIP_UDP_SignalHandlerRegister

.text.TCPIP_ARP_HashEntryDelete
                0x9d01aeb0       0x68
 .text.TCPIP_ARP_HashEntryDelete
                0x9d01aeb0       0x68 build/Diplomamunka/production/_ext/1408260596/arp.o
                0x9d01aeb0                TCPIP_ARP_HashEntryDelete

.text._DHCPSetTimeout
                0x9d01af18       0x68
 .text._DHCPSetTimeout
                0x9d01af18       0x68 build/Diplomamunka/production/_ext/1408260596/dhcp.o

.text.TCPIP_DNS_RemoveEntry
                0x9d01af80       0x68
 .text.TCPIP_DNS_RemoveEntry
                0x9d01af80       0x68 build/Diplomamunka/production/_ext/1408260596/dns.o
                0x9d01af80                TCPIP_DNS_RemoveEntry

.text.TCPIP_STACK_IsBcastAddress
                0x9d01afe8       0x68
 .text.TCPIP_STACK_IsBcastAddress
                0x9d01afe8       0x68 build/Diplomamunka/production/_ext/1408260596/tcpip_manager.o
                0x9d01afe8                TCPIP_STACK_IsBcastAddress

.text._TCPIPStackModuleRxInsert
                0x9d01b050       0x68
 .text._TCPIPStackModuleRxInsert
                0x9d01b050       0x68 build/Diplomamunka/production/_ext/1408260596/tcpip_manager.o
                0x9d01b050                _TCPIPStackModuleRxInsert

.text._sprintf_cdnopuxX
                0x9d01b0b8       0x68
 .text._sprintf_cdnopuxX
                0x9d01b0b8       0x68 c:/program files (x86)/microchip/xc32/v1.42/bin/bin/../../lib/gcc/pic32mx/4.8.3/../../../../pic32mx/lib\libc.a(sprintf_cdnopuxX.eo)
                0x9d01b0b8                _sprintf_cdnopuxX

.text.DRV_ETHPHY_SMIScanStatusGet
                0x9d01b120       0x64
 .text.DRV_ETHPHY_SMIScanStatusGet
                0x9d01b120       0x64 build/Diplomamunka/production/_ext/732687875/drv_ethphy.o
                0x9d01b120                DRV_ETHPHY_SMIScanStatusGet

.text.DRV_TMR_Open
                0x9d01b184       0x64
 .text.DRV_TMR_Open
                0x9d01b184       0x64 build/Diplomamunka/production/_ext/185269848/drv_tmr.o
                0x9d01b184                DRV_TMR_Open

.text.DRV_TMR_Start
                0x9d01b1e8       0x64
 .text.DRV_TMR_Start
                0x9d01b1e8       0x64 build/Diplomamunka/production/_ext/185269848/drv_tmr.o
                0x9d01b1e8                DRV_TMR_Start

.text._TcpSocketKill
                0x9d01b24c       0x64
 .text._TcpSocketKill
                0x9d01b24c       0x64 build/Diplomamunka/production/_ext/1408260596/tcp.o

.text.TCPIP_UDP_GetIsReady
                0x9d01b2b0       0x64
 .text.TCPIP_UDP_GetIsReady
                0x9d01b2b0       0x64 build/Diplomamunka/production/_ext/1408260596/udp.o
                0x9d01b2b0                TCPIP_UDP_GetIsReady

.text.TCPIP_DHCP_Deinitialize
                0x9d01b314       0x64
 .text.TCPIP_DHCP_Deinitialize
                0x9d01b314       0x64 build/Diplomamunka/production/_ext/1408260596/dhcp.o
                0x9d01b314                TCPIP_DHCP_Deinitialize

.text.ANNOUNCE_Notify
                0x9d01b378       0x64
 .text.ANNOUNCE_Notify
                0x9d01b378       0x64 build/Diplomamunka/production/_ext/1408260596/tcpip_announce.o

.text.TCPIP_STACK_AddressServiceEvent
                0x9d01b3dc       0x64
 .text.TCPIP_STACK_AddressServiceEvent
                0x9d01b3dc       0x64 build/Diplomamunka/production/_ext/1408260596/tcpip_manager.o
                0x9d01b3dc                TCPIP_STACK_AddressServiceEvent

.text.TCPIP_IPV4_Cleanup
                0x9d01b440       0x64
 .text.TCPIP_IPV4_Cleanup
                0x9d01b440       0x64 build/Diplomamunka/production/_ext/1408260596/ipv4.o

.text.DRV_ETHMAC_PIC32MACParametersGet
                0x9d01b4a4       0x60
 .text.DRV_ETHMAC_PIC32MACParametersGet
                0x9d01b4a4       0x60 build/Diplomamunka/production/_ext/1908841681/drv_ethmac.o
                0x9d01b4a4                DRV_ETHMAC_PIC32MACParametersGet

.text._DRV_ETHPHY_ClientOpReset
                0x9d01b504       0x60
 .text._DRV_ETHPHY_ClientOpReset
                0x9d01b504       0x60 build/Diplomamunka/production/_ext/732687875/drv_ethphy.o

.text._DRV_ETHPHY_ClientOpLinkStat
                0x9d01b564       0x60
 .text._DRV_ETHPHY_ClientOpLinkStat
                0x9d01b564       0x60 build/Diplomamunka/production/_ext/732687875/drv_ethphy.o

.text._DRV_ETHPHY_ClientOpNegResult
                0x9d01b5c4       0x60
 .text._DRV_ETHPHY_ClientOpNegResult
                0x9d01b5c4       0x60 build/Diplomamunka/production/_ext/732687875/drv_ethphy.o

.text._DRV_ETHPHY_ClientOpNegComplete
                0x9d01b624       0x60
 .text._DRV_ETHPHY_ClientOpNegComplete
                0x9d01b624       0x60 build/Diplomamunka/production/_ext/732687875/drv_ethphy.o

.text._DRV_ETHPHY_ClientOpNegRestart
                0x9d01b684       0x60
 .text._DRV_ETHPHY_ClientOpNegRestart
                0x9d01b684       0x60 build/Diplomamunka/production/_ext/732687875/drv_ethphy.o

.text._DRV_ETHPHY_SetupPhaseNegotiate
                0x9d01b6e4       0x60
 .text._DRV_ETHPHY_SetupPhaseNegotiate
                0x9d01b6e4       0x60 build/Diplomamunka/production/_ext/732687875/drv_ethphy.o

.text._DHCPOptionProcessMsgType
                0x9d01b744       0x60
 .text._DHCPOptionProcessMsgType
                0x9d01b744       0x60 build/Diplomamunka/production/_ext/1408260596/dhcp.o

.text._DNSClientCleanup
                0x9d01b7a4       0x60
 .text._DNSClientCleanup
                0x9d01b7a4       0x60 build/Diplomamunka/production/_ext/1408260596/dns.o

.text.TCPIP_OAHASH_EntriesRemoveAll
                0x9d01b804       0x60
 .text.TCPIP_OAHASH_EntriesRemoveAll
                0x9d01b804       0x60 build/Diplomamunka/production/_ext/1408260596/oahash.o
                0x9d01b804                TCPIP_OAHASH_EntriesRemoveAll

.rodata         0x9d01b864       0x60
 .rodata        0x9d01b864       0x60 build/Diplomamunka/production/_ext/1408260596/tcpip_helpers.o

.text.IPv4RegisterFilter
                0x9d01b8c4       0x60
 .text.IPv4RegisterFilter
                0x9d01b8c4       0x60 build/Diplomamunka/production/_ext/1408260596/ipv4.o
                0x9d01b8c4                IPv4RegisterFilter

.text.sitofp    0x9d01b924       0x60
 .text.sitofp   0x9d01b924       0x60 c:/program files (x86)/microchip/xc32/v1.42/bin/bin/../../lib/gcc/pic32mx/4.8.3/../../../../pic32mx/lib\libm.a(sitofp.o)
                0x9d01b924                sitofp
                0x9d01b924                litofp
                0x9d01b924                __floatsisf

.text._DRV_ETHPHY_ClientOpSetup
                0x9d01b984       0x5c
 .text._DRV_ETHPHY_ClientOpSetup
                0x9d01b984       0x5c build/Diplomamunka/production/_ext/732687875/drv_ethphy.o

.text.DRV_ETHPHY_LinkStatusGet
                0x9d01b9e0       0x5c
 .text.DRV_ETHPHY_LinkStatusGet
                0x9d01b9e0       0x5c build/Diplomamunka/production/_ext/732687875/drv_ethphy.o
                0x9d01b9e0                DRV_ETHPHY_LinkStatusGet

.text.DRV_ETHPHY_NegotiationResultGet
                0x9d01ba3c       0x5c
 .text.DRV_ETHPHY_NegotiationResultGet
                0x9d01ba3c       0x5c build/Diplomamunka/production/_ext/732687875/drv_ethphy.o
                0x9d01ba3c                DRV_ETHPHY_NegotiationResultGet

.text._DRV_ETHPHY_ClientOpSmiRead
                0x9d01ba98       0x5c
 .text._DRV_ETHPHY_ClientOpSmiRead
                0x9d01ba98       0x5c build/Diplomamunka/production/_ext/732687875/drv_ethphy.o

.text._DNS_NetIsValid
                0x9d01baf4       0x5c
 .text._DNS_NetIsValid
                0x9d01baf4       0x5c build/Diplomamunka/production/_ext/1408260596/dns.o

.text.fnv_32_hash
                0x9d01bb50       0x5c
 .text.fnv_32_hash
                0x9d01bb50       0x5c build/Diplomamunka/production/_ext/1408260596/hash_fnv.o
                0x9d01bb50                fnv_32_hash

.text._DRV_I2C_QueuePop_0
                0x9d01bbac       0x58
 .text._DRV_I2C_QueuePop_0
                0x9d01bbac       0x58 build/Diplomamunka/production/_ext/1774832663/drv_i2c_static_buffer_model.o
                0x9d01bbac                _DRV_I2C_QueuePop_0

.text.TCPIP_STACK_Init
                0x9d01bc04       0x58
 .text.TCPIP_STACK_Init
                0x9d01bc04       0x58 build/Diplomamunka/production/_ext/1720293489/system_init.o
                0x9d01bc04                TCPIP_STACK_Init

.text.DRV_ETHMAC_PIC32MACOpen
                0x9d01bc5c       0x58
 .text.DRV_ETHMAC_PIC32MACOpen
                0x9d01bc5c       0x58 build/Diplomamunka/production/_ext/1908841681/drv_ethmac.o
                0x9d01bc5c                DRV_ETHMAC_PIC32MACOpen

.text.DRV_ETHMAC_PIC32MACLinkCheck
                0x9d01bcb4       0x58
 .text.DRV_ETHMAC_PIC32MACLinkCheck
                0x9d01bcb4       0x58 build/Diplomamunka/production/_ext/1908841681/drv_ethmac.o
                0x9d01bcb4                DRV_ETHMAC_PIC32MACLinkCheck

.text._MacTxDiscardQueues
                0x9d01bd0c       0x58
 .text._MacTxDiscardQueues
                0x9d01bd0c       0x58 build/Diplomamunka/production/_ext/1908841681/drv_ethmac.o

.text.DRV_ETHPHY_Initialize
                0x9d01bd64       0x58
 .text.DRV_ETHPHY_Initialize
                0x9d01bd64       0x58 build/Diplomamunka/production/_ext/732687875/drv_ethphy.o
                0x9d01bd64                DRV_ETHPHY_Initialize

.text.SYS_DEVCON_SystemUnlock
                0x9d01bdbc       0x58
 .text.SYS_DEVCON_SystemUnlock
                0x9d01bdbc       0x58 build/Diplomamunka/production/_ext/1271179505/sys_devcon.o
                0x9d01bdbc                SYS_DEVCON_SystemUnlock

.text.SYS_INT_SourceDisable
                0x9d01be14       0x58
 .text.SYS_INT_SourceDisable
                0x9d01be14       0x58 build/Diplomamunka/production/_ext/122796885/sys_int_pic32.o
                0x9d01be14                SYS_INT_SourceDisable

.text._TCPSocketTxFreeSize
                0x9d01be6c       0x58
 .text._TCPSocketTxFreeSize
                0x9d01be6c       0x58 build/Diplomamunka/production/_ext/1408260596/tcp.o

.text._TCP_PortIsAvailable
                0x9d01bec4       0x58
 .text._TCP_PortIsAvailable
                0x9d01bec4       0x58 build/Diplomamunka/production/_ext/1408260596/tcp.o

.text._DHCPOptionProcessLease
                0x9d01bf1c       0x58
 .text._DHCPOptionProcessLease
                0x9d01bf1c       0x58 build/Diplomamunka/production/_ext/1408260596/dhcp.o

.text._DHCPOptionProcessRenewT
                0x9d01bf74       0x58
 .text._DHCPOptionProcessRenewT
                0x9d01bf74       0x58 build/Diplomamunka/production/_ext/1408260596/dhcp.o

.text._DHCPOptionProcessRebindT
                0x9d01bfcc       0x58
 .text._DHCPOptionProcessRebindT
                0x9d01bfcc       0x58 build/Diplomamunka/production/_ext/1408260596/dhcp.o

.text.TCPIP_Helper_ProtectedSingleListLock
                0x9d01c024       0x58
 .text.TCPIP_Helper_ProtectedSingleListLock
                0x9d01c024       0x58 build/Diplomamunka/production/_ext/1408260596/tcpip_helpers.o
                0x9d01c024                TCPIP_Helper_ProtectedSingleListLock

.text.TCPIP_STACK_NetByAddress
                0x9d01c07c       0x58
 .text.TCPIP_STACK_NetByAddress
                0x9d01c07c       0x58 build/Diplomamunka/production/_ext/1408260596/tcpip_manager.o
                0x9d01c07c                TCPIP_STACK_NetByAddress

.text.TCPIP_Notification_Remove
                0x9d01c0d4       0x58
 .text.TCPIP_Notification_Remove
                0x9d01c0d4       0x58 build/Diplomamunka/production/_ext/1408260596/tcpip_notify.o
                0x9d01c0d4                TCPIP_Notification_Remove

.text.main_entry
                0x9d01c12c       0x54
 .text.main_entry
                0x9d01c12c       0x54 c:/program files (x86)/microchip/xc32/v1.42/bin/bin/../../lib/gcc/pic32mx/4.8.3/../../../../pic32mx/lib/./proc/32MX795F512L/crt0_mips32r2.o
                0x9d01c160                __crt0_exit

.text._DRV_ETHMAC_LinkStateStartLink
                0x9d01c180       0x54
 .text._DRV_ETHMAC_LinkStateStartLink
                0x9d01c180       0x54 build/Diplomamunka/production/_ext/1908841681/drv_ethmac.o

.text._EnetDescriptorsCount
                0x9d01c1d4       0x54
 .text._EnetDescriptorsCount
                0x9d01c1d4       0x54 build/Diplomamunka/production/_ext/1908841681/drv_ethmac_lib.o

.text.SYS_TMR_ObjectDelete
                0x9d01c228       0x54
 .text.SYS_TMR_ObjectDelete
                0x9d01c228       0x54 build/Diplomamunka/production/_ext/1264926591/sys_tmr.o
                0x9d01c228                SYS_TMR_ObjectDelete

.text.DRV_OC0_Initialize
                0x9d01c27c       0x50
 .text.DRV_OC0_Initialize
                0x9d01c27c       0x50 build/Diplomamunka/production/_ext/965532929/drv_oc_static.o
                0x9d01c27c                DRV_OC0_Initialize

.text.DRV_OC1_Initialize
                0x9d01c2cc       0x50
 .text.DRV_OC1_Initialize
                0x9d01c2cc       0x50 build/Diplomamunka/production/_ext/965532929/drv_oc_static.o
                0x9d01c2cc                DRV_OC1_Initialize

.text.DRV_OC2_Initialize
                0x9d01c31c       0x50
 .text.DRV_OC2_Initialize
                0x9d01c31c       0x50 build/Diplomamunka/production/_ext/965532929/drv_oc_static.o
                0x9d01c31c                DRV_OC2_Initialize

.text.DRV_OC3_Initialize
                0x9d01c36c       0x50
 .text.DRV_OC3_Initialize
                0x9d01c36c       0x50 build/Diplomamunka/production/_ext/965532929/drv_oc_static.o
                0x9d01c36c                DRV_OC3_Initialize

.text.DRV_OC4_Initialize
                0x9d01c3bc       0x50
 .text.DRV_OC4_Initialize
                0x9d01c3bc       0x50 build/Diplomamunka/production/_ext/965532929/drv_oc_static.o
                0x9d01c3bc                DRV_OC4_Initialize

.text._XtlEventsTcp2Eth
                0x9d01c40c       0x50
 .text._XtlEventsTcp2Eth
                0x9d01c40c       0x50 build/Diplomamunka/production/_ext/1908841681/drv_ethmac.o

.text.DRV_ETHPHY_HWConfigFlagsGet
                0x9d01c45c       0x50
 .text.DRV_ETHPHY_HWConfigFlagsGet
                0x9d01c45c       0x50 build/Diplomamunka/production/_ext/732687875/drv_ethphy.o
                0x9d01c45c                DRV_ETHPHY_HWConfigFlagsGet

.text._DRV_ETHPHY_NegResultPhase_ANLPAD
                0x9d01c4ac       0x50
 .text._DRV_ETHPHY_NegResultPhase_ANLPAD
                0x9d01c4ac       0x50 build/Diplomamunka/production/_ext/732687875/drv_ethphy.o

.text._DRV_ETHPHY_NegResultPhase_ANEXP
                0x9d01c4fc       0x50
 .text._DRV_ETHPHY_NegResultPhase_ANEXP
                0x9d01c4fc       0x50 build/Diplomamunka/production/_ext/732687875/drv_ethphy.o

.text._TCPSetSourceAddress
                0x9d01c54c       0x50
 .text._TCPSetSourceAddress
                0x9d01c54c       0x50 build/Diplomamunka/production/_ext/1408260596/tcp.o

.text._TCPSetHalfFlushFlag
                0x9d01c59c       0x50
 .text._TCPSetHalfFlushFlag
                0x9d01c59c       0x50 build/Diplomamunka/production/_ext/1408260596/tcp.o

.text._TcpFlush
                0x9d01c5ec       0x50
 .text._TcpFlush
                0x9d01c5ec       0x50 build/Diplomamunka/production/_ext/1408260596/tcp.o

.text.TCPIP_TCP_Flush
                0x9d01c63c       0x50
 .text.TCPIP_TCP_Flush
                0x9d01c63c       0x50 build/Diplomamunka/production/_ext/1408260596/tcp.o
                0x9d01c63c                TCPIP_TCP_Flush

.text.TCPIP_UDP_Discard
                0x9d01c68c       0x50
 .text.TCPIP_UDP_Discard
                0x9d01c68c       0x50 build/Diplomamunka/production/_ext/1408260596/udp.o
                0x9d01c68c                TCPIP_UDP_Discard

.text._DHCPOptionWriteParamRequest
                0x9d01c6dc       0x50
 .text._DHCPOptionWriteParamRequest
                0x9d01c6dc       0x50 build/Diplomamunka/production/_ext/1408260596/dhcp.o

.text._DHCPOptionProcessSrvIdent
                0x9d01c72c       0x50
 .text._DHCPOptionProcessSrvIdent
                0x9d01c72c       0x50 build/Diplomamunka/production/_ext/1408260596/dhcp.o

.text.TCPIP_DNS_OAHASH_KeyHash
                0x9d01c77c       0x50
 .text.TCPIP_DNS_OAHASH_KeyHash
                0x9d01c77c       0x50 build/Diplomamunka/production/_ext/1408260596/dns.o

.text._TCPIPStackModuleSignalGet
                0x9d01c7cc       0x50
 .text._TCPIPStackModuleSignalGet
                0x9d01c7cc       0x50 build/Diplomamunka/production/_ext/1408260596/tcpip_manager.o
                0x9d01c7cc                _TCPIPStackModuleSignalGet

.text.TCPIP_Notification_Add
                0x9d01c81c       0x50
 .text.TCPIP_Notification_Add
                0x9d01c81c       0x50 build/Diplomamunka/production/_ext/1408260596/tcpip_notify.o
                0x9d01c81c                TCPIP_Notification_Add

.text._TCPIP_PKT_PacketAcknowledge
                0x9d01c86c       0x50
 .text._TCPIP_PKT_PacketAcknowledge
                0x9d01c86c       0x50 build/Diplomamunka/production/_ext/1408260596/tcpip_packet.o
                0x9d01c86c                _TCPIP_PKT_PacketAcknowledge

.text.sbrk      0x9d01c8bc       0x50
 .text.sbrk     0x9d01c8bc       0x50 c:/program files (x86)/microchip/xc32/v1.42/bin/bin/../../lib/gcc/pic32mx/4.8.3/../../../../pic32mx/lib\libpic32.a(sbrk.o)
                0x9d01c8bc                sbrk

.text.SYS_CLK_SecondaryOscillatorEnable
                0x9d01c90c       0x4c
 .text.SYS_CLK_SecondaryOscillatorEnable
                0x9d01c90c       0x4c build/Diplomamunka/production/_ext/1892475994/sys_clk_static.o
                0x9d01c90c                SYS_CLK_SecondaryOscillatorEnable

.text._MACTxPacketAckCallback
                0x9d01c958       0x4c
 .text._MACTxPacketAckCallback
                0x9d01c958       0x4c build/Diplomamunka/production/_ext/1908841681/drv_ethmac.o

.text.DRV_ETHPHY_Reset
                0x9d01c9a4       0x4c
 .text.DRV_ETHPHY_Reset
                0x9d01c9a4       0x4c build/Diplomamunka/production/_ext/732687875/drv_ethphy.o
                0x9d01c9a4                DRV_ETHPHY_Reset

.text.DRV_ETHPHY_NegotiationIsComplete
                0x9d01c9f0       0x4c
 .text.DRV_ETHPHY_NegotiationIsComplete
                0x9d01c9f0       0x4c build/Diplomamunka/production/_ext/732687875/drv_ethphy.o
                0x9d01c9f0                DRV_ETHPHY_NegotiationIsComplete

.text._DRV_PHY_NegCompleteSetOperResult
                0x9d01ca3c       0x4c
 .text._DRV_PHY_NegCompleteSetOperResult
                0x9d01ca3c       0x4c build/Diplomamunka/production/_ext/732687875/drv_ethphy.o

.text._DRV_ETHPHY_SetupPhaseNegotiate_SubPhase4
                0x9d01ca88       0x4c
 .text._DRV_ETHPHY_SetupPhaseNegotiate_SubPhase4
                0x9d01ca88       0x4c build/Diplomamunka/production/_ext/732687875/drv_ethphy.o

.text.SYS_TMR_TickCountGetLong
                0x9d01cad4       0x4c
 .text.SYS_TMR_TickCountGetLong
                0x9d01cad4       0x4c build/Diplomamunka/production/_ext/1264926591/sys_tmr.o
                0x9d01cad4                SYS_TMR_TickCountGetLong

.text._TCPIP_HEAP_Calloc
                0x9d01cb20       0x4c
 .text._TCPIP_HEAP_Calloc
                0x9d01cb20       0x4c build/Diplomamunka/production/_ext/1408260596/tcpip_heap_internal.o

.text._ARPRemoveCacheEntries
                0x9d01cb6c       0x4c
 .text._ARPRemoveCacheEntries
                0x9d01cb6c       0x4c build/Diplomamunka/production/_ext/1408260596/arp.o

.text.TCPIP_STACK_MACIdToString
                0x9d01cbb8       0x4c
 .text.TCPIP_STACK_MACIdToString
                0x9d01cbb8       0x4c build/Diplomamunka/production/_ext/1408260596/tcpip_manager.o
                0x9d01cbb8                TCPIP_STACK_MACIdToString

.text.TCPIP_STACK_DNSServiceCanStart
                0x9d01cc04       0x4c
 .text.TCPIP_STACK_DNSServiceCanStart
                0x9d01cc04       0x4c build/Diplomamunka/production/_ext/1408260596/tcpip_manager.o
                0x9d01cc04                TCPIP_STACK_DNSServiceCanStart

.text.TCPIP_Notification_RemoveAll
                0x9d01cc50       0x4c
 .text.TCPIP_Notification_RemoveAll
                0x9d01cc50       0x4c build/Diplomamunka/production/_ext/1408260596/tcpip_notify.o
                0x9d01cc50                TCPIP_Notification_RemoveAll

.text           0x9d01cc9c       0x4c
 .text          0x9d01cc9c       0x4c c:/program files (x86)/microchip/xc32/v1.42/bin/bin/../../lib/gcc/pic32mx/4.8.3\libgcc.a(floatunsisf.o)
                0x9d01cc9c                __floatunsisf

.text.calloc    0x9d01cce8       0x4c
 .text.calloc   0x9d01cce8       0x4c c:/program files (x86)/microchip/xc32/v1.42/bin/bin/../../lib/gcc/pic32mx/4.8.3/../../../../pic32mx/lib\libc.a(calloc.o)
                0x9d01cce8                calloc

.text.DRV_ETHPHY_Tasks
                0x9d01cd34       0x48
 .text.DRV_ETHPHY_Tasks
                0x9d01cd34       0x48 build/Diplomamunka/production/_ext/732687875/drv_ethphy.o
                0x9d01cd34                DRV_ETHPHY_Tasks

.text.DRV_ETHPHY_RestartNegotiation
                0x9d01cd7c       0x48
 .text.DRV_ETHPHY_RestartNegotiation
                0x9d01cd7c       0x48 build/Diplomamunka/production/_ext/732687875/drv_ethphy.o
                0x9d01cd7c                DRV_ETHPHY_RestartNegotiation

.text._DRV_ETHPHY_NegRestartPhaseWrite
                0x9d01cdc4       0x48
 .text._DRV_ETHPHY_NegRestartPhaseWrite
                0x9d01cdc4       0x48 build/Diplomamunka/production/_ext/732687875/drv_ethphy.o

.text._DRV_ETHPHY_ClientOpSmiWrite
                0x9d01ce0c       0x48
 .text._DRV_ETHPHY_ClientOpSmiWrite
                0x9d01ce0c       0x48 build/Diplomamunka/production/_ext/732687875/drv_ethphy.o

.text.DRV_TMR_Close
                0x9d01ce54       0x48
 .text.DRV_TMR_Close
                0x9d01ce54       0x48 build/Diplomamunka/production/_ext/185269848/drv_tmr.o
                0x9d01ce54                DRV_TMR_Close

.text.SYS_DEVCON_SystemLock
                0x9d01ce9c       0x48
 .text.SYS_DEVCON_SystemLock
                0x9d01ce9c       0x48 build/Diplomamunka/production/_ext/1271179505/sys_devcon.o
                0x9d01ce9c                SYS_DEVCON_SystemLock

.text.strupr    0x9d01cee4       0x48
 .text.strupr   0x9d01cee4       0x48 build/Diplomamunka/production/_ext/1136935090/helpers.o
                0x9d01cee4                strupr

.text._UDPIsAvailablePort
                0x9d01cf2c       0x48
 .text._UDPIsAvailablePort
                0x9d01cf2c       0x48 build/Diplomamunka/production/_ext/1408260596/udp.o

.text.TCPIP_UDP_TxPointerGet
                0x9d01cf74       0x48
 .text.TCPIP_UDP_TxPointerGet
                0x9d01cf74       0x48 build/Diplomamunka/production/_ext/1408260596/udp.o
                0x9d01cf74                TCPIP_UDP_TxPointerGet

.text.TCPIP_HEAP_Create
                0x9d01cfbc       0x48
 .text.TCPIP_HEAP_Create
                0x9d01cfbc       0x48 build/Diplomamunka/production/_ext/1408260596/tcpip_heap_alloc.o
                0x9d01cfbc                TCPIP_HEAP_Create

.text.TCPIP_ARP_HandlerDeRegister
                0x9d01d004       0x48
 .text.TCPIP_ARP_HandlerDeRegister
                0x9d01d004       0x48 build/Diplomamunka/production/_ext/1408260596/arp.o
                0x9d01d004                TCPIP_ARP_HandlerDeRegister

.text._DHCPOptionWriteMsgType
                0x9d01d04c       0x48
 .text._DHCPOptionWriteMsgType
                0x9d01d04c       0x48 build/Diplomamunka/production/_ext/1408260596/dhcp.o

.text.TCPIP_Helper_SingleListAppend
                0x9d01d094       0x48
 .text.TCPIP_Helper_SingleListAppend
                0x9d01d094       0x48 build/Diplomamunka/production/_ext/1408260596/tcpip_helpers.o
                0x9d01d094                TCPIP_Helper_SingleListAppend

.text.TCPIP_STACK_IPAddToNet
                0x9d01d0dc       0x48
 .text.TCPIP_STACK_IPAddToNet
                0x9d01d0dc       0x48 build/Diplomamunka/production/_ext/1408260596/tcpip_manager.o
                0x9d01d0dc                TCPIP_STACK_IPAddToNet

.text._bootstrap_exception_handler
                0x9d01d124       0x48
 .text._bootstrap_exception_handler
                0x9d01d124       0x48 c:/program files (x86)/microchip/xc32/v1.42/bin/bin/../../lib/gcc/pic32mx/4.8.3/../../../../pic32mx/lib\libpic32.a(default-bootstrap-exception-handler.o)
                0x9d01d124                _bootstrap_exception_handler

.vector_default
                0x9d01d16c       0x48
 .vector_default
                0x9d01d16c       0x48 c:/program files (x86)/microchip/xc32/v1.42/bin/bin/../../lib/gcc/pic32mx/4.8.3/../../../../pic32mx/lib\libpic32.a(defaultinterrupt.o)
                0x9d01d16c                _DefaultInterrupt

.text.SYS_Tasks
                0x9d01d1b4       0x44
 .text.SYS_Tasks
                0x9d01d1b4       0x44 build/Diplomamunka/production/_ext/1720293489/system_tasks.o
                0x9d01d1b4                SYS_Tasks

.text._SwapARPPacket
                0x9d01d1f8       0x44
 .text._SwapARPPacket
                0x9d01d1f8       0x44 build/Diplomamunka/production/_ext/1408260596/arp.o

.text.TCPIP_DHCP_HandlerDeRegister
                0x9d01d23c       0x44
 .text.TCPIP_DHCP_HandlerDeRegister
                0x9d01d23c       0x44 build/Diplomamunka/production/_ext/1408260596/dhcp.o
                0x9d01d23c                TCPIP_DHCP_HandlerDeRegister

.text.TCPIP_DNS_ClientDeinitialize
                0x9d01d280       0x44
 .text.TCPIP_DNS_ClientDeinitialize
                0x9d01d280       0x44 build/Diplomamunka/production/_ext/1408260596/dns.o
                0x9d01d280                TCPIP_DNS_ClientDeinitialize

.text.TCPIP_Helper_ProtectedSingleListInitialize
                0x9d01d2c4       0x44
 .text.TCPIP_Helper_ProtectedSingleListInitialize
                0x9d01d2c4       0x44 build/Diplomamunka/production/_ext/1408260596/tcpip_helpers.o
                0x9d01d2c4                TCPIP_Helper_ProtectedSingleListInitialize

.text._TCPIP_STACK_TickHandler
                0x9d01d308       0x44
 .text._TCPIP_STACK_TickHandler
                0x9d01d308       0x44 build/Diplomamunka/production/_ext/1408260596/tcpip_manager.o

.text.TCPIP_STACK_NetIsBcastAddress
                0x9d01d34c       0x44
 .text.TCPIP_STACK_NetIsBcastAddress
                0x9d01d34c       0x44 build/Diplomamunka/production/_ext/1408260596/tcpip_manager.o
                0x9d01d34c                TCPIP_STACK_NetIsBcastAddress

.text.Ipv4DeRegisterFilter
                0x9d01d390       0x44
 .text.Ipv4DeRegisterFilter
                0x9d01d390       0x44 build/Diplomamunka/production/_ext/1408260596/ipv4.o
                0x9d01d390                Ipv4DeRegisterFilter

.text.PLIB_ETH_RxSetBufferSize
                0x9d01d3d4       0x44
 .text.PLIB_ETH_RxSetBufferSize
                0x9d01d3d4       0x44 ..\..\..\..\bin\framework\peripheral\PIC32MX795F512L_peripherals.a(plib_eth_lib.o)
                0x9d01d3d4                PLIB_ETH_RxSetBufferSize

.text           0x9d01d418       0x44
 .text          0x9d01d418       0x44 c:/program files (x86)/microchip/xc32/v1.42/bin/bin/../../lib/gcc/pic32mx/4.8.3/../../../../pic32mx/lib\pic32_software_reset.o
                0x9d01d418                __pic32_software_reset

.text.strcat    0x9d01d45c       0x44
 .text.strcat   0x9d01d45c       0x44 c:/program files (x86)/microchip/xc32/v1.42/bin/bin/../../lib/gcc/pic32mx/4.8.3/../../../../pic32mx/lib\libc.a(strcat.o)
                0x9d01d45c                strcat

.text._general_exception_handler
                0x9d01d4a0       0x40
 .text._general_exception_handler
                0x9d01d4a0       0x40 build/Diplomamunka/production/_ext/1720293489/system_exceptions.o
                0x9d01d4a0                _general_exception_handler

.text._DRV_ETHPHY_NegCompletePhaseResultNoWait
                0x9d01d4e0       0x40
 .text._DRV_ETHPHY_NegCompletePhaseResultNoWait
                0x9d01d4e0       0x40 build/Diplomamunka/production/_ext/732687875/drv_ethphy.o

.text.TCPIP_TCP_IsConnected
                0x9d01d520       0x40
 .text.TCPIP_TCP_IsConnected
                0x9d01d520       0x40 build/Diplomamunka/production/_ext/1408260596/tcp.o
                0x9d01d520                TCPIP_TCP_IsConnected

.text.TCPIP_TCP_PutIsReady
                0x9d01d560       0x40
 .text.TCPIP_TCP_PutIsReady
                0x9d01d560       0x40 build/Diplomamunka/production/_ext/1408260596/tcp.o
                0x9d01d560                TCPIP_TCP_PutIsReady

.text.TCPIP_TCP_Find
                0x9d01d5a0       0x40
 .text.TCPIP_TCP_Find
                0x9d01d5a0       0x40 build/Diplomamunka/production/_ext/1408260596/tcp.o
                0x9d01d5a0                TCPIP_TCP_Find

.text.TCPIP_ICMP_Cleanup
                0x9d01d5e0       0x40
 .text.TCPIP_ICMP_Cleanup
                0x9d01d5e0       0x40 build/Diplomamunka/production/_ext/1408260596/icmp.o

.text.TCPIP_ICMP_Deinitialize
                0x9d01d620       0x40
 .text.TCPIP_ICMP_Deinitialize
                0x9d01d620       0x40 build/Diplomamunka/production/_ext/1408260596/icmp.o
                0x9d01d620                TCPIP_ICMP_Deinitialize

.text.TCPIP_Helper_ProtectedSingleListUnlock
                0x9d01d660       0x40
 .text.TCPIP_Helper_ProtectedSingleListUnlock
                0x9d01d660       0x40 build/Diplomamunka/production/_ext/1408260596/tcpip_helpers.o
                0x9d01d660                TCPIP_Helper_ProtectedSingleListUnlock

.text._DRV_ETHMAC_LinkStateDown
                0x9d01d6a0       0x3c
 .text._DRV_ETHMAC_LinkStateDown
                0x9d01d6a0       0x3c build/Diplomamunka/production/_ext/1908841681/drv_ethmac.o

.text.DRV_ETHMAC_SingleListHeadRemove
                0x9d01d6dc       0x3c
 .text.DRV_ETHMAC_SingleListHeadRemove
                0x9d01d6dc       0x3c build/Diplomamunka/production/_ext/1908841681/drv_ethmac_lib.o
                0x9d01d6dc                DRV_ETHMAC_SingleListHeadRemove

.text.DRV_TMR_AlarmPeriodGet
                0x9d01d718       0x3c
 .text.DRV_TMR_AlarmPeriodGet
                0x9d01d718       0x3c build/Diplomamunka/production/_ext/185269848/drv_tmr.o
                0x9d01d718                DRV_TMR_AlarmPeriodGet

.text.LFSRRand  0x9d01d754       0x3c
 .text.LFSRRand
                0x9d01d754       0x3c build/Diplomamunka/production/_ext/1136935090/lfsr.o
                0x9d01d754                LFSRRand

.text._TCPIsGetReady
                0x9d01d790       0x3c
 .text._TCPIsGetReady
                0x9d01d790       0x3c build/Diplomamunka/production/_ext/1408260596/tcp.o

.text._UDPTxPktValid
                0x9d01d7cc       0x3c
 .text._UDPTxPktValid
                0x9d01d7cc       0x3c build/Diplomamunka/production/_ext/1408260596/udp.o

.text._UDPFreeRxQueue
                0x9d01d808       0x3c
 .text._UDPFreeRxQueue
                0x9d01d808       0x3c build/Diplomamunka/production/_ext/1408260596/udp.o

.text._ARPTxAckFnc
                0x9d01d844       0x3c
 .text._ARPTxAckFnc
                0x9d01d844       0x3c build/Diplomamunka/production/_ext/1408260596/arp.o

.text.TCPIP_ARP_HashKeyHash
                0x9d01d880       0x3c
 .text.TCPIP_ARP_HashKeyHash
                0x9d01d880       0x3c build/Diplomamunka/production/_ext/1408260596/arp.o
                0x9d01d880                TCPIP_ARP_HashKeyHash

.text._ICMPAllocateTxPacketStruct
                0x9d01d8bc       0x3c
 .text._ICMPAllocateTxPacketStruct
                0x9d01d8bc       0x3c build/Diplomamunka/production/_ext/1408260596/icmp.o

.text.TCPIP_OAHASH_Initialize
                0x9d01d8f8       0x3c
 .text.TCPIP_OAHASH_Initialize
                0x9d01d8f8       0x3c build/Diplomamunka/production/_ext/1408260596/oahash.o
                0x9d01d8f8                TCPIP_OAHASH_Initialize

.text.TCPIP_Helper_SingleListHeadRemove
                0x9d01d934       0x3c
 .text.TCPIP_Helper_SingleListHeadRemove
                0x9d01d934       0x3c build/Diplomamunka/production/_ext/1408260596/tcpip_helpers.o
                0x9d01d934                TCPIP_Helper_SingleListHeadRemove

.text._TCPIPSignalEntryNotify
                0x9d01d970       0x3c
 .text._TCPIPSignalEntryNotify
                0x9d01d970       0x3c build/Diplomamunka/production/_ext/1408260596/tcpip_manager.o

.text._TCPIPStackSetConfigAddress
                0x9d01d9ac       0x3c
 .text._TCPIPStackSetConfigAddress
                0x9d01d9ac       0x3c build/Diplomamunka/production/_ext/1408260596/tcpip_manager.o
                0x9d01d9ac                _TCPIPStackSetConfigAddress

.text._DRV_I2C_Advance_Queue_0
                0x9d01d9e8       0x38
 .text._DRV_I2C_Advance_Queue_0
                0x9d01d9e8       0x38 build/Diplomamunka/production/_ext/1774832663/drv_i2c_static_buffer_model.o
                0x9d01d9e8                _DRV_I2C_Advance_Queue_0

.text._EthMacReset
                0x9d01da20       0x38
 .text._EthMacReset
                0x9d01da20       0x38 build/Diplomamunka/production/_ext/1908841681/drv_ethmac_lib.o

.text.DRV_ETHMAC_LibDescriptorGetBuffer
                0x9d01da58       0x38
 .text.DRV_ETHMAC_LibDescriptorGetBuffer
                0x9d01da58       0x38 build/Diplomamunka/production/_ext/1908841681/drv_ethmac_lib.o
                0x9d01da58                DRV_ETHMAC_LibDescriptorGetBuffer

.text.DRV_ETHMAC_LibRxPendingBuffersGet
                0x9d01da90       0x38
 .text.DRV_ETHMAC_LibRxPendingBuffersGet
                0x9d01da90       0x38 build/Diplomamunka/production/_ext/1908841681/drv_ethmac_lib.o
                0x9d01da90                DRV_ETHMAC_LibRxPendingBuffersGet

.text.DRV_ETHMAC_LibRxScheduledBuffersGet
                0x9d01dac8       0x38
 .text.DRV_ETHMAC_LibRxScheduledBuffersGet
                0x9d01dac8       0x38 build/Diplomamunka/production/_ext/1908841681/drv_ethmac_lib.o
                0x9d01dac8                DRV_ETHMAC_LibRxScheduledBuffersGet

.text.DRV_ETHMAC_LibTxPendingBuffersGet
                0x9d01db00       0x38
 .text.DRV_ETHMAC_LibTxPendingBuffersGet
                0x9d01db00       0x38 build/Diplomamunka/production/_ext/1908841681/drv_ethmac_lib.o
                0x9d01db00                DRV_ETHMAC_LibTxPendingBuffersGet

.text._DRV_PHY_SMIReadStart
                0x9d01db38       0x38
 .text._DRV_PHY_SMIReadStart
                0x9d01db38       0x38 build/Diplomamunka/production/_ext/732687875/drv_ethphy.o

.text._DRV_PHY_SMIWriteStart
                0x9d01db70       0x38
 .text._DRV_PHY_SMIWriteStart
                0x9d01db70       0x38 build/Diplomamunka/production/_ext/732687875/drv_ethphy.o

.text.DRV_ETHPHY_SMIStatus
                0x9d01dba8       0x38
 .text.DRV_ETHPHY_SMIStatus
                0x9d01dba8       0x38 build/Diplomamunka/production/_ext/732687875/drv_ethphy.o
                0x9d01dba8                DRV_ETHPHY_SMIStatus

.text._DRV_ETHPHY_ResetPhaseIdle
                0x9d01dbe0       0x38
 .text._DRV_ETHPHY_ResetPhaseIdle
                0x9d01dbe0       0x38 build/Diplomamunka/production/_ext/732687875/drv_ethphy.o

.text._TcpSocketChk
                0x9d01dc18       0x38
 .text._TcpSocketChk
                0x9d01dc18       0x38 build/Diplomamunka/production/_ext/1408260596/tcp.o

.text._UDPSocketDcpt
                0x9d01dc50       0x38
 .text._UDPSocketDcpt
                0x9d01dc50       0x38 build/Diplomamunka/production/_ext/1408260596/udp.o

.text._ARPAllocateTxPacket
                0x9d01dc88       0x38
 .text._ARPAllocateTxPacket
                0x9d01dc88       0x38 build/Diplomamunka/production/_ext/1408260596/arp.o

.text.TCPIP_STACK_AddressServiceDefaultSet
                0x9d01dcc0       0x38
 .text.TCPIP_STACK_AddressServiceDefaultSet
                0x9d01dcc0       0x38 build/Diplomamunka/production/_ext/1408260596/tcpip_manager.o
                0x9d01dcc0                TCPIP_STACK_AddressServiceDefaultSet

.text.SYS_INT_SourceRestore
                0x9d01dcf8       0x34
 .text.SYS_INT_SourceRestore
                0x9d01dcf8       0x34 build/Diplomamunka/production/_ext/1720293489/system_interrupt.o
                0x9d01dcf8                SYS_INT_SourceRestore

.text.DRV_ETHMAC_LibTxAcknowledgeBuffer
                0x9d01dd2c       0x34
 .text.DRV_ETHMAC_LibTxAcknowledgeBuffer
                0x9d01dd2c       0x34 build/Diplomamunka/production/_ext/1908841681/drv_ethmac_lib.o
                0x9d01dd2c                DRV_ETHMAC_LibTxAcknowledgeBuffer

.text.DRV_ETHPHY_PhyAddressGet
                0x9d01dd60       0x34
 .text.DRV_ETHPHY_PhyAddressGet
                0x9d01dd60       0x34 build/Diplomamunka/production/_ext/732687875/drv_ethphy.o
                0x9d01dd60                DRV_ETHPHY_PhyAddressGet

.text.DRV_ETHPHY_ClientOperationAbort
                0x9d01dd94       0x34
 .text.DRV_ETHPHY_ClientOperationAbort
                0x9d01dd94       0x34 build/Diplomamunka/production/_ext/732687875/drv_ethphy.o
                0x9d01dd94                DRV_ETHPHY_ClientOperationAbort

.text._DRV_ETHPHY_LinkStatPhaseIdle
                0x9d01ddc8       0x34
 .text._DRV_ETHPHY_LinkStatPhaseIdle
                0x9d01ddc8       0x34 build/Diplomamunka/production/_ext/732687875/drv_ethphy.o

.text._DRV_ETHPHY_NegResultPhaseIdle
                0x9d01ddfc       0x34
 .text._DRV_ETHPHY_NegResultPhaseIdle
                0x9d01ddfc       0x34 build/Diplomamunka/production/_ext/732687875/drv_ethphy.o

.text._DRV_ETHPHY_NegCompletePhaseIdle
                0x9d01de30       0x34
 .text._DRV_ETHPHY_NegCompletePhaseIdle
                0x9d01de30       0x34 build/Diplomamunka/production/_ext/732687875/drv_ethphy.o

.text._DRV_ETHPHY_NegRestartPhaseIdle
                0x9d01de64       0x34
 .text._DRV_ETHPHY_NegRestartPhaseIdle
                0x9d01de64       0x34 build/Diplomamunka/production/_ext/732687875/drv_ethphy.o

.text.TCPIP_TCP_GetIsReady
                0x9d01de98       0x34
 .text.TCPIP_TCP_GetIsReady
                0x9d01de98       0x34 build/Diplomamunka/production/_ext/1408260596/tcp.o
                0x9d01de98                TCPIP_TCP_GetIsReady

.text._UDPUpdatePacketLock
                0x9d01decc       0x34
 .text._UDPUpdatePacketLock
                0x9d01decc       0x34 build/Diplomamunka/production/_ext/1408260596/udp.o

.text.TCPIP_STACK_IndexToNet
                0x9d01df00       0x34
 .text.TCPIP_STACK_IndexToNet
                0x9d01df00       0x34 build/Diplomamunka/production/_ext/1408260596/tcpip_manager.o
                0x9d01df00                TCPIP_STACK_IndexToNet

.text.TCPIP_STACK_NetAddressBcast
                0x9d01df34       0x34
 .text.TCPIP_STACK_NetAddressBcast
                0x9d01df34       0x34 build/Diplomamunka/production/_ext/1408260596/tcpip_manager.o
                0x9d01df34                TCPIP_STACK_NetAddressBcast

.text.TCPIP_STACK_DNSServiceSelect
                0x9d01df68       0x34
 .text.TCPIP_STACK_DNSServiceSelect
                0x9d01df68       0x34 build/Diplomamunka/production/_ext/1408260596/tcpip_manager.o
                0x9d01df68                TCPIP_STACK_DNSServiceSelect

.text.TCPIP_STACK_AddressServiceSelect
                0x9d01df9c       0x34
 .text.TCPIP_STACK_AddressServiceSelect
                0x9d01df9c       0x34 build/Diplomamunka/production/_ext/1408260596/tcpip_manager.o
                0x9d01df9c                TCPIP_STACK_AddressServiceSelect

.text.TCPIP_STACK_NetAddress
                0x9d01dfd0       0x34
 .text.TCPIP_STACK_NetAddress
                0x9d01dfd0       0x34 build/Diplomamunka/production/_ext/1408260596/tcpip_manager.o
                0x9d01dfd0                TCPIP_STACK_NetAddress

.text._TCPIPStackHandleToNetLinked
                0x9d01e004       0x34
 .text._TCPIPStackHandleToNetLinked
                0x9d01e004       0x34 build/Diplomamunka/production/_ext/1408260596/tcpip_manager.o
                0x9d01e004                _TCPIPStackHandleToNetLinked

.text.TCPIP_STACK_NetIsReady
                0x9d01e038       0x34
 .text.TCPIP_STACK_NetIsReady
                0x9d01e038       0x34 build/Diplomamunka/production/_ext/1408260596/tcpip_manager.o
                0x9d01e038                TCPIP_STACK_NetIsReady

.text._MacCallocCallback
                0x9d01e06c       0x30
 .text._MacCallocCallback
                0x9d01e06c       0x30 build/Diplomamunka/production/_ext/1908841681/drv_ethmac.o

.text.DRV_ETHMAC_PIC32MACDeinitialize
                0x9d01e09c       0x30
 .text.DRV_ETHMAC_PIC32MACDeinitialize
                0x9d01e09c       0x30 build/Diplomamunka/production/_ext/1908841681/drv_ethmac.o
                0x9d01e09c                DRV_ETHMAC_PIC32MACDeinitialize

.text.DRV_ETHMAC_SingleListTailAdd
                0x9d01e0cc       0x30
 .text.DRV_ETHMAC_SingleListTailAdd
                0x9d01e0cc       0x30 build/Diplomamunka/production/_ext/1908841681/drv_ethmac_lib.o
                0x9d01e0cc                DRV_ETHMAC_SingleListTailAdd

.text.DRV_ETHPHY_VendorDataGet
                0x9d01e0fc       0x30
 .text.DRV_ETHPHY_VendorDataGet
                0x9d01e0fc       0x30 build/Diplomamunka/production/_ext/732687875/drv_ethphy.o
                0x9d01e0fc                DRV_ETHPHY_VendorDataGet

.text._TCPIP_HEAP_FreeSize
                0x9d01e12c       0x30
 .text._TCPIP_HEAP_FreeSize
                0x9d01e12c       0x30 build/Diplomamunka/production/_ext/1408260596/tcpip_heap_internal.o

.text._DHCPSocketRxSignalHandler
                0x9d01e15c       0x30
 .text._DHCPSocketRxSignalHandler
                0x9d01e15c       0x30 build/Diplomamunka/production/_ext/1408260596/dhcp.o

.text._DNSSocketRxSignalHandler
                0x9d01e18c       0x30
 .text._DNSSocketRxSignalHandler
                0x9d01e18c       0x30 build/Diplomamunka/production/_ext/1408260596/dns.o

.text._TCPIP_AnnounceSocketRxSignalHandler
                0x9d01e1bc       0x30
 .text._TCPIP_AnnounceSocketRxSignalHandler
                0x9d01e1bc       0x30 build/Diplomamunka/production/_ext/1408260596/tcpip_announce.o

.text.TCPIP_OAHASH_EntryRemove
                0x9d01e1ec       0x30
 .text.TCPIP_OAHASH_EntryRemove
                0x9d01e1ec       0x30 build/Diplomamunka/production/_ext/1408260596/oahash.o
                0x9d01e1ec                TCPIP_OAHASH_EntryRemove

.text.TCPIP_Helper_SingleListTailAdd
                0x9d01e21c       0x30
 .text.TCPIP_Helper_SingleListTailAdd
                0x9d01e21c       0x30 build/Diplomamunka/production/_ext/1408260596/tcpip_helpers.o
                0x9d01e21c                TCPIP_Helper_SingleListTailAdd

.text.TCPIP_STACK_NetAddressGet
                0x9d01e24c       0x30
 .text.TCPIP_STACK_NetAddressGet
                0x9d01e24c       0x30 build/Diplomamunka/production/_ext/1408260596/tcpip_manager.o
                0x9d01e24c                TCPIP_STACK_NetAddressGet

.text.TCPIP_STACK_NetMaskGet
                0x9d01e27c       0x30
 .text.TCPIP_STACK_NetMaskGet
                0x9d01e27c       0x30 build/Diplomamunka/production/_ext/1408260596/tcpip_manager.o
                0x9d01e27c                TCPIP_STACK_NetMaskGet

.text.TCPIP_STACK_NetworkIsLinked
                0x9d01e2ac       0x30
 .text.TCPIP_STACK_NetworkIsLinked
                0x9d01e2ac       0x30 build/Diplomamunka/production/_ext/1408260596/tcpip_manager.o
                0x9d01e2ac                TCPIP_STACK_NetworkIsLinked

.text._TCPIPStackModuleRxExtract
                0x9d01e2dc       0x30
 .text._TCPIPStackModuleRxExtract
                0x9d01e2dc       0x30 build/Diplomamunka/production/_ext/1408260596/tcpip_manager.o
                0x9d01e2dc                _TCPIPStackModuleRxExtract

.text.free      0x9d01e30c       0x30
 .text.free     0x9d01e30c       0x30 c:/program files (x86)/microchip/xc32/v1.42/bin/bin/../../lib/gcc/pic32mx/4.8.3/../../../../pic32mx/lib\libc.a(malloc.o)
                0x9d01e30c                free

.text.DRV_ETHPHY_Reinitialize
                0x9d01e33c       0x2c
 .text.DRV_ETHPHY_Reinitialize
                0x9d01e33c       0x2c build/Diplomamunka/production/_ext/732687875/drv_ethphy.o
                0x9d01e33c                DRV_ETHPHY_Reinitialize

.text._SYS_TMR_AlarmCallback
                0x9d01e368       0x2c
 .text._SYS_TMR_AlarmCallback
                0x9d01e368       0x2c build/Diplomamunka/production/_ext/1264926591/sys_tmr.o

.text.TCPIP_OAHASH_EntryGet
                0x9d01e394       0x2c
 .text.TCPIP_OAHASH_EntryGet
                0x9d01e394       0x2c build/Diplomamunka/production/_ext/1408260596/oahash.o
                0x9d01e394                TCPIP_OAHASH_EntryGet

.text.TCPIP_Notification_Deinitialize
                0x9d01e3c0       0x2c
 .text.TCPIP_Notification_Deinitialize
                0x9d01e3c0       0x2c build/Diplomamunka/production/_ext/1408260596/tcpip_notify.o
                0x9d01e3c0                TCPIP_Notification_Deinitialize

.text.strchr    0x9d01e3ec       0x2c
 .text.strchr   0x9d01e3ec       0x2c c:/program files (x86)/microchip/xc32/v1.42/bin/bin/../../lib/gcc/pic32mx/4.8.3/../../../../pic32mx/lib\libc.a(strchr.o)
                0x9d01e3ec                strchr

.text._stub_sbd_memlayout
                0x9d01e418       0x2c
 .text._stub_sbd_memlayout
                0x9d01e418       0x2c c:/program files (x86)/microchip/xc32/v1.42/bin/bin/../../lib/gcc/pic32mx/4.8.3/../../../../pic32mx/lib\libpic32.a(sbrk.o)
                0x9d01e418                _sbd_memlayout
                0x9d01e418                _stub_sbd_memlayout

.text.BSP_Initialize
                0x9d01e444       0x28
 .text.BSP_Initialize
                0x9d01e444       0x28 build/Diplomamunka/production/_ext/1837361561/bsp_sys_init.o
                0x9d01e444                BSP_Initialize

.text._MacTxFreeCallback
                0x9d01e46c       0x28
 .text._MacTxFreeCallback
                0x9d01e46c       0x28 build/Diplomamunka/production/_ext/1908841681/drv_ethmac.o

.text.SYS_TMR_TickCountGet
                0x9d01e494       0x28
 .text.SYS_TMR_TickCountGet
                0x9d01e494       0x28 build/Diplomamunka/production/_ext/1264926591/sys_tmr.o
                0x9d01e494                SYS_TMR_TickCountGet

.text.TCPIP_TCP_Put
                0x9d01e4bc       0x28
 .text.TCPIP_TCP_Put
                0x9d01e4bc       0x28 build/Diplomamunka/production/_ext/1408260596/tcp.o
                0x9d01e4bc                TCPIP_TCP_Put

.text.TCPIP_UDP_Put
                0x9d01e4e4       0x28
 .text.TCPIP_UDP_Put
                0x9d01e4e4       0x28 build/Diplomamunka/production/_ext/1408260596/udp.o
                0x9d01e4e4                TCPIP_UDP_Put

.text._TCPIP_HEAP_Size
                0x9d01e50c       0x28
 .text._TCPIP_HEAP_Size
                0x9d01e50c       0x28 build/Diplomamunka/production/_ext/1408260596/tcpip_heap_internal.o

.text._TCPIP_HEAP_LastError
                0x9d01e534       0x28
 .text._TCPIP_HEAP_LastError
                0x9d01e534       0x28 build/Diplomamunka/production/_ext/1408260596/tcpip_heap_internal.o

.text.TCPIP_STACK_NetMACAddressGet
                0x9d01e55c       0x28
 .text.TCPIP_STACK_NetMACAddressGet
                0x9d01e55c       0x28 build/Diplomamunka/production/_ext/1408260596/tcpip_manager.o
                0x9d01e55c                TCPIP_STACK_NetMACAddressGet

.text._TCPIPStackSignalHandlerDeregister
                0x9d01e584       0x28
 .text._TCPIPStackSignalHandlerDeregister
                0x9d01e584       0x28 build/Diplomamunka/production/_ext/1408260596/tcpip_manager.o
                0x9d01e584                _TCPIPStackSignalHandlerDeregister

.text.PLIB_ETH_MACSetMaxFrame
                0x9d01e5ac       0x28
 .text.PLIB_ETH_MACSetMaxFrame
                0x9d01e5ac       0x28 ..\..\..\..\bin\framework\peripheral\PIC32MX795F512L_peripherals.a(plib_eth_lib.o)
                0x9d01e5ac                PLIB_ETH_MACSetMaxFrame

.text.DRV_ETHMAC_PIC32MACClose
                0x9d01e5d4       0x24
 .text.DRV_ETHMAC_PIC32MACClose
                0x9d01e5d4       0x24 build/Diplomamunka/production/_ext/1908841681/drv_ethmac.o
                0x9d01e5d4                DRV_ETHMAC_PIC32MACClose

.text.SYS_TMR_TickCounterFrequencyGet
                0x9d01e5f8       0x24
 .text.SYS_TMR_TickCounterFrequencyGet
                0x9d01e5f8       0x24 build/Diplomamunka/production/_ext/1264926591/sys_tmr.o
                0x9d01e5f8                SYS_TMR_TickCounterFrequencyGet

.text.SYS_TMR_SystemCountFrequencyGet
                0x9d01e61c       0x24
 .text.SYS_TMR_SystemCountFrequencyGet
                0x9d01e61c       0x24 build/Diplomamunka/production/_ext/1264926591/sys_tmr.o
                0x9d01e61c                SYS_TMR_SystemCountFrequencyGet

.text._TCP_TxPktValid
                0x9d01e640       0x24
 .text._TCP_TxPktValid
                0x9d01e640       0x24 build/Diplomamunka/production/_ext/1408260596/tcp.o

.text._DHCPOptionWriteEnd
                0x9d01e664       0x24
 .text._DHCPOptionWriteEnd
                0x9d01e664       0x24 build/Diplomamunka/production/_ext/1408260596/dhcp.o

.text._TCPIPSignalEntrySetNotify
                0x9d01e688       0x24
 .text._TCPIPSignalEntrySetNotify
                0x9d01e688       0x24 build/Diplomamunka/production/_ext/1408260596/tcpip_manager.o

.text.toupper   0x9d01e6ac       0x24
 .text.toupper  0x9d01e6ac       0x24 c:/program files (x86)/microchip/xc32/v1.42/bin/bin/../../lib/gcc/pic32mx/4.8.3/../../../../pic32mx/lib\libc.a(ctypef.o)
                0x9d01e6ac                toupper

.text.main      0x9d01e6d0       0x20
 .text.main     0x9d01e6d0       0x20 build/Diplomamunka/production/_ext/1360937237/main.o
                0x9d01e6d0                main

.text.DRV_ETHMAC_PIC32MACStatus
                0x9d01e6f0       0x20
 .text.DRV_ETHMAC_PIC32MACStatus
                0x9d01e6f0       0x20 build/Diplomamunka/production/_ext/1908841681/drv_ethmac.o
                0x9d01e6f0                DRV_ETHMAC_PIC32MACStatus

.text._DRV_ETHMAC_GetFrmTxOk
                0x9d01e710       0x20
 .text._DRV_ETHMAC_GetFrmTxOk
                0x9d01e710       0x20 build/Diplomamunka/production/_ext/1908841681/drv_ethmac.o

.text._DRV_ETHMAC_GetFrmRxOk
                0x9d01e730       0x20
 .text._DRV_ETHMAC_GetFrmRxOk
                0x9d01e730       0x20 build/Diplomamunka/production/_ext/1908841681/drv_ethmac.o

.text._DRV_ETHMAC_GetFrmPktCount
                0x9d01e750       0x20
 .text._DRV_ETHMAC_GetFrmPktCount
                0x9d01e750       0x20 build/Diplomamunka/production/_ext/1908841681/drv_ethmac.o

.text._DRV_ETHMAC_GetFrmRxOvflow
                0x9d01e770       0x20
 .text._DRV_ETHMAC_GetFrmRxOvflow
                0x9d01e770       0x20 build/Diplomamunka/production/_ext/1908841681/drv_ethmac.o

.text._DRV_ETHMAC_GetFrmFcsError
                0x9d01e790       0x20
 .text._DRV_ETHMAC_GetFrmFcsError
                0x9d01e790       0x20 build/Diplomamunka/production/_ext/1908841681/drv_ethmac.o

.text._DRV_ETHMAC_GetAlignError
                0x9d01e7b0       0x20
 .text._DRV_ETHMAC_GetAlignError
                0x9d01e7b0       0x20 build/Diplomamunka/production/_ext/1908841681/drv_ethmac.o

.text._DRV_ETHMAC_GetSCollisionCount
                0x9d01e7d0       0x20
 .text._DRV_ETHMAC_GetSCollisionCount
                0x9d01e7d0       0x20 build/Diplomamunka/production/_ext/1908841681/drv_ethmac.o

.text._DRV_ETHMAC_GetMCollisionCount
                0x9d01e7f0       0x20
 .text._DRV_ETHMAC_GetMCollisionCount
                0x9d01e7f0       0x20 build/Diplomamunka/production/_ext/1908841681/drv_ethmac.o

.text.DRV_ETHPHY_Close
                0x9d01e810       0x20
 .text.DRV_ETHPHY_Close
                0x9d01e810       0x20 build/Diplomamunka/production/_ext/732687875/drv_ethphy.o
                0x9d01e810                DRV_ETHPHY_Close

.text._DRV_ETHPHY_ClientObjectAllocate
                0x9d01e830       0x20
 .text._DRV_ETHPHY_ClientObjectAllocate
                0x9d01e830       0x20 build/Diplomamunka/production/_ext/732687875/drv_ethphy.o
                0x9d01e830                _DRV_ETHPHY_ClientObjectAllocate

.text.DRV_TMR_AlarmPeriod16BitGet
                0x9d01e850       0x20
 .text.DRV_TMR_AlarmPeriod16BitGet
                0x9d01e850       0x20 build/Diplomamunka/production/_ext/185269848/drv_tmr.o
                0x9d01e850                DRV_TMR_AlarmPeriod16BitGet

.text.TCPIP_TCP_Get
                0x9d01e870       0x20
 .text.TCPIP_TCP_Get
                0x9d01e870       0x20 build/Diplomamunka/production/_ext/1408260596/tcp.o
                0x9d01e870                TCPIP_TCP_Get

.text.TCPIP_UDP_ServerOpen
                0x9d01e890       0x20
 .text.TCPIP_UDP_ServerOpen
                0x9d01e890       0x20 build/Diplomamunka/production/_ext/1408260596/udp.o
                0x9d01e890                TCPIP_UDP_ServerOpen

.text.TCPIP_UDP_ClientOpen
                0x9d01e8b0       0x20
 .text.TCPIP_UDP_ClientOpen
                0x9d01e8b0       0x20 build/Diplomamunka/production/_ext/1408260596/udp.o
                0x9d01e8b0                TCPIP_UDP_ClientOpen

.text.TCPIP_HEAP_Malloc
                0x9d01e8d0       0x20
 .text.TCPIP_HEAP_Malloc
                0x9d01e8d0       0x20 build/Diplomamunka/production/_ext/1408260596/tcpip_heap_alloc.o
                0x9d01e8d0                TCPIP_HEAP_Malloc

.text.TCPIP_HEAP_Calloc
                0x9d01e8f0       0x20
 .text.TCPIP_HEAP_Calloc
                0x9d01e8f0       0x20 build/Diplomamunka/production/_ext/1408260596/tcpip_heap_alloc.o
                0x9d01e8f0                TCPIP_HEAP_Calloc

.text.TCPIP_HEAP_Free
                0x9d01e910       0x20
 .text.TCPIP_HEAP_Free
                0x9d01e910       0x20 build/Diplomamunka/production/_ext/1408260596/tcpip_heap_alloc.o
                0x9d01e910                TCPIP_HEAP_Free

.text.TCPIP_DNS_OAHASH_KeyCompare
                0x9d01e930       0x20
 .text.TCPIP_DNS_OAHASH_KeyCompare
                0x9d01e930       0x20 build/Diplomamunka/production/_ext/1408260596/dns.o

.text._ICMPAckPacket
                0x9d01e950       0x20
 .text._ICMPAckPacket
                0x9d01e950       0x20 build/Diplomamunka/production/_ext/1408260596/icmp.o

.text.TCPIP_STACK_Status
                0x9d01e970       0x20
 .text.TCPIP_STACK_Status
                0x9d01e970       0x20 build/Diplomamunka/production/_ext/1408260596/tcpip_manager.o
                0x9d01e970                TCPIP_STACK_Status

.text.PLIB_ETH_EventsGet
                0x9d01e990       0x20
 .text.PLIB_ETH_EventsGet
                0x9d01e990       0x20 ..\..\..\..\bin\framework\peripheral\PIC32MX795F512L_peripherals.a(plib_eth_lib.o)
                0x9d01e990                PLIB_ETH_EventsGet

.text._DRV_ETHPHY_ClientOpSmiScan
                0x9d01e9b0       0x1c
 .text._DRV_ETHPHY_ClientOpSmiScan
                0x9d01e9b0       0x1c build/Diplomamunka/production/_ext/732687875/drv_ethphy.o

.text.DRV_ETHPHY_VendorDataSet
                0x9d01e9cc       0x1c
 .text.DRV_ETHPHY_VendorDataSet
                0x9d01e9cc       0x1c build/Diplomamunka/production/_ext/732687875/drv_ethphy.o
                0x9d01e9cc                DRV_ETHPHY_VendorDataSet

.rodata         0x9d01e9e8       0x1c
 .rodata        0x9d01e9e8       0x1c build/Diplomamunka/production/_ext/185269848/drv_tmr.o

.text.SYS_RANDOM_PseudoGet
                0x9d01ea04       0x1c
 .text.SYS_RANDOM_PseudoGet
                0x9d01ea04       0x1c build/Diplomamunka/production/_ext/1283840359/sys_random.o
                0x9d01ea04                SYS_RANDOM_PseudoGet

.text.SYS_TMR_ModuleStatusGet
                0x9d01ea20       0x1c
 .text.SYS_TMR_ModuleStatusGet
                0x9d01ea20       0x1c build/Diplomamunka/production/_ext/1264926591/sys_tmr.o
                0x9d01ea20                SYS_TMR_ModuleStatusGet

.text.SYS_TMR_CallbackStop
                0x9d01ea3c       0x1c
 .text.SYS_TMR_CallbackStop
                0x9d01ea3c       0x1c build/Diplomamunka/production/_ext/1264926591/sys_tmr.o
                0x9d01ea3c                SYS_TMR_CallbackStop

.text.SYS_TMR_CallbackPeriodic
                0x9d01ea58       0x1c
 .text.SYS_TMR_CallbackPeriodic
                0x9d01ea58       0x1c build/Diplomamunka/production/_ext/1264926591/sys_tmr.o
                0x9d01ea58                SYS_TMR_CallbackPeriodic

.text.TCPIP_UDP_TxPutIsReady
                0x9d01ea74       0x1c
 .text.TCPIP_UDP_TxPutIsReady
                0x9d01ea74       0x1c build/Diplomamunka/production/_ext/1408260596/udp.o
                0x9d01ea74                TCPIP_UDP_TxPutIsReady

.text.TCPIP_Helper_ChecksumFold
                0x9d01ea90       0x1c
 .text.TCPIP_Helper_ChecksumFold
                0x9d01ea90       0x1c build/Diplomamunka/production/_ext/1408260596/tcpip_helpers.o
                0x9d01ea90                TCPIP_Helper_ChecksumFold

.text.TCPIP_Notification_Initialize
                0x9d01eaac       0x1c
 .text.TCPIP_Notification_Initialize
                0x9d01eaac       0x1c build/Diplomamunka/production/_ext/1408260596/tcpip_notify.o
                0x9d01eaac                TCPIP_Notification_Initialize

.text.PLIB_ETH_RxFiltersSet
                0x9d01eac8       0x1c
 .text.PLIB_ETH_RxFiltersSet
                0x9d01eac8       0x1c ..\..\..\..\bin\framework\peripheral\PIC32MX795F512L_peripherals.a(plib_eth_lib.o)
                0x9d01eac8                PLIB_ETH_RxFiltersSet

.text.PLIB_ETH_RxFiltersClr
                0x9d01eae4       0x1c
 .text.PLIB_ETH_RxFiltersClr
                0x9d01eae4       0x1c ..\..\..\..\bin\framework\peripheral\PIC32MX795F512L_peripherals.a(plib_eth_lib.o)
                0x9d01eae4                PLIB_ETH_RxFiltersClr

.text.PLIB_ETH_RxFiltersHTSet
                0x9d01eb00       0x1c
 .text.PLIB_ETH_RxFiltersHTSet
                0x9d01eb00       0x1c ..\..\..\..\bin\framework\peripheral\PIC32MX795F512L_peripherals.a(plib_eth_lib.o)
                0x9d01eb00                PLIB_ETH_RxFiltersHTSet

.text.srand     0x9d01eb1c       0x1c
 .text.srand    0x9d01eb1c       0x1c c:/program files (x86)/microchip/xc32/v1.42/bin/bin/../../lib/gcc/pic32mx/4.8.3/../../../../pic32mx/lib\libc.a(rand.o)
                0x9d01eb1c                srand

.text.IsQueueEmpty_0
                0x9d01eb38       0x18
 .text.IsQueueEmpty_0
                0x9d01eb38       0x18 build/Diplomamunka/production/_ext/1774832663/drv_i2c_static_buffer_model.o
                0x9d01eb38                IsQueueEmpty_0

.text.DRV_IC0_Start
                0x9d01eb50       0x18
 .text.DRV_IC0_Start
                0x9d01eb50       0x18 build/Diplomamunka/production/_ext/793758023/drv_ic_static.o
                0x9d01eb50                DRV_IC0_Start

.text.DRV_IC1_Start
                0x9d01eb68       0x18
 .text.DRV_IC1_Start
                0x9d01eb68       0x18 build/Diplomamunka/production/_ext/793758023/drv_ic_static.o
                0x9d01eb68                DRV_IC1_Start

.text.DRV_OC0_Enable
                0x9d01eb80       0x18
 .text.DRV_OC0_Enable
                0x9d01eb80       0x18 build/Diplomamunka/production/_ext/965532929/drv_oc_static.o
                0x9d01eb80                DRV_OC0_Enable

.text.DRV_OC0_Start
                0x9d01eb98       0x18
 .text.DRV_OC0_Start
                0x9d01eb98       0x18 build/Diplomamunka/production/_ext/965532929/drv_oc_static.o
                0x9d01eb98                DRV_OC0_Start

.text.DRV_OC1_Enable
                0x9d01ebb0       0x18
 .text.DRV_OC1_Enable
                0x9d01ebb0       0x18 build/Diplomamunka/production/_ext/965532929/drv_oc_static.o
                0x9d01ebb0                DRV_OC1_Enable

.text.DRV_OC1_Start
                0x9d01ebc8       0x18
 .text.DRV_OC1_Start
                0x9d01ebc8       0x18 build/Diplomamunka/production/_ext/965532929/drv_oc_static.o
                0x9d01ebc8                DRV_OC1_Start

.text.DRV_OC2_Enable
                0x9d01ebe0       0x18
 .text.DRV_OC2_Enable
                0x9d01ebe0       0x18 build/Diplomamunka/production/_ext/965532929/drv_oc_static.o
                0x9d01ebe0                DRV_OC2_Enable

.text.DRV_OC2_Start
                0x9d01ebf8       0x18
 .text.DRV_OC2_Start
                0x9d01ebf8       0x18 build/Diplomamunka/production/_ext/965532929/drv_oc_static.o
                0x9d01ebf8                DRV_OC2_Start

.text.DRV_OC3_Enable
                0x9d01ec10       0x18
 .text.DRV_OC3_Enable
                0x9d01ec10       0x18 build/Diplomamunka/production/_ext/965532929/drv_oc_static.o
                0x9d01ec10                DRV_OC3_Enable

.text.DRV_OC3_Start
                0x9d01ec28       0x18
 .text.DRV_OC3_Start
                0x9d01ec28       0x18 build/Diplomamunka/production/_ext/965532929/drv_oc_static.o
                0x9d01ec28                DRV_OC3_Start

.text.DRV_OC4_Enable
                0x9d01ec40       0x18
 .text.DRV_OC4_Enable
                0x9d01ec40       0x18 build/Diplomamunka/production/_ext/965532929/drv_oc_static.o
                0x9d01ec40                DRV_OC4_Enable

.text.DRV_OC4_Start
                0x9d01ec58       0x18
 .text.DRV_OC4_Start
                0x9d01ec58       0x18 build/Diplomamunka/production/_ext/965532929/drv_oc_static.o
                0x9d01ec58                DRV_OC4_Start

.text.DRV_ETHPHY_Deinitialize
                0x9d01ec70       0x18
 .text.DRV_ETHPHY_Deinitialize
                0x9d01ec70       0x18 build/Diplomamunka/production/_ext/732687875/drv_ethphy.o
                0x9d01ec70                DRV_ETHPHY_Deinitialize

.text.DRV_ETHPHY_Status
                0x9d01ec88       0x18
 .text.DRV_ETHPHY_Status
                0x9d01ec88       0x18 build/Diplomamunka/production/_ext/732687875/drv_ethphy.o
                0x9d01ec88                DRV_ETHPHY_Status

.text.DRV_ETHPHY_ClientStatus
                0x9d01eca0       0x18
 .text.DRV_ETHPHY_ClientStatus
                0x9d01eca0       0x18 build/Diplomamunka/production/_ext/732687875/drv_ethphy.o
                0x9d01eca0                DRV_ETHPHY_ClientStatus

.text.DRV_ETHPHY_ClientOperationResult
                0x9d01ecb8       0x18
 .text.DRV_ETHPHY_ClientOperationResult
                0x9d01ecb8       0x18 build/Diplomamunka/production/_ext/732687875/drv_ethphy.o
                0x9d01ecb8                DRV_ETHPHY_ClientOperationResult

.text.SYS_DEVCON_JTAGEnable
                0x9d01ecd0       0x18
 .text.SYS_DEVCON_JTAGEnable
                0x9d01ecd0       0x18 build/Diplomamunka/production/_ext/1271179505/sys_devcon.o
                0x9d01ecd0                SYS_DEVCON_JTAGEnable

.text.SYS_INT_Initialize
                0x9d01ece8       0x18
 .text.SYS_INT_Initialize
                0x9d01ece8       0x18 build/Diplomamunka/production/_ext/122796885/sys_int_pic32.o
                0x9d01ece8                SYS_INT_Initialize

.text.TCPIP_ARP_HashKeyCompare
                0x9d01ed00       0x18
 .text.TCPIP_ARP_HashKeyCompare
                0x9d01ed00       0x18 build/Diplomamunka/production/_ext/1408260596/arp.o
                0x9d01ed00                TCPIP_ARP_HashKeyCompare

.text.TCPIP_STACK_NetIxGet
                0x9d01ed18       0x18
 .text.TCPIP_STACK_NetIxGet
                0x9d01ed18       0x18 build/Diplomamunka/production/_ext/1408260596/tcpip_manager.o
                0x9d01ed18                TCPIP_STACK_NetIxGet

.text.TCPIP_STACK_GatewayAddressSet
                0x9d01ed30       0x18
 .text.TCPIP_STACK_GatewayAddressSet
                0x9d01ed30       0x18 build/Diplomamunka/production/_ext/1408260596/tcpip_manager.o
                0x9d01ed30                TCPIP_STACK_GatewayAddressSet

.text.TCPIP_STACK_PrimaryDNSAddressSet
                0x9d01ed48       0x18
 .text.TCPIP_STACK_PrimaryDNSAddressSet
                0x9d01ed48       0x18 build/Diplomamunka/production/_ext/1408260596/tcpip_manager.o
                0x9d01ed48                TCPIP_STACK_PrimaryDNSAddressSet

.text.TCPIP_STACK_SecondaryDNSAddressSet
                0x9d01ed60       0x18
 .text.TCPIP_STACK_SecondaryDNSAddressSet
                0x9d01ed60       0x18 build/Diplomamunka/production/_ext/1408260596/tcpip_manager.o
                0x9d01ed60                TCPIP_STACK_SecondaryDNSAddressSet

.text.PLIB_ETH_EventsEnableSet
                0x9d01ed78       0x18
 .text.PLIB_ETH_EventsEnableSet
                0x9d01ed78       0x18 ..\..\..\..\bin\framework\peripheral\PIC32MX795F512L_peripherals.a(plib_eth_lib.o)
                0x9d01ed78                PLIB_ETH_EventsEnableSet

.text.PLIB_ETH_EventsEnableClr
                0x9d01ed90       0x18
 .text.PLIB_ETH_EventsEnableClr
                0x9d01ed90       0x18 ..\..\..\..\bin\framework\peripheral\PIC32MX795F512L_peripherals.a(plib_eth_lib.o)
                0x9d01ed90                PLIB_ETH_EventsEnableClr

.text.PLIB_ETH_EventsClr
                0x9d01eda8       0x18
 .text.PLIB_ETH_EventsClr
                0x9d01eda8       0x18 ..\..\..\..\bin\framework\peripheral\PIC32MX795F512L_peripherals.a(plib_eth_lib.o)
                0x9d01eda8                PLIB_ETH_EventsClr

.text           0x9d01edc0       0x18
 .text          0x9d01edc0       0x18 c:/program files (x86)/microchip/xc32/v1.42/bin/bin/../../lib/gcc/pic32mx/4.8.3/../../../../pic32mx/lib\libpic32.a(default-nmi-handler.o)
                0x9d01edc0                _nmi_handler

.text.SYS_DEVCON_Initialize
                0x9d01edd8       0x14
 .text.SYS_DEVCON_Initialize
                0x9d01edd8       0x14 build/Diplomamunka/production/_ext/1271179505/sys_devcon.o
                0x9d01edd8                SYS_DEVCON_Initialize

.rodata         0x9d01edec       0x14
 .rodata        0x9d01edec       0x14 build/Diplomamunka/production/_ext/1408260596/tcpip_announce.o

.text.QueueInitialize_0
                0x9d01ee00       0x10
 .text.QueueInitialize_0
                0x9d01ee00       0x10 build/Diplomamunka/production/_ext/1774832663/drv_i2c_static_buffer_model.o
                0x9d01ee00                QueueInitialize_0

.rodata         0x9d01ee10       0x10
 .rodata        0x9d01ee10       0x10 build/Diplomamunka/production/_ext/732687875/drv_extphy_dp83848.o
                0x9d01ee10                DRV_ETHPHY_OBJECT_National_DP83848

.text.TCPIP_ARP_HashKeyCopy
                0x9d01ee20       0x10
 .text.TCPIP_ARP_HashKeyCopy
                0x9d01ee20       0x10 build/Diplomamunka/production/_ext/1408260596/arp.o
                0x9d01ee20                TCPIP_ARP_HashKeyCopy

.text.TCPIP_Helper_SingleListInitialize
                0x9d01ee30       0x10
 .text.TCPIP_Helper_SingleListInitialize
                0x9d01ee30       0x10 build/Diplomamunka/production/_ext/1408260596/tcpip_helpers.o
                0x9d01ee30                TCPIP_Helper_SingleListInitialize

.text.SYS_CLK_SystemFrequencyGet
                0x9d01ee40        0xc
 .text.SYS_CLK_SystemFrequencyGet
                0x9d01ee40        0xc build/Diplomamunka/production/_ext/1892475994/sys_clk_static.o
                0x9d01ee40                SYS_CLK_SystemFrequencyGet

.text.SYS_CLK_PeripheralFrequencyGet
                0x9d01ee4c        0xc
 .text.SYS_CLK_PeripheralFrequencyGet
                0x9d01ee4c        0xc build/Diplomamunka/production/_ext/1892475994/sys_clk_static.o
                0x9d01ee4c                SYS_CLK_PeripheralFrequencyGet

.rodata         0x9d01ee58        0xc
 .rodata        0x9d01ee58        0xc build/Diplomamunka/production/_ext/1360937237/fan.o

.text.DRV_ETHMAC_PIC32MACEventPendingGet
                0x9d01ee64        0xc
 .text.DRV_ETHMAC_PIC32MACEventPendingGet
                0x9d01ee64        0xc build/Diplomamunka/production/_ext/1908841681/drv_ethmac.o
                0x9d01ee64                DRV_ETHMAC_PIC32MACEventPendingGet

.text.DRV_EXTPHY_SMIClockGet
                0x9d01ee70        0xc
 .text.DRV_EXTPHY_SMIClockGet
                0x9d01ee70        0xc build/Diplomamunka/production/_ext/732687875/drv_extphy_dp83848.o

.text.TCPIP_STACK_NumberOfNetworksGet
                0x9d01ee7c        0xc
 .text.TCPIP_STACK_NumberOfNetworksGet
                0x9d01ee7c        0xc build/Diplomamunka/production/_ext/1408260596/tcpip_manager.o
                0x9d01ee7c                TCPIP_STACK_NumberOfNetworksGet

.text.TCPIP_STACK_NetBIOSName
                0x9d01ee88        0xc
 .text.TCPIP_STACK_NetBIOSName
                0x9d01ee88        0xc build/Diplomamunka/production/_ext/1408260596/tcpip_manager.o
                0x9d01ee88                TCPIP_STACK_NetBIOSName

.text.APP_Initialize
                0x9d01ee94        0x8
 .text.APP_Initialize
                0x9d01ee94        0x8 build/Diplomamunka/production/_ext/1360937237/app.o
                0x9d01ee94                APP_Initialize

.text.interruptT1
                0x9d01ee9c        0x8
 .text.interruptT1
                0x9d01ee9c        0x8 build/Diplomamunka/production/_ext/1360937237/app.o
                0x9d01ee9c                interruptT1

.text.getRxPacketSize
                0x9d01eea4        0x8
 .text.getRxPacketSize
                0x9d01eea4        0x8 build/Diplomamunka/production/_ext/1360937237/TCPServer.o
                0x9d01eea4                getRxPacketSize

.text.DRV_ETHMAC_PIC32MACReinitialize
                0x9d01eeac        0x8
 .text.DRV_ETHMAC_PIC32MACReinitialize
                0x9d01eeac        0x8 build/Diplomamunka/production/_ext/1908841681/drv_ethmac.o
                0x9d01eeac                DRV_ETHMAC_PIC32MACReinitialize

.text.DRV_ETHMAC_PIC32MACPowerMode
                0x9d01eeb4        0x8
 .text.DRV_ETHMAC_PIC32MACPowerMode
                0x9d01eeb4        0x8 build/Diplomamunka/production/_ext/1908841681/drv_ethmac.o
                0x9d01eeb4                DRV_ETHMAC_PIC32MACPowerMode

.text._DRV_ETHPHY_ClientOpNone
                0x9d01eebc        0x8
 .text._DRV_ETHPHY_ClientOpNone
                0x9d01eebc        0x8 build/Diplomamunka/production/_ext/732687875/drv_ethphy.o

.text.SYS_DEVCON_Tasks
                0x9d01eec4        0x8
 .text.SYS_DEVCON_Tasks
                0x9d01eec4        0x8 build/Diplomamunka/production/_ext/1271179505/sys_devcon.o
                0x9d01eec4                SYS_DEVCON_Tasks

.text._TCPIP_HEAP_BufferMapNonCached
                0x9d01eecc        0x8
 .text._TCPIP_HEAP_BufferMapNonCached
                0x9d01eecc        0x8 build/Diplomamunka/production/_ext/1408260596/tcpip_heap_alloc.o
                0x9d01eecc                _TCPIP_HEAP_BufferMapNonCached

.text._DHCPOptionProcessEnd
                0x9d01eed4        0x8
 .text._DHCPOptionProcessEnd
                0x9d01eed4        0x8 build/Diplomamunka/production/_ext/1408260596/dhcp.o

.text.TCPIP_STACK_NetDefaultGet
                0x9d01eedc        0x8
 .text.TCPIP_STACK_NetDefaultGet
                0x9d01eedc        0x8 build/Diplomamunka/production/_ext/1408260596/tcpip_manager.o
                0x9d01eedc                TCPIP_STACK_NetDefaultGet

.text.TCPIP_PKT_Deinitialize
                0x9d01eee4        0x8
 .text.TCPIP_PKT_Deinitialize
                0x9d01eee4        0x8 build/Diplomamunka/production/_ext/1408260596/tcpip_packet.o
                0x9d01eee4                TCPIP_PKT_Deinitialize

.text._on_reset
                0x9d01eeec        0x8
 .text._on_reset
                0x9d01eeec        0x8 c:/program files (x86)/microchip/xc32/v1.42/bin/bin/../../lib/gcc/pic32mx/4.8.3/../../../../pic32mx/lib\libpic32.a(default-on-reset.o)
                0x9d01eeec                _on_reset

.text._on_bootstrap
                0x9d01eef4        0x8
 .text._on_bootstrap
                0x9d01eef4        0x8 c:/program files (x86)/microchip/xc32/v1.42/bin/bin/../../lib/gcc/pic32mx/4.8.3/../../../../pic32mx/lib\libpic32.a(default-on-bootstrap.o)
                0x9d01eef4                _on_bootstrap
